Archive member included to satisfy reference by file (symbol)

../../../ch32fun/ch32fun//../misc\libgcc.a(divdf3.o)
                              C:\Users\uni\AppData\Local\Temp\example.elf.S9jvqh.ltrans0.ltrans.o (__divdf3)
../../../ch32fun/ch32fun//../misc\libgcc.a(muldf3.o)
                              C:\Users\uni\AppData\Local\Temp\example.elf.S9jvqh.ltrans0.ltrans.o (__muldf3)
../../../ch32fun/ch32fun//../misc\libgcc.a(fixunsdfsi.o)
                              C:\Users\uni\AppData\Local\Temp\example.elf.S9jvqh.ltrans0.ltrans.o (__fixunsdfsi)
../../../ch32fun/ch32fun//../misc\libgcc.a(floatsidf.o)
                              C:\Users\uni\AppData\Local\Temp\example.elf.S9jvqh.ltrans0.ltrans.o (__floatsidf)
../../../ch32fun/ch32fun//../misc\libgcc.a(floatunsidf.o)
                              C:\Users\uni\AppData\Local\Temp\example.elf.S9jvqh.ltrans0.ltrans.o (__floatunsidf)
../../../ch32fun/ch32fun//../misc\libgcc.a(muldi3.o)
                              C:\Users\uni\AppData\Local\Temp\example.elf.S9jvqh.ltrans0.ltrans.o (__mulsi3)
../../../ch32fun/ch32fun//../misc\libgcc.a(div.o)
                              C:\Users\uni\AppData\Local\Temp\example.elf.S9jvqh.ltrans0.ltrans.o (__udivsi3)
../../../ch32fun/ch32fun//../misc\libgcc.a(_clzsi2.o)
                              ../../../ch32fun/ch32fun//../misc\libgcc.a(divdf3.o) (__clzsi2)
../../../ch32fun/ch32fun//../misc\libgcc.a(_clz.o)
                              ../../../ch32fun/ch32fun//../misc\libgcc.a(_clzsi2.o) (__clz_tab)

Discarded input sections

 .text          0x0000000000000000        0x0 C:\Users\uni\AppData\Local\Temp\example.elf.S9jvqh.ltrans0.ltrans.o
 .data          0x0000000000000000        0x0 C:\Users\uni\AppData\Local\Temp\example.elf.S9jvqh.ltrans0.ltrans.o
 .bss           0x0000000000000000        0x0 C:\Users\uni\AppData\Local\Temp\example.elf.S9jvqh.ltrans0.ltrans.o
 .text.vprintf  0x0000000000000000       0x16 C:\Users\uni\AppData\Local\Temp\example.elf.S9jvqh.ltrans0.ltrans.o
 .text.snprintf
                0x0000000000000000       0x1c C:\Users\uni\AppData\Local\Temp\example.elf.S9jvqh.ltrans0.ltrans.o
 .text.strncpy  0x0000000000000000       0x1c C:\Users\uni\AppData\Local\Temp\example.elf.S9jvqh.ltrans0.ltrans.o
 .text.strcmp   0x0000000000000000       0x1a C:\Users\uni\AppData\Local\Temp\example.elf.S9jvqh.ltrans0.ltrans.o
 .text.strncmp  0x0000000000000000       0x2e C:\Users\uni\AppData\Local\Temp\example.elf.S9jvqh.ltrans0.ltrans.o
 .text.strchr   0x0000000000000000       0x16 C:\Users\uni\AppData\Local\Temp\example.elf.S9jvqh.ltrans0.ltrans.o
 .text.strrchr  0x0000000000000000       0x3c C:\Users\uni\AppData\Local\Temp\example.elf.S9jvqh.ltrans0.ltrans.o
 .text.memcmp   0x0000000000000000       0x26 C:\Users\uni\AppData\Local\Temp\example.elf.S9jvqh.ltrans0.ltrans.o
 .text.memmove  0x0000000000000000       0x5e C:\Users\uni\AppData\Local\Temp\example.elf.S9jvqh.ltrans0.ltrans.o
 .text.memchr   0x0000000000000000       0x1c C:\Users\uni\AppData\Local\Temp\example.elf.S9jvqh.ltrans0.ltrans.o
 .text.strnlen  0x0000000000000000       0x2a C:\Users\uni\AppData\Local\Temp\example.elf.S9jvqh.ltrans0.ltrans.o
 .text.twoway_strstr
                0x0000000000000000      0x236 C:\Users\uni\AppData\Local\Temp\example.elf.S9jvqh.ltrans0.ltrans.o
 .text.strstr   0x0000000000000000      0x140 C:\Users\uni\AppData\Local\Temp\example.elf.S9jvqh.ltrans0.ltrans.o
 .text.putchar  0x0000000000000000       0x72 C:\Users\uni\AppData\Local\Temp\example.elf.S9jvqh.ltrans0.ltrans.o
 .data.ADCPrescTable.lto_priv.0
                0x0000000000000000       0x14 C:\Users\uni\AppData\Local\Temp\example.elf.S9jvqh.ltrans0.ltrans.o
 .data.ADCPrescTable.lto_priv.1
                0x0000000000000000       0x14 C:\Users\uni\AppData\Local\Temp\example.elf.S9jvqh.ltrans0.ltrans.o
 .data.ADCPrescTable.lto_priv.2
                0x0000000000000000       0x14 C:\Users\uni\AppData\Local\Temp\example.elf.S9jvqh.ltrans0.ltrans.o
 .data.APBAHBPrescTable.lto_priv.0
                0x0000000000000000       0x10 C:\Users\uni\AppData\Local\Temp\example.elf.S9jvqh.ltrans0.ltrans.o
 .data.APBAHBPrescTable.lto_priv.1
                0x0000000000000000       0x10 C:\Users\uni\AppData\Local\Temp\example.elf.S9jvqh.ltrans0.ltrans.o
 .data.APBAHBPrescTable.lto_priv.2
                0x0000000000000000       0x10 C:\Users\uni\AppData\Local\Temp\example.elf.S9jvqh.ltrans0.ltrans.o
 .comment       0x0000000000000000       0x13 C:\Users\uni\AppData\Local\Temp\example.elf.S9jvqh.ltrans0.ltrans.o
 .comment       0x0000000000000000       0x13 C:\Users\uni\AppData\Local\Temp\ccJe0eMs.debug.temp.o
 .comment       0x0000000000000000       0x13 C:\Users\uni\AppData\Local\Temp\ccYmq2Dw.debug.temp.o
 .comment       0x0000000000000000       0x13 C:\Users\uni\AppData\Local\Temp\ccZ71DKz.debug.temp.o
 .data          0x0000000000000000        0x0 ../../../ch32fun/ch32fun//../misc\libgcc.a(divdf3.o)
 .bss           0x0000000000000000        0x0 ../../../ch32fun/ch32fun//../misc\libgcc.a(divdf3.o)
 .comment       0x0000000000000000       0x1c ../../../ch32fun/ch32fun//../misc\libgcc.a(divdf3.o)
 .data          0x0000000000000000        0x0 ../../../ch32fun/ch32fun//../misc\libgcc.a(muldf3.o)
 .bss           0x0000000000000000        0x0 ../../../ch32fun/ch32fun//../misc\libgcc.a(muldf3.o)
 .comment       0x0000000000000000       0x1c ../../../ch32fun/ch32fun//../misc\libgcc.a(muldf3.o)
 .data          0x0000000000000000        0x0 ../../../ch32fun/ch32fun//../misc\libgcc.a(fixunsdfsi.o)
 .bss           0x0000000000000000        0x0 ../../../ch32fun/ch32fun//../misc\libgcc.a(fixunsdfsi.o)
 .comment       0x0000000000000000       0x1c ../../../ch32fun/ch32fun//../misc\libgcc.a(fixunsdfsi.o)
 .data          0x0000000000000000        0x0 ../../../ch32fun/ch32fun//../misc\libgcc.a(floatsidf.o)
 .bss           0x0000000000000000        0x0 ../../../ch32fun/ch32fun//../misc\libgcc.a(floatsidf.o)
 .comment       0x0000000000000000       0x1c ../../../ch32fun/ch32fun//../misc\libgcc.a(floatsidf.o)
 .data          0x0000000000000000        0x0 ../../../ch32fun/ch32fun//../misc\libgcc.a(floatunsidf.o)
 .bss           0x0000000000000000        0x0 ../../../ch32fun/ch32fun//../misc\libgcc.a(floatunsidf.o)
 .comment       0x0000000000000000       0x1c ../../../ch32fun/ch32fun//../misc\libgcc.a(floatunsidf.o)
 .data          0x0000000000000000        0x0 ../../../ch32fun/ch32fun//../misc\libgcc.a(muldi3.o)
 .bss           0x0000000000000000        0x0 ../../../ch32fun/ch32fun//../misc\libgcc.a(muldi3.o)
 .data          0x0000000000000000        0x0 ../../../ch32fun/ch32fun//../misc\libgcc.a(div.o)
 .bss           0x0000000000000000        0x0 ../../../ch32fun/ch32fun//../misc\libgcc.a(div.o)
 .data          0x0000000000000000        0x0 ../../../ch32fun/ch32fun//../misc\libgcc.a(_clzsi2.o)
 .bss           0x0000000000000000        0x0 ../../../ch32fun/ch32fun//../misc\libgcc.a(_clzsi2.o)
 .comment       0x0000000000000000       0x1c ../../../ch32fun/ch32fun//../misc\libgcc.a(_clzsi2.o)
 .text          0x0000000000000000        0x0 ../../../ch32fun/ch32fun//../misc\libgcc.a(_clz.o)
 .data          0x0000000000000000        0x0 ../../../ch32fun/ch32fun//../misc\libgcc.a(_clz.o)
 .bss           0x0000000000000000        0x0 ../../../ch32fun/ch32fun//../misc\libgcc.a(_clz.o)
 .comment       0x0000000000000000       0x1c ../../../ch32fun/ch32fun//../misc\libgcc.a(_clz.o)

Memory Configuration

Name             Origin             Length             Attributes
FLASH            0x0000000000000000 0x0000000000004000 xr
RAM              0x0000000020000000 0x0000000000000800 xrw
*default*        0x0000000000000000 0xffffffffffffffff

Linker script and memory map

LOAD C:\Users\uni\AppData\Local\Temp\ccOsKl3P.o
LOAD C:\Users\uni\AppData\Local\Temp\example.elf.S9jvqh.ltrans0.ltrans.o
LOAD C:\Users\uni\AppData\Local\Temp\ccJe0eMs.debug.temp.o
LOAD C:\Users\uni\AppData\Local\Temp\ccYmq2Dw.debug.temp.o
LOAD C:\Users\uni\AppData\Local\Temp\ccZ71DKz.debug.temp.o
LOAD C:\Users\uni\AppData\Local\Temp\ccAc5VDG.o
LOAD C:\Users\uni\AppData\Local\Temp\ccWYBCUH.o
LOAD ../../../ch32fun/ch32fun//../misc\libgcc.a
LOAD ../../../ch32fun/ch32fun//../misc\libgcc.a

.init           0x0000000000000000       0xa0
                0x0000000000000000                _sinit = .
                0x0000000000000000                . = ALIGN (0x4)
 *(SORT_NONE(.init))
 .init          0x0000000000000000       0x9e C:\Users\uni\AppData\Local\Temp\example.elf.S9jvqh.ltrans0.ltrans.o
                0x0000000000000000                InterruptVector
                0x00000000000000a0                . = ALIGN (0x4)
 *fill*         0x000000000000009e        0x2 
                0x00000000000000a0                _einit = .

.text           0x00000000000000a0     0x3c6c
                0x00000000000000a0                . = ALIGN (0x4)
 *(.text)
 .text          0x00000000000000a0      0x622 ../../../ch32fun/ch32fun//../misc\libgcc.a(divdf3.o)
                0x00000000000000a0                __divdf3
 .text          0x00000000000006c2      0x4e6 ../../../ch32fun/ch32fun//../misc\libgcc.a(muldf3.o)
                0x00000000000006c2                __muldf3
 .text          0x0000000000000ba8       0x5c ../../../ch32fun/ch32fun//../misc\libgcc.a(fixunsdfsi.o)
                0x0000000000000ba8                __fixunsdfsi
 .text          0x0000000000000c04       0x66 ../../../ch32fun/ch32fun//../misc\libgcc.a(floatsidf.o)
                0x0000000000000c04                __floatsidf
 .text          0x0000000000000c6a       0x4c ../../../ch32fun/ch32fun//../misc\libgcc.a(floatunsidf.o)
                0x0000000000000c6a                __floatunsidf
 *fill*         0x0000000000000cb6        0x2 
 .text          0x0000000000000cb8       0x16 ../../../ch32fun/ch32fun//../misc\libgcc.a(muldi3.o)
                0x0000000000000cb8                __mulsi3
 *fill*         0x0000000000000cce        0x2 
 .text          0x0000000000000cd0       0x7e ../../../ch32fun/ch32fun//../misc\libgcc.a(div.o)
                0x0000000000000cd0                __divsi3
                0x0000000000000cd8                __udivsi3
                0x0000000000000cd8                __hidden___udivsi3
                0x0000000000000d04                __umodsi3
                0x0000000000000d28                __modsi3
 .text          0x0000000000000d4e       0x3a ../../../ch32fun/ch32fun//../misc\libgcc.a(_clzsi2.o)
                0x0000000000000d4e                __clzsi2
 *(.text.*)
 .text.mini_pad
                0x0000000000000d88       0x9c C:\Users\uni\AppData\Local\Temp\example.elf.S9jvqh.ltrans0.ltrans.o
 .text._puts    0x0000000000000e24       0x42 C:\Users\uni\AppData\Local\Temp\example.elf.S9jvqh.ltrans0.ltrans.o
 .text.PrintHex
                0x0000000000000e66       0x58 C:\Users\uni\AppData\Local\Temp\example.elf.S9jvqh.ltrans0.ltrans.o
 .text.DelaySysTick
                0x0000000000000ebe       0x16 C:\Users\uni\AppData\Local\Temp\example.elf.S9jvqh.ltrans0.ltrans.o
 .text.mini_itoa.part.0
                0x0000000000000ed4       0xbe C:\Users\uni\AppData\Local\Temp\example.elf.S9jvqh.ltrans0.ltrans.o
 .text.i2c_error
                0x0000000000000f92       0x92 C:\Users\uni\AppData\Local\Temp\example.elf.S9jvqh.ltrans0.ltrans.o
 .text.i2c_send_addr_write
                0x0000000000001024       0x6c C:\Users\uni\AppData\Local\Temp\example.elf.S9jvqh.ltrans0.ltrans.o
 .text.i2c_send_addr_read
                0x0000000000001090       0x6e C:\Users\uni\AppData\Local\Temp\example.elf.S9jvqh.ltrans0.ltrans.o
 .text.i2c_ping
                0x00000000000010fe       0x98 C:\Users\uni\AppData\Local\Temp\example.elf.S9jvqh.ltrans0.ltrans.o
 .text.i2c_write_raw
                0x0000000000001196      0x140 C:\Users\uni\AppData\Local\Temp\example.elf.S9jvqh.ltrans0.ltrans.o
 .text.ssd1306_cmd
                0x00000000000012d6       0x20 C:\Users\uni\AppData\Local\Temp\example.elf.S9jvqh.ltrans0.ltrans.o
 .text.i2c_read_reg
                0x00000000000012f6      0x1f2 C:\Users\uni\AppData\Local\Temp\example.elf.S9jvqh.ltrans0.ltrans.o
 .text.i2c_write_reg
                0x00000000000014e8      0x1b6 C:\Users\uni\AppData\Local\Temp\example.elf.S9jvqh.ltrans0.ltrans.o
 .text.i2c_read_raw.constprop.0
                0x000000000000169e      0x18e C:\Users\uni\AppData\Local\Temp\example.elf.S9jvqh.ltrans0.ltrans.o
 .text.internal_handle_input.constprop.0
                0x000000000000182c        0xa C:\Users\uni\AppData\Local\Temp\example.elf.S9jvqh.ltrans0.ltrans.o
 .text._write.constprop.0
                0x0000000000001836       0xf2 C:\Users\uni\AppData\Local\Temp\example.elf.S9jvqh.ltrans0.ltrans.o
 .text.__puts_uart
                0x0000000000001928       0x14 C:\Users\uni\AppData\Local\Temp\example.elf.S9jvqh.ltrans0.ltrans.o
 .text.handle_reset
                0x000000000000193c       0x72 C:\Users\uni\AppData\Local\Temp\example.elf.S9jvqh.ltrans0.ltrans.o
                0x000000000000193c                handle_reset
 .text.vector_handler
                0x00000000000019ae       0x66 C:\Users\uni\AppData\Local\Temp\example.elf.S9jvqh.ltrans0.ltrans.o
                0x00000000000019ae                EXTI2_IRQHandler
                0x00000000000019ae                TIM8_TRG_COM_IRQHandler
                0x00000000000019ae                TIM8_CC_IRQHandler
                0x00000000000019ae                UART8_IRQHandler
                0x00000000000019ae                TIM1_CC_IRQHandler
                0x00000000000019ae                HardFault_Handler
                0x00000000000019ae                GPIOB_IRQHandler
                0x00000000000019ae                USBPD_IRQHandler
                0x00000000000019ae                TIM6_IRQHandler
                0x00000000000019ae                GPIOA_IRQHandler
                0x00000000000019ae                PVD_IRQHandler
                0x00000000000019ae                SDIO_IRQHandler
                0x00000000000019ae                TIM9_BRK_IRQHandler
                0x00000000000019ae                DMA2_Channel8_IRQHandler
                0x00000000000019ae                USBWakeUp_IRQHandler
                0x00000000000019ae                CAN2_RX1_IRQHandler
                0x00000000000019ae                EXTI3_IRQHandler
                0x00000000000019ae                UART1_IRQHandler
                0x00000000000019ae                USBHS_IRQHandler
                0x00000000000019ae                DMA2_Channel9_IRQHandler
                0x00000000000019ae                TIM10_CC_IRQHandler
                0x00000000000019ae                EXTI25_16_IRQHandler
                0x00000000000019ae                USBFS_IRQHandler
                0x00000000000019ae                UART0_IRQHandler
                0x00000000000019ae                EXTI0_IRQHandler
                0x00000000000019ae                I2C2_EV_IRQHandler
                0x00000000000019ae                TIM10_TRG_COM_IRQHandler
                0x00000000000019ae                CAN2_SCE_IRQHandler
                0x00000000000019ae                ADC1_2_IRQHandler
                0x00000000000019ae                BB_IRQHandler
                0x00000000000019ae                Break_Point_Handler
                0x00000000000019ae                TIM2_CC_IRQHandler
                0x00000000000019ae                SPI1_IRQHandler
                0x00000000000019ae                TAMPER_IRQHandler
                0x00000000000019ae                TMR0_IRQHandler
                0x00000000000019ae                AWU_IRQHandler
                0x00000000000019ae                EXTI7_0_IRQHandler
                0x00000000000019ae                CAN2_RX0_IRQHandler
                0x00000000000019ae                OSCWakeUp_IRQHandler
                0x00000000000019ae                TIM8_UP_IRQHandler
                0x00000000000019ae                Ecall_M_Mode_Handler
                0x00000000000019ae                DMA2_Channel2_IRQHandler
                0x00000000000019ae                DMA1_Channel4_IRQHandler
                0x00000000000019ae                ADC1_IRQHandler
                0x00000000000019ae                TIM2_BRK_IRQHandler
                0x00000000000019ae                TIM9_UP_IRQHandler
                0x00000000000019ae                USART3_IRQHandler
                0x00000000000019ae                RTC_IRQHandler
                0x00000000000019ae                DMA1_Channel7_IRQHandler
                0x00000000000019ae                CAN1_RX1_IRQHandler
                0x00000000000019ae                DVP_IRQHandler
                0x00000000000019ae                UART5_IRQHandler
                0x00000000000019ae                EXTI15_8_IRQHandler
                0x00000000000019ae                TIM4_IRQHandler
                0x00000000000019ae                DMA2_Channel1_IRQHandler
                0x00000000000019ae                USBPD_WKUP_IRQHandler
                0x00000000000019ae                I2C1_EV_IRQHandler
                0x00000000000019ae                UART2_IRQHandler
                0x00000000000019ae                USART4_IRQHandler
                0x00000000000019ae                PWMX_IRQHandler
                0x00000000000019ae                DMA1_Channel6_IRQHandler
                0x00000000000019ae                UART4_IRQHandler
                0x00000000000019ae                DMA2_Channel4_IRQHandler
                0x00000000000019ae                TIM3_IRQHandler
                0x00000000000019ae                RCC_IRQHandler
                0x00000000000019ae                TIM1_TRG_COM_IRQHandler
                0x00000000000019ae                DMA1_Channel1_IRQHandler
                0x00000000000019ae                DMA2_Channel7_IRQHandler
                0x00000000000019ae                EXTI15_10_IRQHandler
                0x00000000000019ae                ADC_IRQHandler
                0x00000000000019ae                DMA1_Channel8_IRQHandler
                0x00000000000019ae                TMR2_IRQHandler
                0x00000000000019ae                DefaultIRQHandler
                0x00000000000019ae                TIM7_IRQHandler
                0x00000000000019ae                CAN2_TX_IRQHandler
                0x00000000000019ae                TIM5_IRQHandler
                0x00000000000019ae                TMR1_IRQHandler
                0x00000000000019ae                USB_IRQHandler
                0x00000000000019ae                EXTI9_5_IRQHandler
                0x00000000000019ae                PIOC_IRQHandler
                0x00000000000019ae                SPI2_IRQHandler
                0x00000000000019ae                OSC32KCal_IRQHandler
                0x00000000000019ae                I2C_IRQHandler
                0x00000000000019ae                TIM10_BRK_IRQHandler
                0x00000000000019ae                TIM9_CC_IRQHandler
                0x00000000000019ae                DMA2_Channel5_IRQHandler
                0x00000000000019ae                USB2_IRQHandler
                0x00000000000019ae                USBHSWakeUp_IRQHandler
                0x00000000000019ae                DMA1_Channel5_IRQHandler
                0x00000000000019ae                EXTI4_IRQHandler
                0x00000000000019ae                USB_LP_CAN1_RX0_IRQHandler
                0x00000000000019ae                RNG_IRQHandler
                0x00000000000019ae                USB_HP_CAN1_TX_IRQHandler
                0x00000000000019ae                LLE_IRQHandler
                0x00000000000019ae                DMA1_Channel3_IRQHandler
                0x00000000000019ae                FSMC_IRQHandler
                0x00000000000019ae                ETH_IRQHandler
                0x00000000000019ae                TIM1_UP_IRQHandler
                0x00000000000019ae                WWDG_IRQHandler
                0x00000000000019ae                DMA2_Channel11_IRQHandler
                0x00000000000019ae                WDOG_BAT_IRQHandler
                0x00000000000019ae                Ecall_U_Mode_Handler
                0x00000000000019ae                TMR3_IRQHandler
                0x00000000000019ae                DMA2_Channel6_IRQHandler
                0x00000000000019ae                TIM2_IRQHandler
                0x00000000000019ae                SW_Handler
                0x00000000000019ae                TIM1_BRK_IRQHandler
                0x00000000000019ae                OPA_IRQHandler
                0x00000000000019ae                DMA2_Channel10_IRQHandler
                0x00000000000019ae                EXTI1_IRQHandler
                0x00000000000019ae                SPI0_IRQHandler
                0x00000000000019ae                RTCAlarm_IRQHandler
                0x00000000000019ae                TIM10_UP_IRQHandler
                0x00000000000019ae                TIM9_TRG_COM_IRQHandler
                0x00000000000019ae                UART7_IRQHandler
                0x00000000000019ae                USART2_IRQHandler
                0x00000000000019ae                UART6_IRQHandler
                0x00000000000019ae                ETHWakeUp_IRQHandler
                0x00000000000019ae                I2C2_ER_IRQHandler
                0x00000000000019ae                DMA1_Channel2_IRQHandler
                0x00000000000019ae                TIM8_BRK_IRQHandler
                0x00000000000019ae                TIM2_TRG_IRQHandler
                0x00000000000019ae                CAN1_SCE_IRQHandler
                0x00000000000019ae                FLASH_IRQHandler
                0x00000000000019ae                USBFSWakeUp_IRQHandler
                0x00000000000019ae                USART1_IRQHandler
                0x00000000000019ae                OTG_FS_IRQHandler
                0x00000000000019ae                SPI3_IRQHandler
                0x00000000000019ae                USBFS_WakeUp_IRQHandler
                0x00000000000019ae                UART3_IRQHandler
                0x00000000000019ae                I2C1_ER_IRQHandler
                0x00000000000019ae                DMA2_Channel3_IRQHandler
                0x0000000000001a06                NMI_Handler
                0x0000000000001a06                NMI_RCC_CSS_IRQHandler
 .text.strlen   0x0000000000001a14       0x12 C:\Users\uni\AppData\Local\Temp\example.elf.S9jvqh.ltrans0.ltrans.o
                0x0000000000001a14                strlen
 .text.mini_vpprintf
                0x0000000000001a26      0x1b4 C:\Users\uni\AppData\Local\Temp\example.elf.S9jvqh.ltrans0.ltrans.o
 .text.printf   0x0000000000001bda       0x28 C:\Users\uni\AppData\Local\Temp\example.elf.S9jvqh.ltrans0.ltrans.o
                0x0000000000001bda                printf
 .text.mini_vsnprintf
                0x0000000000001c02       0x32 C:\Users\uni\AppData\Local\Temp\example.elf.S9jvqh.ltrans0.ltrans.o
 .text.sprintf  0x0000000000001c34       0x22 C:\Users\uni\AppData\Local\Temp\example.elf.S9jvqh.ltrans0.ltrans.o
                0x0000000000001c34                sprintf
 .text.memset   0x0000000000001c56       0x12 C:\Users\uni\AppData\Local\Temp\example.elf.S9jvqh.ltrans0.ltrans.o
                0x0000000000001c56                memset
 .text.strcpy   0x0000000000001c68       0x14 C:\Users\uni\AppData\Local\Temp\example.elf.S9jvqh.ltrans0.ltrans.o
                0x0000000000001c68                strcpy
 .text.memcpy   0x0000000000001c7c       0x1c C:\Users\uni\AppData\Local\Temp\example.elf.S9jvqh.ltrans0.ltrans.o
                0x0000000000001c7c                memcpy
 .text.ssd1306_data.isra.0
                0x0000000000001c98       0x30 C:\Users\uni\AppData\Local\Temp\example.elf.S9jvqh.ltrans0.ltrans.o
 .text.ssd1306_print_str_at.constprop.0
                0x0000000000001cc8       0x74 C:\Users\uni\AppData\Local\Temp\example.elf.S9jvqh.ltrans0.ltrans.o
 .text.puts     0x0000000000001d3c       0x2c C:\Users\uni\AppData\Local\Temp\example.elf.S9jvqh.ltrans0.ltrans.o
                0x0000000000001d3c                puts
 .text.i2c_scan_callback
                0x0000000000001d68       0x50 C:\Users\uni\AppData\Local\Temp\example.elf.S9jvqh.ltrans0.ltrans.o
 .text.SystemInit
                0x0000000000001db8       0x58 C:\Users\uni\AppData\Local\Temp\example.elf.S9jvqh.ltrans0.ltrans.o
                0x0000000000001db8                SystemInit
 .text.startup.main
                0x0000000000001e10     0x1426 C:\Users\uni\AppData\Local\Temp\example.elf.S9jvqh.ltrans0.ltrans.o
                0x0000000000001e10                main
 .text.SysTick_Handler
                0x0000000000003236       0x32 C:\Users\uni\AppData\Local\Temp\example.elf.S9jvqh.ltrans0.ltrans.o
 *(.rodata)
 *fill*         0x0000000000003268        0x0 
 .rodata        0x0000000000003268       0x3c ../../../ch32fun/ch32fun//../misc\libgcc.a(divdf3.o)
 .rodata        0x00000000000032a4      0x100 ../../../ch32fun/ch32fun//../misc\libgcc.a(_clz.o)
                0x00000000000032a4                __clz_tab
 *(.rodata*)
 .rodata.puts.str1.4
                0x00000000000033a4        0x0 C:\Users\uni\AppData\Local\Temp\example.elf.S9jvqh.ltrans0.ltrans.o
                                          0x2 (size before relaxing)
 .rodata.i2c_scan_callback.str1.4
                0x00000000000033a4        0xc C:\Users\uni\AppData\Local\Temp\example.elf.S9jvqh.ltrans0.ltrans.o
 .rodata.main.str1.4
                0x00000000000033b0      0x64f C:\Users\uni\AppData\Local\Temp\example.elf.S9jvqh.ltrans0.ltrans.o
 *fill*         0x00000000000039ff        0x1 
 .rodata.FONT_7x5
                0x0000000000003a00      0x1db C:\Users\uni\AppData\Local\Temp\example.elf.S9jvqh.ltrans0.ltrans.o
 *fill*         0x0000000000003bdb        0x1 
 .rodata.dev_AP3216
                0x0000000000003bdc        0xc C:\Users\uni\AppData\Local\Temp\example.elf.S9jvqh.ltrans0.ltrans.o
 .rodata.dev_adxl345
                0x0000000000003be8        0xc C:\Users\uni\AppData\Local\Temp\example.elf.S9jvqh.ltrans0.ltrans.o
 .rodata.dev_aht21
                0x0000000000003bf4        0xc C:\Users\uni\AppData\Local\Temp\example.elf.S9jvqh.ltrans0.ltrans.o
 .rodata.dev_amg88xx
                0x0000000000003c00        0xc C:\Users\uni\AppData\Local\Temp\example.elf.S9jvqh.ltrans0.ltrans.o
 .rodata.dev_apds9960
                0x0000000000003c0c        0xc C:\Users\uni\AppData\Local\Temp\example.elf.S9jvqh.ltrans0.ltrans.o
 .rodata.dev_as5600
                0x0000000000003c18        0xc C:\Users\uni\AppData\Local\Temp\example.elf.S9jvqh.ltrans0.ltrans.o
 .rodata.dev_at24c
                0x0000000000003c24        0xc C:\Users\uni\AppData\Local\Temp\example.elf.S9jvqh.ltrans0.ltrans.o
 .rodata.dev_bh1750
                0x0000000000003c30        0xc C:\Users\uni\AppData\Local\Temp\example.elf.S9jvqh.ltrans0.ltrans.o
 .rodata.dev_bmp280
                0x0000000000003c3c        0xc C:\Users\uni\AppData\Local\Temp\example.elf.S9jvqh.ltrans0.ltrans.o
 .rodata.dev_ds3231
                0x0000000000003c48        0xc C:\Users\uni\AppData\Local\Temp\example.elf.S9jvqh.ltrans0.ltrans.o
 .rodata.dev_ens160
                0x0000000000003c54        0xc C:\Users\uni\AppData\Local\Temp\example.elf.S9jvqh.ltrans0.ltrans.o
 .rodata.dev_hdc1080
                0x0000000000003c60        0xc C:\Users\uni\AppData\Local\Temp\example.elf.S9jvqh.ltrans0.ltrans.o
 .rodata.dev_htu21
                0x0000000000003c6c        0xc C:\Users\uni\AppData\Local\Temp\example.elf.S9jvqh.ltrans0.ltrans.o
 .rodata.dev_ina219
                0x0000000000003c78        0xc C:\Users\uni\AppData\Local\Temp\example.elf.S9jvqh.ltrans0.ltrans.o
 .rodata.dev_ina3221
                0x0000000000003c84        0xc C:\Users\uni\AppData\Local\Temp\example.elf.S9jvqh.ltrans0.ltrans.o
 .rodata.dev_max30102
                0x0000000000003c90        0xc C:\Users\uni\AppData\Local\Temp\example.elf.S9jvqh.ltrans0.ltrans.o
 .rodata.dev_max44009
                0x0000000000003c9c        0xc C:\Users\uni\AppData\Local\Temp\example.elf.S9jvqh.ltrans0.ltrans.o
 .rodata.dev_mpu6050
                0x0000000000003ca8        0xc C:\Users\uni\AppData\Local\Temp\example.elf.S9jvqh.ltrans0.ltrans.o
 .rodata.dev_scd40
                0x0000000000003cb4        0xc C:\Users\uni\AppData\Local\Temp\example.elf.S9jvqh.ltrans0.ltrans.o
 .rodata.dev_sgp30
                0x0000000000003cc0        0xc C:\Users\uni\AppData\Local\Temp\example.elf.S9jvqh.ltrans0.ltrans.o
 .rodata.dev_sht3x
                0x0000000000003ccc        0xc C:\Users\uni\AppData\Local\Temp\example.elf.S9jvqh.ltrans0.ltrans.o
 .rodata.dev_si7021
                0x0000000000003cd8        0xc C:\Users\uni\AppData\Local\Temp\example.elf.S9jvqh.ltrans0.ltrans.o
 .rodata.dev_vl35lox
                0x0000000000003ce4        0xc C:\Users\uni\AppData\Local\Temp\example.elf.S9jvqh.ltrans0.ltrans.o
 .rodata.ssd1306_init_array
                0x0000000000003cf0       0x1a C:\Users\uni\AppData\Local\Temp\example.elf.S9jvqh.ltrans0.ltrans.o
 *(.gnu.linkonce.t.*)
                0x0000000000003d0c                . = ALIGN (0x4)
 *fill*         0x0000000000003d0a        0x2 

.rela.dyn       0x0000000000003d0c        0x0
 .rela.text.mini_pad
                0x0000000000003d0c        0x0 C:\Users\uni\AppData\Local\Temp\example.elf.S9jvqh.ltrans0.ltrans.o
 .rela.text._write.constprop.0
                0x0000000000003d0c        0x0 C:\Users\uni\AppData\Local\Temp\example.elf.S9jvqh.ltrans0.ltrans.o
 .rela.text.handle_reset
                0x0000000000003d0c        0x0 C:\Users\uni\AppData\Local\Temp\example.elf.S9jvqh.ltrans0.ltrans.o
 .rela.text.mini_vpprintf
                0x0000000000003d0c        0x0 C:\Users\uni\AppData\Local\Temp\example.elf.S9jvqh.ltrans0.ltrans.o
 .rela.text.ssd1306_data.isra.0
                0x0000000000003d0c        0x0 C:\Users\uni\AppData\Local\Temp\example.elf.S9jvqh.ltrans0.ltrans.o
 .rela.text.puts
                0x0000000000003d0c        0x0 C:\Users\uni\AppData\Local\Temp\example.elf.S9jvqh.ltrans0.ltrans.o
 .rela.text.i2c_scan_callback
                0x0000000000003d0c        0x0 C:\Users\uni\AppData\Local\Temp\example.elf.S9jvqh.ltrans0.ltrans.o
 .rela.text.startup.main
                0x0000000000003d0c        0x0 C:\Users\uni\AppData\Local\Temp\example.elf.S9jvqh.ltrans0.ltrans.o

.fini           0x0000000000003d0c        0x0
 *(SORT_NONE(.fini))
                0x0000000000003d0c                . = ALIGN (0x4)
                [!provide]                        PROVIDE (_etext = .)
                [!provide]                        PROVIDE (_eitcm = .)

.preinit_array  0x0000000000003d0c        0x0
                [!provide]                        PROVIDE (__preinit_array_start = .)
 *(.preinit_array)
                [!provide]                        PROVIDE (__preinit_array_end = .)

.init_array     0x0000000000003d0c        0x0
                [!provide]                        PROVIDE (__init_array_start = .)
 *(SORT_BY_INIT_PRIORITY(.init_array.*) SORT_BY_INIT_PRIORITY(.ctors.*))
 *(.init_array EXCLUDE_FILE(*crtend?.o *crtend.o *crtbegin?.o *crtbegin.o) .ctors)
                [!provide]                        PROVIDE (__init_array_end = .)

.fini_array     0x0000000000003d0c        0x0
                [!provide]                        PROVIDE (__fini_array_start = .)
 *(SORT_BY_INIT_PRIORITY(.fini_array.*) SORT_BY_INIT_PRIORITY(.dtors.*))
 *(.fini_array EXCLUDE_FILE(*crtend?.o *crtend.o *crtbegin?.o *crtbegin.o) .dtors)
                [!provide]                        PROVIDE (__fini_array_end = .)

.ctors
 *crtbegin.o(.ctors)
 *crtbegin?.o(.ctors)
 *(EXCLUDE_FILE(*crtend?.o *crtend.o) .ctors)
 *(SORT_BY_NAME(.ctors.*))
 *(.ctors)

.dtors
 *crtbegin.o(.dtors)
 *crtbegin?.o(.dtors)
 *(EXCLUDE_FILE(*crtend?.o *crtend.o) .dtors)
 *(SORT_BY_NAME(.dtors.*))
 *(.dtors)

.dalign         0x0000000020000000        0x0 load address 0x0000000000003d0c
                0x0000000020000000                . = ALIGN (0x4)
                0x0000000020000000                PROVIDE (_data_vma = .)

.dlalign        0x0000000000003d0c        0x0
                0x0000000000003d0c                . = ALIGN (0x4)
                0x0000000000003d0c                PROVIDE (_data_lma = .)

.data           0x0000000020000000       0x28 load address 0x0000000000003d0c
                0x0000000020000000                . = ALIGN (0x4)
                0x00000000200003fc                __global_pointer$ = (. + 0x3fc)
 *(.gnu.linkonce.r.*)
 *(.data .data.*)
 .data.dev_ssd1306
                0x0000000020000000        0xc C:\Users\uni\AppData\Local\Temp\example.elf.S9jvqh.ltrans0.ltrans.o
 *(.gnu.linkonce.d.*)
                0x0000000020000010                . = ALIGN (0x8)
 *fill*         0x000000002000000c        0x4 
 *(.sdata .sdata.*)
 .sdata.line.0  0x0000000020000010        0x4 C:\Users\uni\AppData\Local\Temp\example.elf.S9jvqh.ltrans0.ltrans.o
 *(.sdata2*)
 *(.gnu.linkonce.s.*)
                0x0000000020000018                . = ALIGN (0x8)
 *fill*         0x0000000020000014        0x4 
 *(.srodata.cst16)
 *(.srodata.cst8)
 .srodata.cst8  0x0000000020000018       0x10 C:\Users\uni\AppData\Local\Temp\example.elf.S9jvqh.ltrans0.ltrans.o
 *(.srodata.cst4)
 *(.srodata.cst2)
 *(.srodata .srodata.*)
                0x0000000020000028                . = ALIGN (0x4)
                0x0000000020000028                PROVIDE (_edata = .)

.bss            0x0000000020000028      0x430 load address 0x0000000000003d34
                0x0000000020000028                . = ALIGN (0x4)
                0x0000000020000028                PROVIDE (_sbss = .)
 *(.sbss*)
 .sbss._i2c_timeout
                0x0000000020000028        0x4 C:\Users\uni\AppData\Local\Temp\example.elf.S9jvqh.ltrans0.ltrans.o
 .sbss.buff     0x000000002000002c        0x8 C:\Users\uni\AppData\Local\Temp\example.elf.S9jvqh.ltrans0.ltrans.o
 .sbss.ssd1306_buffer
                0x0000000020000034        0x1 C:\Users\uni\AppData\Local\Temp\example.elf.S9jvqh.ltrans0.ltrans.o
 *fill*         0x0000000020000035        0x3 
 .sbss.systick_millis
                0x0000000020000038        0x4 C:\Users\uni\AppData\Local\Temp\example.elf.S9jvqh.ltrans0.ltrans.o
 *(.gnu.linkonce.sb.*)
 *(.bss*)
 .bss.frame_buffer
                0x000000002000003c      0x400 C:\Users\uni\AppData\Local\Temp\example.elf.S9jvqh.ltrans0.ltrans.o
 .bss.str_output
                0x000000002000043c       0x19 C:\Users\uni\AppData\Local\Temp\example.elf.S9jvqh.ltrans0.ltrans.o
 *(.gnu.linkonce.b.*)
 *(COMMON*)
                0x0000000020000458                . = ALIGN (0x4)
 *fill*         0x0000000020000455        0x3 
                0x0000000020000458                PROVIDE (_ebss = .)
                [!provide]                        PROVIDE (_end = _ebss)
                [!provide]                        PROVIDE (end = .)
                0x0000000020000800                PROVIDE (_eusrstack = (ORIGIN (RAM) + LENGTH (RAM)))

/DISCARD/
 *(.note .note.*)
 *(.eh_frame .eh_frame.*)
 *(.comment .comment.*)
 *(.ARM.extab* .gnu.linkonce.armextab.*)
 *(.ARM.exidx*)
OUTPUT(example.elf elf32-littleriscv)

.riscv.attributes
                0x0000000000000000       0x21
 .riscv.attributes
                0x0000000000000000       0x21 C:\Users\uni\AppData\Local\Temp\example.elf.S9jvqh.ltrans0.ltrans.o
 .riscv.attributes
                0x0000000000000021       0x21 ../../../ch32fun/ch32fun//../misc\libgcc.a(divdf3.o)
 .riscv.attributes
                0x0000000000000042       0x21 ../../../ch32fun/ch32fun//../misc\libgcc.a(muldf3.o)
 .riscv.attributes
                0x0000000000000063       0x21 ../../../ch32fun/ch32fun//../misc\libgcc.a(fixunsdfsi.o)
 .riscv.attributes
                0x0000000000000084       0x21 ../../../ch32fun/ch32fun//../misc\libgcc.a(floatsidf.o)
 .riscv.attributes
                0x00000000000000a5       0x21 ../../../ch32fun/ch32fun//../misc\libgcc.a(floatunsidf.o)
 .riscv.attributes
                0x00000000000000c6       0x1f ../../../ch32fun/ch32fun//../misc\libgcc.a(muldi3.o)
 .riscv.attributes
                0x00000000000000e5       0x1f ../../../ch32fun/ch32fun//../misc\libgcc.a(div.o)
 .riscv.attributes
                0x0000000000000104       0x21 ../../../ch32fun/ch32fun//../misc\libgcc.a(_clzsi2.o)
 .riscv.attributes
                0x0000000000000125       0x21 ../../../ch32fun/ch32fun//../misc\libgcc.a(_clz.o)

.debug_info     0x0000000000000000     0x9a12
 .debug_info    0x0000000000000000     0x428c C:\Users\uni\AppData\Local\Temp\example.elf.S9jvqh.ltrans0.ltrans.o
 .debug_info    0x000000000000428c     0x1188 C:\Users\uni\AppData\Local\Temp\ccJe0eMs.debug.temp.o
                0x000000000000428c                ch32fun.c.6a6b5a13
 .debug_info    0x0000000000005414     0x2417 C:\Users\uni\AppData\Local\Temp\ccYmq2Dw.debug.temp.o
                0x0000000000005414                example.c.0b390d57
 .debug_info    0x000000000000782b      0x7cc C:\Users\uni\AppData\Local\Temp\ccZ71DKz.debug.temp.o
                0x000000000000782b                lib_i2c.c.bdeb3654
 .debug_info    0x0000000000007ff7      0x825 ../../../ch32fun/ch32fun//../misc\libgcc.a(divdf3.o)
 .debug_info    0x000000000000881c      0x8dc ../../../ch32fun/ch32fun//../misc\libgcc.a(muldf3.o)
 .debug_info    0x00000000000090f8      0x1ad ../../../ch32fun/ch32fun//../misc\libgcc.a(fixunsdfsi.o)
 .debug_info    0x00000000000092a5      0x268 ../../../ch32fun/ch32fun//../misc\libgcc.a(floatsidf.o)
 .debug_info    0x000000000000950d      0x25d ../../../ch32fun/ch32fun//../misc\libgcc.a(floatunsidf.o)
 .debug_info    0x000000000000976a       0x31 ../../../ch32fun/ch32fun//../misc\libgcc.a(muldi3.o)
 .debug_info    0x000000000000979b       0x5d ../../../ch32fun/ch32fun//../misc\libgcc.a(div.o)
 .debug_info    0x00000000000097f8      0x142 ../../../ch32fun/ch32fun//../misc\libgcc.a(_clzsi2.o)
 .debug_info    0x000000000000993a       0xd8 ../../../ch32fun/ch32fun//../misc\libgcc.a(_clz.o)

.debug_abbrev   0x0000000000000000     0x1255
 .debug_abbrev  0x0000000000000000      0x21e C:\Users\uni\AppData\Local\Temp\example.elf.S9jvqh.ltrans0.ltrans.o
 .debug_abbrev  0x000000000000021e      0x233 C:\Users\uni\AppData\Local\Temp\ccJe0eMs.debug.temp.o
 .debug_abbrev  0x0000000000000451      0x32c C:\Users\uni\AppData\Local\Temp\ccYmq2Dw.debug.temp.o
 .debug_abbrev  0x000000000000077d      0x1f3 C:\Users\uni\AppData\Local\Temp\ccZ71DKz.debug.temp.o
 .debug_abbrev  0x0000000000000970      0x190 ../../../ch32fun/ch32fun//../misc\libgcc.a(divdf3.o)
 .debug_abbrev  0x0000000000000b00      0x1a2 ../../../ch32fun/ch32fun//../misc\libgcc.a(muldf3.o)
 .debug_abbrev  0x0000000000000ca2      0x162 ../../../ch32fun/ch32fun//../misc\libgcc.a(fixunsdfsi.o)
 .debug_abbrev  0x0000000000000e04      0x164 ../../../ch32fun/ch32fun//../misc\libgcc.a(floatsidf.o)
 .debug_abbrev  0x0000000000000f68      0x163 ../../../ch32fun/ch32fun//../misc\libgcc.a(floatunsidf.o)
 .debug_abbrev  0x00000000000010cb       0x28 ../../../ch32fun/ch32fun//../misc\libgcc.a(muldi3.o)
 .debug_abbrev  0x00000000000010f3       0x28 ../../../ch32fun/ch32fun//../misc\libgcc.a(div.o)
 .debug_abbrev  0x000000000000111b       0xca ../../../ch32fun/ch32fun//../misc\libgcc.a(_clzsi2.o)
 .debug_abbrev  0x00000000000011e5       0x70 ../../../ch32fun/ch32fun//../misc\libgcc.a(_clz.o)

.debug_loc      0x0000000000000000     0x3c9b
 .debug_loc     0x0000000000000000     0x3c9b C:\Users\uni\AppData\Local\Temp\example.elf.S9jvqh.ltrans0.ltrans.o

.debug_aranges  0x0000000000000000      0x2c0
 .debug_aranges
                0x0000000000000000      0x1a8 C:\Users\uni\AppData\Local\Temp\example.elf.S9jvqh.ltrans0.ltrans.o
 .debug_aranges
                0x00000000000001a8       0x20 ../../../ch32fun/ch32fun//../misc\libgcc.a(divdf3.o)
 .debug_aranges
                0x00000000000001c8       0x20 ../../../ch32fun/ch32fun//../misc\libgcc.a(muldf3.o)
 .debug_aranges
                0x00000000000001e8       0x20 ../../../ch32fun/ch32fun//../misc\libgcc.a(fixunsdfsi.o)
 .debug_aranges
                0x0000000000000208       0x20 ../../../ch32fun/ch32fun//../misc\libgcc.a(floatsidf.o)
 .debug_aranges
                0x0000000000000228       0x20 ../../../ch32fun/ch32fun//../misc\libgcc.a(floatunsidf.o)
 .debug_aranges
                0x0000000000000248       0x20 ../../../ch32fun/ch32fun//../misc\libgcc.a(muldi3.o)
 .debug_aranges
                0x0000000000000268       0x20 ../../../ch32fun/ch32fun//../misc\libgcc.a(div.o)
 .debug_aranges
                0x0000000000000288       0x20 ../../../ch32fun/ch32fun//../misc\libgcc.a(_clzsi2.o)
 .debug_aranges
                0x00000000000002a8       0x18 ../../../ch32fun/ch32fun//../misc\libgcc.a(_clz.o)

.debug_ranges   0x0000000000000000      0xc08
 .debug_ranges  0x0000000000000000      0xc08 C:\Users\uni\AppData\Local\Temp\example.elf.S9jvqh.ltrans0.ltrans.o

.debug_line     0x0000000000000000     0x8d14
 .debug_line    0x0000000000000000     0x5e42 C:\Users\uni\AppData\Local\Temp\example.elf.S9jvqh.ltrans0.ltrans.o
 .debug_line    0x0000000000005e42      0x19a C:\Users\uni\AppData\Local\Temp\ccJe0eMs.debug.temp.o
 .debug_line    0x0000000000005fdc      0x1a5 C:\Users\uni\AppData\Local\Temp\ccYmq2Dw.debug.temp.o
 .debug_line    0x0000000000006181      0x133 C:\Users\uni\AppData\Local\Temp\ccZ71DKz.debug.temp.o
 .debug_line    0x00000000000062b4     0x110f ../../../ch32fun/ch32fun//../misc\libgcc.a(divdf3.o)
 .debug_line    0x00000000000073c3     0x109f ../../../ch32fun/ch32fun//../misc\libgcc.a(muldf3.o)
 .debug_line    0x0000000000008462      0x177 ../../../ch32fun/ch32fun//../misc\libgcc.a(fixunsdfsi.o)
 .debug_line    0x00000000000085d9      0x223 ../../../ch32fun/ch32fun//../misc\libgcc.a(floatsidf.o)
 .debug_line    0x00000000000087fc      0x241 ../../../ch32fun/ch32fun//../misc\libgcc.a(floatunsidf.o)
 .debug_line    0x0000000000008a3d       0x7a ../../../ch32fun/ch32fun//../misc\libgcc.a(muldi3.o)
 .debug_line    0x0000000000008ab7      0x153 ../../../ch32fun/ch32fun//../misc\libgcc.a(div.o)
 .debug_line    0x0000000000008c0a       0xcb ../../../ch32fun/ch32fun//../misc\libgcc.a(_clzsi2.o)
 .debug_line    0x0000000000008cd5       0x3f ../../../ch32fun/ch32fun//../misc\libgcc.a(_clz.o)

.debug_str      0x0000000000000000     0x1e29
 .debug_str     0x0000000000000000      0x1ef C:\Users\uni\AppData\Local\Temp\example.elf.S9jvqh.ltrans0.ltrans.o
                                        0x222 (size before relaxing)
 .debug_str     0x00000000000001ef      0x5c6 C:\Users\uni\AppData\Local\Temp\ccJe0eMs.debug.temp.o
                                        0x72a (size before relaxing)
 .debug_str     0x00000000000007b5      0xe86 C:\Users\uni\AppData\Local\Temp\ccYmq2Dw.debug.temp.o
                                       0x11a8 (size before relaxing)
 .debug_str     0x000000000000163b      0x1d8 C:\Users\uni\AppData\Local\Temp\ccZ71DKz.debug.temp.o
                                        0x523 (size before relaxing)
 .debug_str     0x0000000000001813      0x2ec ../../../ch32fun/ch32fun//../misc\libgcc.a(divdf3.o)
                                        0x393 (size before relaxing)
 .debug_str     0x0000000000001aff      0x125 ../../../ch32fun/ch32fun//../misc\libgcc.a(muldf3.o)
                                        0x3ce (size before relaxing)
 .debug_str     0x0000000000001c24       0x1b ../../../ch32fun/ch32fun//../misc\libgcc.a(fixunsdfsi.o)
                                        0x1b1 (size before relaxing)
 .debug_str     0x0000000000001c3f       0xb1 ../../../ch32fun/ch32fun//../misc\libgcc.a(floatsidf.o)
                                        0x252 (size before relaxing)
 .debug_str     0x0000000000001cf0      0x24d ../../../ch32fun/ch32fun//../misc\libgcc.a(floatunsidf.o)
 .debug_str     0x0000000000001cf0       0xa3 ../../../ch32fun/ch32fun//../misc\libgcc.a(muldi3.o)
                                         0xac (size before relaxing)
 .debug_str     0x0000000000001d93       0x4e ../../../ch32fun/ch32fun//../misc\libgcc.a(div.o)
                                         0xd9 (size before relaxing)
 .debug_str     0x0000000000001de1       0x48 ../../../ch32fun/ch32fun//../misc\libgcc.a(_clzsi2.o)
                                        0x1b8 (size before relaxing)
 .debug_str     0x0000000000001e29      0x19b ../../../ch32fun/ch32fun//../misc\libgcc.a(_clz.o)

.debug_frame    0x0000000000000000      0x684
 .debug_frame   0x0000000000000000      0x560 C:\Users\uni\AppData\Local\Temp\example.elf.S9jvqh.ltrans0.ltrans.o
 .debug_frame   0x0000000000000560       0x3c ../../../ch32fun/ch32fun//../misc\libgcc.a(divdf3.o)
 .debug_frame   0x000000000000059c       0x3c ../../../ch32fun/ch32fun//../misc\libgcc.a(muldf3.o)
 .debug_frame   0x00000000000005d8       0x20 ../../../ch32fun/ch32fun//../misc\libgcc.a(fixunsdfsi.o)
 .debug_frame   0x00000000000005f8       0x38 ../../../ch32fun/ch32fun//../misc\libgcc.a(floatsidf.o)
 .debug_frame   0x0000000000000630       0x34 ../../../ch32fun/ch32fun//../misc\libgcc.a(floatunsidf.o)
 .debug_frame   0x0000000000000664       0x20 ../../../ch32fun/ch32fun//../misc\libgcc.a(_clzsi2.o)

.debug_loclists
                0x0000000000000000     0x21e4
 .debug_loclists
                0x0000000000000000     0x1001 ../../../ch32fun/ch32fun//../misc\libgcc.a(divdf3.o)
 .debug_loclists
                0x0000000000001001      0xe54 ../../../ch32fun/ch32fun//../misc\libgcc.a(muldf3.o)
 .debug_loclists
                0x0000000000001e55       0xdc ../../../ch32fun/ch32fun//../misc\libgcc.a(fixunsdfsi.o)
 .debug_loclists
                0x0000000000001f31      0x11a ../../../ch32fun/ch32fun//../misc\libgcc.a(floatsidf.o)
 .debug_loclists
                0x000000000000204b      0x137 ../../../ch32fun/ch32fun//../misc\libgcc.a(floatunsidf.o)
 .debug_loclists
                0x0000000000002182       0x62 ../../../ch32fun/ch32fun//../misc\libgcc.a(_clzsi2.o)

.debug_rnglists
                0x0000000000000000      0x49f
 .debug_rnglists
                0x0000000000000000      0x177 ../../../ch32fun/ch32fun//../misc\libgcc.a(divdf3.o)
 .debug_rnglists
                0x0000000000000177      0x20d ../../../ch32fun/ch32fun//../misc\libgcc.a(muldf3.o)
 .debug_rnglists
                0x0000000000000384       0x28 ../../../ch32fun/ch32fun//../misc\libgcc.a(fixunsdfsi.o)
 .debug_rnglists
                0x00000000000003ac       0x61 ../../../ch32fun/ch32fun//../misc\libgcc.a(floatsidf.o)
 .debug_rnglists
                0x000000000000040d       0x6a ../../../ch32fun/ch32fun//../misc\libgcc.a(floatunsidf.o)
 .debug_rnglists
                0x0000000000000477       0x28 ../../../ch32fun/ch32fun//../misc\libgcc.a(_clzsi2.o)

.debug_line_str
                0x0000000000000000      0x1db
 .debug_line_str
                0x0000000000000000       0xc1 ../../../ch32fun/ch32fun//../misc\libgcc.a(divdf3.o)
                                        0x13c (size before relaxing)
 .debug_line_str
                0x00000000000000c1       0x27 ../../../ch32fun/ch32fun//../misc\libgcc.a(muldf3.o)
                                        0x13c (size before relaxing)
 .debug_line_str
                0x00000000000000e8       0x2b ../../../ch32fun/ch32fun//../misc\libgcc.a(fixunsdfsi.o)
                                        0x148 (size before relaxing)
 .debug_line_str
                0x0000000000000113       0x2a ../../../ch32fun/ch32fun//../misc\libgcc.a(floatsidf.o)
                                        0x145 (size before relaxing)
 .debug_line_str
                0x000000000000013d       0x2c ../../../ch32fun/ch32fun//../misc\libgcc.a(floatunsidf.o)
                                        0x14b (size before relaxing)
 .debug_line_str
                0x0000000000000169       0x2c ../../../ch32fun/ch32fun//../misc\libgcc.a(muldi3.o)
                                         0x95 (size before relaxing)
 .debug_line_str
                0x0000000000000195        0x6 ../../../ch32fun/ch32fun//../misc\libgcc.a(div.o)
                                         0x92 (size before relaxing)
 .debug_line_str
                0x000000000000019b       0x40 ../../../ch32fun/ch32fun//../misc\libgcc.a(_clzsi2.o)
                                        0x126 (size before relaxing)
 .debug_line_str
                0x00000000000001db      0x126 ../../../ch32fun/ch32fun//../misc\libgcc.a(_clz.o)
