
Discarded input sections

 .text          0x0000000000000000        0x0 C:\Users\uni\AppData\Local\Temp\iSLER-mess.elf.W1P6jH.ltrans0.ltrans.o
 .data          0x0000000000000000        0x0 C:\Users\uni\AppData\Local\Temp\iSLER-mess.elf.W1P6jH.ltrans0.ltrans.o
 .bss           0x0000000000000000        0x0 C:\Users\uni\AppData\Local\Temp\iSLER-mess.elf.W1P6jH.ltrans0.ltrans.o
 .text._puts    0x0000000000000000       0x42 C:\Users\uni\AppData\Local\Temp\iSLER-mess.elf.W1P6jH.ltrans0.ltrans.o
 .srodata       0x0000000000000000       0x14 C:\Users\uni\AppData\Local\Temp\iSLER-mess.elf.W1P6jH.ltrans0.ltrans.o
 .text.vprintf  0x0000000000000000       0x16 C:\Users\uni\AppData\Local\Temp\iSLER-mess.elf.W1P6jH.ltrans0.ltrans.o
 .text.mini_vsnprintf
                0x0000000000000000       0x3a C:\Users\uni\AppData\Local\Temp\iSLER-mess.elf.W1P6jH.ltrans0.ltrans.o
 .text.snprintf
                0x0000000000000000       0x20 C:\Users\uni\AppData\Local\Temp\iSLER-mess.elf.W1P6jH.ltrans0.ltrans.o
 .text.sprintf  0x0000000000000000       0x2c C:\Users\uni\AppData\Local\Temp\iSLER-mess.elf.W1P6jH.ltrans0.ltrans.o
 .text.strcpy   0x0000000000000000       0x14 C:\Users\uni\AppData\Local\Temp\iSLER-mess.elf.W1P6jH.ltrans0.ltrans.o
 .text.strncpy  0x0000000000000000       0x1c C:\Users\uni\AppData\Local\Temp\iSLER-mess.elf.W1P6jH.ltrans0.ltrans.o
 .text.strcmp   0x0000000000000000       0x1a C:\Users\uni\AppData\Local\Temp\iSLER-mess.elf.W1P6jH.ltrans0.ltrans.o
 .text.strncmp  0x0000000000000000       0x2e C:\Users\uni\AppData\Local\Temp\iSLER-mess.elf.W1P6jH.ltrans0.ltrans.o
 .text.strchr   0x0000000000000000       0x16 C:\Users\uni\AppData\Local\Temp\iSLER-mess.elf.W1P6jH.ltrans0.ltrans.o
 .text.strrchr  0x0000000000000000       0x3c C:\Users\uni\AppData\Local\Temp\iSLER-mess.elf.W1P6jH.ltrans0.ltrans.o
 .text.memmove  0x0000000000000000       0x5e C:\Users\uni\AppData\Local\Temp\iSLER-mess.elf.W1P6jH.ltrans0.ltrans.o
 .text.memchr   0x0000000000000000       0x1c C:\Users\uni\AppData\Local\Temp\iSLER-mess.elf.W1P6jH.ltrans0.ltrans.o
 .text.strnlen  0x0000000000000000       0x2a C:\Users\uni\AppData\Local\Temp\iSLER-mess.elf.W1P6jH.ltrans0.ltrans.o
 .text.twoway_strstr
                0x0000000000000000      0x254 C:\Users\uni\AppData\Local\Temp\iSLER-mess.elf.W1P6jH.ltrans0.ltrans.o
 .text.strstr   0x0000000000000000      0x13a C:\Users\uni\AppData\Local\Temp\iSLER-mess.elf.W1P6jH.ltrans0.ltrans.o
 .text.EHSVtoHEX
                0x0000000000000000      0x15e C:\Users\uni\AppData\Local\Temp\iSLER-mess.elf.W1P6jH.ltrans0.ltrans.o
 .text.TweenHexColors
                0x0000000000000000       0xdc C:\Users\uni\AppData\Local\Temp\iSLER-mess.elf.W1P6jH.ltrans0.ltrans.o
 .comment       0x0000000000000000       0x13 C:\Users\uni\AppData\Local\Temp\iSLER-mess.elf.W1P6jH.ltrans0.ltrans.o
 .comment       0x0000000000000000       0x13 C:\Users\uni\AppData\Local\Temp\cc05JmBQ.debug.temp.o
 .comment       0x0000000000000000       0x13 C:\Users\uni\AppData\Local\Temp\ccawdVqs.debug.temp.o

Memory Configuration

Name             Origin             Length             Attributes
FLASH            0x0000000000000000 0x0000000000070000 xr
RAM              0x0000000020000000 0x0000000000008000 xrw
*default*        0x0000000000000000 0xffffffffffffffff

Linker script and memory map

LOAD C:\Users\uni\AppData\Local\Temp\ccGQqzOA.o
LOAD C:\Users\uni\AppData\Local\Temp\iSLER-mess.elf.W1P6jH.ltrans0.ltrans.o
LOAD C:\Users\uni\AppData\Local\Temp\cc05JmBQ.debug.temp.o
LOAD C:\Users\uni\AppData\Local\Temp\ccawdVqs.debug.temp.o
LOAD C:\Users\uni\AppData\Local\Temp\ccixT1E0.o
LOAD c:/sysgcc/risc-v/bin/../lib/gcc/riscv64-unknown-elf/10.1.0/rv32imac/ilp32\libgcc.a

.init           0x0000000000000000       0x90
                0x0000000000000000                _sinit = .
                0x0000000000000000                . = ALIGN (0x4)
 *(SORT_NONE(.init))
 .init          0x0000000000000000       0x90 C:\Users\uni\AppData\Local\Temp\iSLER-mess.elf.W1P6jH.ltrans0.ltrans.o
                0x0000000000000000                InterruptVector
                0x0000000000000090                . = ALIGN (0x4)
                0x0000000000000090                _einit = .

.text           0x0000000000000090     0x15c4
                0x0000000000000090                . = ALIGN (0x4)
 *(.text)
 *(.text.*)
 .text.mini_pad
                0x0000000000000090       0x9a C:\Users\uni\AppData\Local\Temp\iSLER-mess.elf.W1P6jH.ltrans0.ltrans.o
 .text.mini_itoa.part.0
                0x000000000000012a       0x8e C:\Users\uni\AppData\Local\Temp\iSLER-mess.elf.W1P6jH.ltrans0.ltrans.o
 .text.DevSetMode
                0x00000000000001b8       0x4e C:\Users\uni\AppData\Local\Temp\iSLER-mess.elf.W1P6jH.ltrans0.ltrans.o
 .text.RFEND_TXCTune
                0x0000000000000206       0x8a C:\Users\uni\AppData\Local\Temp\iSLER-mess.elf.W1P6jH.ltrans0.ltrans.o
 .text.WS2812FillBuffSec.constprop.0
                0x0000000000000290      0x172 C:\Users\uni\AppData\Local\Temp\iSLER-mess.elf.W1P6jH.ltrans0.ltrans.o
 .text.DelaySysTick.constprop.0
                0x0000000000000402       0x38 C:\Users\uni\AppData\Local\Temp\iSLER-mess.elf.W1P6jH.ltrans0.ltrans.o
 .text.blink    0x000000000000043a       0x44 C:\Users\uni\AppData\Local\Temp\iSLER-mess.elf.W1P6jH.ltrans0.ltrans.o
 .text.internal_handle_input.constprop.0
                0x000000000000047e        0xa C:\Users\uni\AppData\Local\Temp\iSLER-mess.elf.W1P6jH.ltrans0.ltrans.o
 .text._write.constprop.0
                0x0000000000000488       0xf4 C:\Users\uni\AppData\Local\Temp\iSLER-mess.elf.W1P6jH.ltrans0.ltrans.o
 .text.__puts_uart
                0x000000000000057c       0x14 C:\Users\uni\AppData\Local\Temp\iSLER-mess.elf.W1P6jH.ltrans0.ltrans.o
 .text.handle_reset
                0x0000000000000590       0x84 C:\Users\uni\AppData\Local\Temp\iSLER-mess.elf.W1P6jH.ltrans0.ltrans.o
                0x0000000000000590                handle_reset
 .text.vector_handler
                0x0000000000000614        0x2 C:\Users\uni\AppData\Local\Temp\iSLER-mess.elf.W1P6jH.ltrans0.ltrans.o
                0x0000000000000614                EXTI2_IRQHandler
                0x0000000000000614                TIM8_TRG_COM_IRQHandler
                0x0000000000000614                TIM8_CC_IRQHandler
                0x0000000000000614                UART8_IRQHandler
                0x0000000000000614                NFC_IRQHandler
                0x0000000000000614                TIM1_CC_IRQHandler
                0x0000000000000614                HardFault_Handler
                0x0000000000000614                GPIOB_IRQHandler
                0x0000000000000614                USBPD_IRQHandler
                0x0000000000000614                TIM6_IRQHandler
                0x0000000000000614                GPIOA_IRQHandler
                0x0000000000000614                PVD_IRQHandler
                0x0000000000000614                SDIO_IRQHandler
                0x0000000000000614                TIM9_BRK_IRQHandler
                0x0000000000000614                DMA2_Channel8_IRQHandler
                0x0000000000000614                NMI_Handler
                0x0000000000000614                CAN2_RX1_IRQHandler
                0x0000000000000614                EXTI3_IRQHandler
                0x0000000000000614                UART1_IRQHandler
                0x0000000000000614                USBHS_IRQHandler
                0x0000000000000614                DMA2_Channel9_IRQHandler
                0x0000000000000614                TIM10_CC_IRQHandler
                0x0000000000000614                EXTI25_16_IRQHandler
                0x0000000000000614                USBFS_IRQHandler
                0x0000000000000614                UART0_IRQHandler
                0x0000000000000614                EXTI0_IRQHandler
                0x0000000000000614                I2C2_EV_IRQHandler
                0x0000000000000614                TIM10_TRG_COM_IRQHandler
                0x0000000000000614                CAN2_SCE_IRQHandler
                0x0000000000000614                ADC1_2_IRQHandler
                0x0000000000000614                BB_IRQHandler
                0x0000000000000614                Break_Point_Handler
                0x0000000000000614                TIM2_CC_IRQHandler
                0x0000000000000614                SPI1_IRQHandler
                0x0000000000000614                TAMPER_IRQHandler
                0x0000000000000614                TMR0_IRQHandler
                0x0000000000000614                AWU_IRQHandler
                0x0000000000000614                EXTI7_0_IRQHandler
                0x0000000000000614                CAN2_RX0_IRQHandler
                0x0000000000000614                OSCWakeUp_IRQHandler
                0x0000000000000614                TIM8_UP_IRQHandler
                0x0000000000000614                Ecall_M_Mode_Handler
                0x0000000000000614                DMA2_Channel2_IRQHandler
                0x0000000000000614                DMA1_Channel4_IRQHandler
                0x0000000000000614                ADC1_IRQHandler
                0x0000000000000614                TIM2_BRK_IRQHandler
                0x0000000000000614                TIM9_UP_IRQHandler
                0x0000000000000614                USART3_IRQHandler
                0x0000000000000614                RTC_IRQHandler
                0x0000000000000614                DMA1_Channel7_IRQHandler
                0x0000000000000614                LED_IRQHandler
                0x0000000000000614                CAN1_RX1_IRQHandler
                0x0000000000000614                DVP_IRQHandler
                0x0000000000000614                UART5_IRQHandler
                0x0000000000000614                EXTI15_8_IRQHandler
                0x0000000000000614                TIM4_IRQHandler
                0x0000000000000614                DMA2_Channel1_IRQHandler
                0x0000000000000614                USBPD_WKUP_IRQHandler
                0x0000000000000614                I2C1_EV_IRQHandler
                0x0000000000000614                UART2_IRQHandler
                0x0000000000000614                USART4_IRQHandler
                0x0000000000000614                PWMX_IRQHandler
                0x0000000000000614                DMA1_Channel6_IRQHandler
                0x0000000000000614                UART4_IRQHandler
                0x0000000000000614                DMA2_Channel4_IRQHandler
                0x0000000000000614                TIM3_IRQHandler
                0x0000000000000614                RCC_IRQHandler
                0x0000000000000614                TIM1_TRG_COM_IRQHandler
                0x0000000000000614                DMA1_Channel1_IRQHandler
                0x0000000000000614                DMA2_Channel7_IRQHandler
                0x0000000000000614                EXTI15_10_IRQHandler
                0x0000000000000614                ADC_IRQHandler
                0x0000000000000614                DMA1_Channel8_IRQHandler
                0x0000000000000614                TMR2_IRQHandler
                0x0000000000000614                DefaultIRQHandler
                0x0000000000000614                TIM7_IRQHandler
                0x0000000000000614                CAN2_TX_IRQHandler
                0x0000000000000614                TIM5_IRQHandler
                0x0000000000000614                USB_IRQHandler
                0x0000000000000614                EXTI9_5_IRQHandler
                0x0000000000000614                PIOC_IRQHandler
                0x0000000000000614                SPI2_IRQHandler
                0x0000000000000614                OSC32KCal_IRQHandler
                0x0000000000000614                I2C_IRQHandler
                0x0000000000000614                TIM10_BRK_IRQHandler
                0x0000000000000614                TIM9_CC_IRQHandler
                0x0000000000000614                DMA2_Channel5_IRQHandler
                0x0000000000000614                USB2_IRQHandler
                0x0000000000000614                USBHSWakeUp_IRQHandler
                0x0000000000000614                DMA1_Channel5_IRQHandler
                0x0000000000000614                EXTI4_IRQHandler
                0x0000000000000614                USB_LP_CAN1_RX0_IRQHandler
                0x0000000000000614                RNG_IRQHandler
                0x0000000000000614                USB_HP_CAN1_TX_IRQHandler
                0x0000000000000614                DMA1_Channel3_IRQHandler
                0x0000000000000614                FSMC_IRQHandler
                0x0000000000000614                ETH_IRQHandler
                0x0000000000000614                TIM1_UP_IRQHandler
                0x0000000000000614                WWDG_IRQHandler
                0x0000000000000614                DMA2_Channel11_IRQHandler
                0x0000000000000614                WDOG_BAT_IRQHandler
                0x0000000000000614                Ecall_U_Mode_Handler
                0x0000000000000614                TMR3_IRQHandler
                0x0000000000000614                DMA2_Channel6_IRQHandler
                0x0000000000000614                TIM2_IRQHandler
                0x0000000000000614                SW_Handler
                0x0000000000000614                TIM1_BRK_IRQHandler
                0x0000000000000614                OPA_IRQHandler
                0x0000000000000614                DMA2_Channel10_IRQHandler
                0x0000000000000614                EXTI1_IRQHandler
                0x0000000000000614                USB2_HOST_IRQHandler
                0x0000000000000614                RTCAlarm_IRQHandler
                0x0000000000000614                TIM10_UP_IRQHandler
                0x0000000000000614                TIM9_TRG_COM_IRQHandler
                0x0000000000000614                UART7_IRQHandler
                0x0000000000000614                USART2_IRQHandler
                0x0000000000000614                UART6_IRQHandler
                0x0000000000000614                ETHWakeUp_IRQHandler
                0x0000000000000614                I2C2_ER_IRQHandler
                0x0000000000000614                DMA1_Channel2_IRQHandler
                0x0000000000000614                TIM8_BRK_IRQHandler
                0x0000000000000614                TIM2_TRG_IRQHandler
                0x0000000000000614                CAN1_SCE_IRQHandler
                0x0000000000000614                FLASH_IRQHandler
                0x0000000000000614                USBFSWakeUp_IRQHandler
                0x0000000000000614                USART1_IRQHandler
                0x0000000000000614                OTG_FS_IRQHandler
                0x0000000000000614                SPI3_IRQHandler
                0x0000000000000614                USBFS_WakeUp_IRQHandler
                0x0000000000000614                UART3_IRQHandler
                0x0000000000000614                I2C1_ER_IRQHandler
                0x0000000000000614                USB2_DEVICE_IRQHandler
                0x0000000000000614                TMR1_IRQHandler
                0x0000000000000614                USBWakeUp_IRQHandler
                0x0000000000000614                DMA2_Channel3_IRQHandler
 .text.strlen   0x0000000000000616       0x12 C:\Users\uni\AppData\Local\Temp\iSLER-mess.elf.W1P6jH.ltrans0.ltrans.o
                0x0000000000000616                strlen
 .text.mini_vpprintf
                0x0000000000000628      0x1be C:\Users\uni\AppData\Local\Temp\iSLER-mess.elf.W1P6jH.ltrans0.ltrans.o
 .text.printf   0x00000000000007e6       0x26 C:\Users\uni\AppData\Local\Temp\iSLER-mess.elf.W1P6jH.ltrans0.ltrans.o
                0x00000000000007e6                printf
 .text.memset   0x000000000000080c       0x12 C:\Users\uni\AppData\Local\Temp\iSLER-mess.elf.W1P6jH.ltrans0.ltrans.o
                0x000000000000080c                memset
 .text.memcpy   0x000000000000081e       0x1c C:\Users\uni\AppData\Local\Temp\iSLER-mess.elf.W1P6jH.ltrans0.ltrans.o
                0x000000000000081e                memcpy
 .text.memcmp   0x000000000000083a       0x26 C:\Users\uni\AppData\Local\Temp\iSLER-mess.elf.W1P6jH.ltrans0.ltrans.o
                0x000000000000083a                memcmp
 .text.puts     0x0000000000000860       0x2c C:\Users\uni\AppData\Local\Temp\iSLER-mess.elf.W1P6jH.ltrans0.ltrans.o
                0x0000000000000860                puts
 .text.putchar  0x000000000000088c       0x6c C:\Users\uni\AppData\Local\Temp\iSLER-mess.elf.W1P6jH.ltrans0.ltrans.o
                0x000000000000088c                putchar
 .text.SystemInit
                0x00000000000008f8       0x94 C:\Users\uni\AppData\Local\Temp\iSLER-mess.elf.W1P6jH.ltrans0.ltrans.o
                0x00000000000008f8                SystemInit
 .text.startup.main
                0x000000000000098c      0xa9c C:\Users\uni\AppData\Local\Temp\iSLER-mess.elf.W1P6jH.ltrans0.ltrans.o
                0x000000000000098c                main
 .text.SysTick_Handler
                0x0000000000001428       0x56 C:\Users\uni\AppData\Local\Temp\iSLER-mess.elf.W1P6jH.ltrans0.ltrans.o
 .text.SPI0_IRQHandler
                0x000000000000147e       0x66 C:\Users\uni\AppData\Local\Temp\iSLER-mess.elf.W1P6jH.ltrans0.ltrans.o
 .text.LLE_IRQHandler
                0x00000000000014e4       0xaa C:\Users\uni\AppData\Local\Temp\iSLER-mess.elf.W1P6jH.ltrans0.ltrans.o
 *(.rodata)
 *fill*         0x000000000000158e        0x2 
 .rodata        0x0000000000001590       0x14 C:\Users\uni\AppData\Local\Temp\iSLER-mess.elf.W1P6jH.ltrans0.ltrans.o
 *(.rodata*)
 .rodata.puts.str1.4
                0x00000000000015a4        0x2 C:\Users\uni\AppData\Local\Temp\iSLER-mess.elf.W1P6jH.ltrans0.ltrans.o
 *fill*         0x00000000000015a6        0x2 
 .rodata.main.str1.4
                0x00000000000015a8       0x63 C:\Users\uni\AppData\Local\Temp\iSLER-mess.elf.W1P6jH.ltrans0.ltrans.o
 *fill*         0x000000000000160b        0x1 
 .rodata.bitquartets.0
                0x000000000000160c       0x20 C:\Users\uni\AppData\Local\Temp\iSLER-mess.elf.W1P6jH.ltrans0.ltrans.o
 .rodata.channel_map
                0x000000000000162c       0x28 C:\Users\uni\AppData\Local\Temp\iSLER-mess.elf.W1P6jH.ltrans0.ltrans.o
 *(.gnu.linkonce.t.*)
                0x0000000000001654                . = ALIGN (0x4)

.rela.dyn       0x0000000000001654        0x0
 .rela.text.mini_pad
                0x0000000000001654        0x0 C:\Users\uni\AppData\Local\Temp\iSLER-mess.elf.W1P6jH.ltrans0.ltrans.o
 .rela.text.WS2812FillBuffSec.constprop.0
                0x0000000000001654        0x0 C:\Users\uni\AppData\Local\Temp\iSLER-mess.elf.W1P6jH.ltrans0.ltrans.o
 .rela.text._write.constprop.0
                0x0000000000001654        0x0 C:\Users\uni\AppData\Local\Temp\iSLER-mess.elf.W1P6jH.ltrans0.ltrans.o
 .rela.text.handle_reset
                0x0000000000001654        0x0 C:\Users\uni\AppData\Local\Temp\iSLER-mess.elf.W1P6jH.ltrans0.ltrans.o
 .rela.text.mini_vpprintf
                0x0000000000001654        0x0 C:\Users\uni\AppData\Local\Temp\iSLER-mess.elf.W1P6jH.ltrans0.ltrans.o
 .rela.text.puts
                0x0000000000001654        0x0 C:\Users\uni\AppData\Local\Temp\iSLER-mess.elf.W1P6jH.ltrans0.ltrans.o
 .rela.text.startup.main
                0x0000000000001654        0x0 C:\Users\uni\AppData\Local\Temp\iSLER-mess.elf.W1P6jH.ltrans0.ltrans.o

.fini           0x0000000000001654        0x0
 *(SORT_NONE(.fini))
                0x0000000000001654                . = ALIGN (0x4)
                [!provide]                        PROVIDE (_etext = .)
                [!provide]                        PROVIDE (_eitcm = .)

.preinit_array  0x0000000000001654        0x0
                [!provide]                        PROVIDE (__preinit_array_start = .)
 *(.preinit_array)
                [!provide]                        PROVIDE (__preinit_array_end = .)

.init_array     0x0000000000001654        0x0
                [!provide]                        PROVIDE (__init_array_start = .)
 *(SORT_BY_INIT_PRIORITY(.init_array.*) SORT_BY_INIT_PRIORITY(.ctors.*))
 *(.init_array EXCLUDE_FILE(*crtend?.o *crtend.o *crtbegin?.o *crtbegin.o) .ctors)
                [!provide]                        PROVIDE (__init_array_end = .)

.fini_array     0x0000000000001654        0x0
                [!provide]                        PROVIDE (__fini_array_start = .)
 *(SORT_BY_INIT_PRIORITY(.fini_array.*) SORT_BY_INIT_PRIORITY(.dtors.*))
 *(.fini_array EXCLUDE_FILE(*crtend?.o *crtend.o *crtbegin?.o *crtbegin.o) .dtors)
                [!provide]                        PROVIDE (__fini_array_end = .)

.ctors
 *crtbegin.o(.ctors)
 *crtbegin?.o(.ctors)
 *(EXCLUDE_FILE(*crtend?.o *crtend.o) .ctors)
 *(SORT_BY_NAME(.ctors.*))
 *(.ctors)

.dtors
 *crtbegin.o(.dtors)
 *crtbegin?.o(.dtors)
 *(EXCLUDE_FILE(*crtend?.o *crtend.o) .dtors)
 *(SORT_BY_NAME(.dtors.*))
 *(.dtors)

.dalign         0x0000000020000000        0x0 load address 0x0000000000001654
                0x0000000020000000                . = ALIGN (0x4)
                0x0000000020000000                PROVIDE (_data_vma = .)

.dlalign        0x0000000000001654        0x0
                0x0000000000001654                . = ALIGN (0x4)
                0x0000000000001654                PROVIDE (_data_lma = .)

.data           0x0000000020000000       0x84 load address 0x0000000000001654
                0x0000000020000000                . = ALIGN (0x4)
                0x00000000200003fc                __global_pointer$ = (. + 0x3fc)
 *(.gnu.linkonce.r.*)
 *(.data .data.*)
 .data.color_arr
                0x0000000020000000        0xc C:\Users\uni\AppData\Local\Temp\iSLER-mess.elf.W1P6jH.ltrans0.ltrans.o
 .data.dataFrame
                0x000000002000000c       0x4e C:\Users\uni\AppData\Local\Temp\iSLER-mess.elf.W1P6jH.ltrans0.ltrans.o
 *fill*         0x000000002000005a        0x2 
 .data.move_leds
                0x000000002000005c       0x14 C:\Users\uni\AppData\Local\Temp\iSLER-mess.elf.W1P6jH.ltrans0.ltrans.o
 *(.gnu.linkonce.d.*)
                0x0000000020000070                . = ALIGN (0x8)
 *(.sdata .sdata.*)
 .sdata.color_ani
                0x0000000020000070        0x8 C:\Users\uni\AppData\Local\Temp\iSLER-mess.elf.W1P6jH.ltrans0.ltrans.o
 .sdata.remote_cmd1
                0x0000000020000078        0x5 C:\Users\uni\AppData\Local\Temp\iSLER-mess.elf.W1P6jH.ltrans0.ltrans.o
 *(.sdata2*)
 *(.gnu.linkonce.s.*)
                0x0000000020000080                . = ALIGN (0x8)
 *fill*         0x000000002000007d        0x3 
 *(.srodata.cst16)
 *(.srodata.cst8)
 *(.srodata.cst4)
 *(.srodata.cst2)
 *(.srodata .srodata.*)
 .srodata.adv_channels
                0x0000000020000080        0x3 C:\Users\uni\AppData\Local\Temp\iSLER-mess.elf.W1P6jH.ltrans0.ltrans.o
                0x0000000020000084                . = ALIGN (0x4)
 *fill*         0x0000000020000083        0x1 
                0x0000000020000084                PROVIDE (_edata = .)

.bss            0x0000000020000084      0x4d4 load address 0x00000000000016d8
                0x0000000020000084                . = ALIGN (0x4)
                0x0000000020000084                PROVIDE (_sbss = .)
 *(.sbss*)
 .sbss.WS2812BLEDInUse
                0x0000000020000084        0x4 C:\Users\uni\AppData\Local\Temp\iSLER-mess.elf.W1P6jH.ltrans0.ltrans.o
 .sbss.WS2812LEDPlace
                0x0000000020000088        0x4 C:\Users\uni\AppData\Local\Temp\iSLER-mess.elf.W1P6jH.ltrans0.ltrans.o
 .sbss.WS2812LEDs
                0x000000002000008c        0x4 C:\Users\uni\AppData\Local\Temp\iSLER-mess.elf.W1P6jH.ltrans0.ltrans.o
 .sbss.rx_ready
                0x0000000020000090        0x4 C:\Users\uni\AppData\Local\Temp\iSLER-mess.elf.W1P6jH.ltrans0.ltrans.o
 .sbss.systick_millis
                0x0000000020000094        0x4 C:\Users\uni\AppData\Local\Temp\iSLER-mess.elf.W1P6jH.ltrans0.ltrans.o
 .sbss.tuneFilter
                0x0000000020000098        0x4 C:\Users\uni\AppData\Local\Temp\iSLER-mess.elf.W1P6jH.ltrans0.ltrans.o
 .sbss.tuneFilter2M
                0x000000002000009c        0x4 C:\Users\uni\AppData\Local\Temp\iSLER-mess.elf.W1P6jH.ltrans0.ltrans.o
 *(.gnu.linkonce.sb.*)
 *(.bss*)
 .bss.LLE_BUF   0x00000000200000a0      0x440 C:\Users\uni\AppData\Local\Temp\iSLER-mess.elf.W1P6jH.ltrans0.ltrans.o
 .bss.WS2812dmabuff
                0x00000000200004e0       0x60 C:\Users\uni\AppData\Local\Temp\iSLER-mess.elf.W1P6jH.ltrans0.ltrans.o
 .bss.led_arr   0x0000000020000540       0x18 C:\Users\uni\AppData\Local\Temp\iSLER-mess.elf.W1P6jH.ltrans0.ltrans.o
 *(.gnu.linkonce.b.*)
 *(COMMON*)
                0x0000000020000558                . = ALIGN (0x4)
                0x0000000020000558                PROVIDE (_ebss = .)
                [!provide]                        PROVIDE (_end = _ebss)
                [!provide]                        PROVIDE (end = .)
                0x0000000020008000                PROVIDE (_eusrstack = (ORIGIN (RAM) + LENGTH (RAM)))

/DISCARD/
 *(.note .note.*)
 *(.eh_frame .eh_frame.*)
 *(.comment .comment.*)
 *(.ARM.extab* .gnu.linkonce.armextab.*)
 *(.ARM.exidx*)
OUTPUT(iSLER-mess.elf elf32-littleriscv)

.riscv.attributes
                0x0000000000000000       0x2b
 .riscv.attributes
                0x0000000000000000       0x2b C:\Users\uni\AppData\Local\Temp\iSLER-mess.elf.W1P6jH.ltrans0.ltrans.o

.debug_info     0x0000000000000000     0x469c
 .debug_info    0x0000000000000000     0x1be2 C:\Users\uni\AppData\Local\Temp\iSLER-mess.elf.W1P6jH.ltrans0.ltrans.o
 .debug_info    0x0000000000001be2      0xebb C:\Users\uni\AppData\Local\Temp\cc05JmBQ.debug.temp.o
                0x0000000000001be2                ch32fun.c.e0983271
 .debug_info    0x0000000000002a9d     0x1bff C:\Users\uni\AppData\Local\Temp\ccawdVqs.debug.temp.o
                0x0000000000002a9d                iSLER_mess.c.1872db77

.debug_abbrev   0x0000000000000000      0x79d
 .debug_abbrev  0x0000000000000000      0x22c C:\Users\uni\AppData\Local\Temp\iSLER-mess.elf.W1P6jH.ltrans0.ltrans.o
 .debug_abbrev  0x000000000000022c      0x251 C:\Users\uni\AppData\Local\Temp\cc05JmBQ.debug.temp.o
 .debug_abbrev  0x000000000000047d      0x320 C:\Users\uni\AppData\Local\Temp\ccawdVqs.debug.temp.o

.debug_loc      0x0000000000000000     0x30e0
 .debug_loc     0x0000000000000000     0x30e0 C:\Users\uni\AppData\Local\Temp\iSLER-mess.elf.W1P6jH.ltrans0.ltrans.o

.debug_aranges  0x0000000000000000      0x180
 .debug_aranges
                0x0000000000000000      0x180 C:\Users\uni\AppData\Local\Temp\iSLER-mess.elf.W1P6jH.ltrans0.ltrans.o

.debug_ranges   0x0000000000000000      0x8e0
 .debug_ranges  0x0000000000000000      0x8e0 C:\Users\uni\AppData\Local\Temp\iSLER-mess.elf.W1P6jH.ltrans0.ltrans.o

.debug_line     0x0000000000000000     0x4a24
 .debug_line    0x0000000000000000     0x46a4 C:\Users\uni\AppData\Local\Temp\iSLER-mess.elf.W1P6jH.ltrans0.ltrans.o
 .debug_line    0x00000000000046a4      0x18b C:\Users\uni\AppData\Local\Temp\cc05JmBQ.debug.temp.o
 .debug_line    0x000000000000482f      0x1f5 C:\Users\uni\AppData\Local\Temp\ccawdVqs.debug.temp.o

.debug_str      0x0000000000000000     0x12c0
 .debug_str     0x0000000000000000      0x16a C:\Users\uni\AppData\Local\Temp\iSLER-mess.elf.W1P6jH.ltrans0.ltrans.o
                                        0x18d (size before relaxing)
 .debug_str     0x000000000000016a      0x623 C:\Users\uni\AppData\Local\Temp\cc05JmBQ.debug.temp.o
                                        0x719 (size before relaxing)
 .debug_str     0x000000000000078d      0xb33 C:\Users\uni\AppData\Local\Temp\ccawdVqs.debug.temp.o
                                        0xdcf (size before relaxing)

.debug_frame    0x0000000000000000      0x5c4
 .debug_frame   0x0000000000000000      0x5c4 C:\Users\uni\AppData\Local\Temp\iSLER-mess.elf.W1P6jH.ltrans0.ltrans.o
