
Discarded input sections

 .text          0x0000000000000000        0x0 C:\Users\uni\AppData\Local\Temp\iSLER-mess.elf.rRyfef.ltrans0.ltrans.o
 .data          0x0000000000000000        0x0 C:\Users\uni\AppData\Local\Temp\iSLER-mess.elf.rRyfef.ltrans0.ltrans.o
 .bss           0x0000000000000000        0x0 C:\Users\uni\AppData\Local\Temp\iSLER-mess.elf.rRyfef.ltrans0.ltrans.o
 .text._puts    0x0000000000000000       0x42 C:\Users\uni\AppData\Local\Temp\iSLER-mess.elf.rRyfef.ltrans0.ltrans.o
 .srodata       0x0000000000000000       0x14 C:\Users\uni\AppData\Local\Temp\iSLER-mess.elf.rRyfef.ltrans0.ltrans.o
 .text.vprintf  0x0000000000000000       0x16 C:\Users\uni\AppData\Local\Temp\iSLER-mess.elf.rRyfef.ltrans0.ltrans.o
 .text.mini_vsnprintf
                0x0000000000000000       0x3a C:\Users\uni\AppData\Local\Temp\iSLER-mess.elf.rRyfef.ltrans0.ltrans.o
 .text.snprintf
                0x0000000000000000       0x20 C:\Users\uni\AppData\Local\Temp\iSLER-mess.elf.rRyfef.ltrans0.ltrans.o
 .text.sprintf  0x0000000000000000       0x2c C:\Users\uni\AppData\Local\Temp\iSLER-mess.elf.rRyfef.ltrans0.ltrans.o
 .text.strcpy   0x0000000000000000       0x14 C:\Users\uni\AppData\Local\Temp\iSLER-mess.elf.rRyfef.ltrans0.ltrans.o
 .text.strncpy  0x0000000000000000       0x1c C:\Users\uni\AppData\Local\Temp\iSLER-mess.elf.rRyfef.ltrans0.ltrans.o
 .text.strcmp   0x0000000000000000       0x1a C:\Users\uni\AppData\Local\Temp\iSLER-mess.elf.rRyfef.ltrans0.ltrans.o
 .text.strncmp  0x0000000000000000       0x2e C:\Users\uni\AppData\Local\Temp\iSLER-mess.elf.rRyfef.ltrans0.ltrans.o
 .text.strchr   0x0000000000000000       0x16 C:\Users\uni\AppData\Local\Temp\iSLER-mess.elf.rRyfef.ltrans0.ltrans.o
 .text.strrchr  0x0000000000000000       0x3c C:\Users\uni\AppData\Local\Temp\iSLER-mess.elf.rRyfef.ltrans0.ltrans.o
 .text.memcmp   0x0000000000000000       0x26 C:\Users\uni\AppData\Local\Temp\iSLER-mess.elf.rRyfef.ltrans0.ltrans.o
 .text.memmove  0x0000000000000000       0x5e C:\Users\uni\AppData\Local\Temp\iSLER-mess.elf.rRyfef.ltrans0.ltrans.o
 .text.memchr   0x0000000000000000       0x1c C:\Users\uni\AppData\Local\Temp\iSLER-mess.elf.rRyfef.ltrans0.ltrans.o
 .text.strnlen  0x0000000000000000       0x2a C:\Users\uni\AppData\Local\Temp\iSLER-mess.elf.rRyfef.ltrans0.ltrans.o
 .text.twoway_strstr
                0x0000000000000000      0x254 C:\Users\uni\AppData\Local\Temp\iSLER-mess.elf.rRyfef.ltrans0.ltrans.o
 .text.strstr   0x0000000000000000      0x13a C:\Users\uni\AppData\Local\Temp\iSLER-mess.elf.rRyfef.ltrans0.ltrans.o
 .text.EHSVtoHEX
                0x0000000000000000      0x15e C:\Users\uni\AppData\Local\Temp\iSLER-mess.elf.rRyfef.ltrans0.ltrans.o
 .text.TweenHexColors
                0x0000000000000000       0xdc C:\Users\uni\AppData\Local\Temp\iSLER-mess.elf.rRyfef.ltrans0.ltrans.o
 .comment       0x0000000000000000       0x13 C:\Users\uni\AppData\Local\Temp\iSLER-mess.elf.rRyfef.ltrans0.ltrans.o
 .comment       0x0000000000000000       0x13 C:\Users\uni\AppData\Local\Temp\cc7zcn3t.debug.temp.o
 .comment       0x0000000000000000       0x13 C:\Users\uni\AppData\Local\Temp\ccEHS4ED.debug.temp.o

Memory Configuration

Name             Origin             Length             Attributes
FLASH            0x0000000000000000 0x0000000000070000 xr
RAM              0x0000000020000000 0x0000000000008000 xrw
*default*        0x0000000000000000 0xffffffffffffffff

Linker script and memory map

LOAD C:\Users\uni\AppData\Local\Temp\cckCD4Yx.o
LOAD C:\Users\uni\AppData\Local\Temp\iSLER-mess.elf.rRyfef.ltrans0.ltrans.o
LOAD C:\Users\uni\AppData\Local\Temp\cc7zcn3t.debug.temp.o
LOAD C:\Users\uni\AppData\Local\Temp\ccEHS4ED.debug.temp.o
LOAD C:\Users\uni\AppData\Local\Temp\ccdxFpJw.o
LOAD c:/sysgcc/risc-v/bin/../lib/gcc/riscv64-unknown-elf/10.1.0/rv32imac/ilp32\libgcc.a

.init           0x0000000000000000       0x90
                0x0000000000000000                _sinit = .
                0x0000000000000000                . = ALIGN (0x4)
 *(SORT_NONE(.init))
 .init          0x0000000000000000       0x90 C:\Users\uni\AppData\Local\Temp\iSLER-mess.elf.rRyfef.ltrans0.ltrans.o
                0x0000000000000000                InterruptVector
                0x0000000000000090                . = ALIGN (0x4)
                0x0000000000000090                _einit = .

.text           0x0000000000000090     0x10c4
                0x0000000000000090                . = ALIGN (0x4)
 *(.text)
 *(.text.*)
 .text.mini_pad
                0x0000000000000090       0x9a C:\Users\uni\AppData\Local\Temp\iSLER-mess.elf.rRyfef.ltrans0.ltrans.o
 .text.mini_itoa.part.0
                0x000000000000012a       0x8e C:\Users\uni\AppData\Local\Temp\iSLER-mess.elf.rRyfef.ltrans0.ltrans.o
 .text.RFEND_TXCTune
                0x00000000000001b8       0x8a C:\Users\uni\AppData\Local\Temp\iSLER-mess.elf.rRyfef.ltrans0.ltrans.o
 .text.WS2812FillBuffSec.constprop.0
                0x0000000000000242      0x186 C:\Users\uni\AppData\Local\Temp\iSLER-mess.elf.rRyfef.ltrans0.ltrans.o
 .text.DelaySysTick.constprop.0
                0x00000000000003c8       0x38 C:\Users\uni\AppData\Local\Temp\iSLER-mess.elf.rRyfef.ltrans0.ltrans.o
 .text.internal_handle_input.constprop.0
                0x0000000000000400        0xa C:\Users\uni\AppData\Local\Temp\iSLER-mess.elf.rRyfef.ltrans0.ltrans.o
 .text._write.constprop.0
                0x000000000000040a       0xf4 C:\Users\uni\AppData\Local\Temp\iSLER-mess.elf.rRyfef.ltrans0.ltrans.o
 .text.__puts_uart
                0x00000000000004fe       0x14 C:\Users\uni\AppData\Local\Temp\iSLER-mess.elf.rRyfef.ltrans0.ltrans.o
 .text.handle_reset
                0x0000000000000512       0x84 C:\Users\uni\AppData\Local\Temp\iSLER-mess.elf.rRyfef.ltrans0.ltrans.o
                0x0000000000000512                handle_reset
 .text.vector_handler
                0x0000000000000596        0x2 C:\Users\uni\AppData\Local\Temp\iSLER-mess.elf.rRyfef.ltrans0.ltrans.o
                0x0000000000000596                EXTI2_IRQHandler
                0x0000000000000596                TIM8_TRG_COM_IRQHandler
                0x0000000000000596                TIM8_CC_IRQHandler
                0x0000000000000596                UART8_IRQHandler
                0x0000000000000596                NFC_IRQHandler
                0x0000000000000596                TIM1_CC_IRQHandler
                0x0000000000000596                HardFault_Handler
                0x0000000000000596                GPIOB_IRQHandler
                0x0000000000000596                USBPD_IRQHandler
                0x0000000000000596                TIM6_IRQHandler
                0x0000000000000596                GPIOA_IRQHandler
                0x0000000000000596                PVD_IRQHandler
                0x0000000000000596                SDIO_IRQHandler
                0x0000000000000596                TIM9_BRK_IRQHandler
                0x0000000000000596                DMA2_Channel8_IRQHandler
                0x0000000000000596                NMI_Handler
                0x0000000000000596                CAN2_RX1_IRQHandler
                0x0000000000000596                EXTI3_IRQHandler
                0x0000000000000596                UART1_IRQHandler
                0x0000000000000596                USBHS_IRQHandler
                0x0000000000000596                DMA2_Channel9_IRQHandler
                0x0000000000000596                TIM10_CC_IRQHandler
                0x0000000000000596                EXTI25_16_IRQHandler
                0x0000000000000596                USBFS_IRQHandler
                0x0000000000000596                UART0_IRQHandler
                0x0000000000000596                EXTI0_IRQHandler
                0x0000000000000596                I2C2_EV_IRQHandler
                0x0000000000000596                TIM10_TRG_COM_IRQHandler
                0x0000000000000596                CAN2_SCE_IRQHandler
                0x0000000000000596                ADC1_2_IRQHandler
                0x0000000000000596                BB_IRQHandler
                0x0000000000000596                Break_Point_Handler
                0x0000000000000596                TIM2_CC_IRQHandler
                0x0000000000000596                SPI1_IRQHandler
                0x0000000000000596                TAMPER_IRQHandler
                0x0000000000000596                TMR0_IRQHandler
                0x0000000000000596                AWU_IRQHandler
                0x0000000000000596                EXTI7_0_IRQHandler
                0x0000000000000596                CAN2_RX0_IRQHandler
                0x0000000000000596                OSCWakeUp_IRQHandler
                0x0000000000000596                TIM8_UP_IRQHandler
                0x0000000000000596                Ecall_M_Mode_Handler
                0x0000000000000596                DMA2_Channel2_IRQHandler
                0x0000000000000596                DMA1_Channel4_IRQHandler
                0x0000000000000596                ADC1_IRQHandler
                0x0000000000000596                TIM2_BRK_IRQHandler
                0x0000000000000596                TIM9_UP_IRQHandler
                0x0000000000000596                USART3_IRQHandler
                0x0000000000000596                RTC_IRQHandler
                0x0000000000000596                DMA1_Channel7_IRQHandler
                0x0000000000000596                LED_IRQHandler
                0x0000000000000596                CAN1_RX1_IRQHandler
                0x0000000000000596                DVP_IRQHandler
                0x0000000000000596                UART5_IRQHandler
                0x0000000000000596                EXTI15_8_IRQHandler
                0x0000000000000596                TIM4_IRQHandler
                0x0000000000000596                DMA2_Channel1_IRQHandler
                0x0000000000000596                USBPD_WKUP_IRQHandler
                0x0000000000000596                I2C1_EV_IRQHandler
                0x0000000000000596                UART2_IRQHandler
                0x0000000000000596                USART4_IRQHandler
                0x0000000000000596                PWMX_IRQHandler
                0x0000000000000596                DMA1_Channel6_IRQHandler
                0x0000000000000596                UART4_IRQHandler
                0x0000000000000596                DMA2_Channel4_IRQHandler
                0x0000000000000596                TIM3_IRQHandler
                0x0000000000000596                RCC_IRQHandler
                0x0000000000000596                TIM1_TRG_COM_IRQHandler
                0x0000000000000596                DMA1_Channel1_IRQHandler
                0x0000000000000596                DMA2_Channel7_IRQHandler
                0x0000000000000596                EXTI15_10_IRQHandler
                0x0000000000000596                ADC_IRQHandler
                0x0000000000000596                DMA1_Channel8_IRQHandler
                0x0000000000000596                TMR2_IRQHandler
                0x0000000000000596                DefaultIRQHandler
                0x0000000000000596                TIM7_IRQHandler
                0x0000000000000596                CAN2_TX_IRQHandler
                0x0000000000000596                TIM5_IRQHandler
                0x0000000000000596                USB_IRQHandler
                0x0000000000000596                EXTI9_5_IRQHandler
                0x0000000000000596                PIOC_IRQHandler
                0x0000000000000596                SPI2_IRQHandler
                0x0000000000000596                OSC32KCal_IRQHandler
                0x0000000000000596                I2C_IRQHandler
                0x0000000000000596                TIM10_BRK_IRQHandler
                0x0000000000000596                TIM9_CC_IRQHandler
                0x0000000000000596                DMA2_Channel5_IRQHandler
                0x0000000000000596                USB2_IRQHandler
                0x0000000000000596                USBHSWakeUp_IRQHandler
                0x0000000000000596                DMA1_Channel5_IRQHandler
                0x0000000000000596                EXTI4_IRQHandler
                0x0000000000000596                USB_LP_CAN1_RX0_IRQHandler
                0x0000000000000596                RNG_IRQHandler
                0x0000000000000596                USB_HP_CAN1_TX_IRQHandler
                0x0000000000000596                DMA1_Channel3_IRQHandler
                0x0000000000000596                FSMC_IRQHandler
                0x0000000000000596                ETH_IRQHandler
                0x0000000000000596                TIM1_UP_IRQHandler
                0x0000000000000596                WWDG_IRQHandler
                0x0000000000000596                DMA2_Channel11_IRQHandler
                0x0000000000000596                WDOG_BAT_IRQHandler
                0x0000000000000596                Ecall_U_Mode_Handler
                0x0000000000000596                TMR3_IRQHandler
                0x0000000000000596                DMA2_Channel6_IRQHandler
                0x0000000000000596                TIM2_IRQHandler
                0x0000000000000596                SW_Handler
                0x0000000000000596                TIM1_BRK_IRQHandler
                0x0000000000000596                OPA_IRQHandler
                0x0000000000000596                DMA2_Channel10_IRQHandler
                0x0000000000000596                EXTI1_IRQHandler
                0x0000000000000596                USB2_HOST_IRQHandler
                0x0000000000000596                RTCAlarm_IRQHandler
                0x0000000000000596                TIM10_UP_IRQHandler
                0x0000000000000596                TIM9_TRG_COM_IRQHandler
                0x0000000000000596                UART7_IRQHandler
                0x0000000000000596                USART2_IRQHandler
                0x0000000000000596                UART6_IRQHandler
                0x0000000000000596                ETHWakeUp_IRQHandler
                0x0000000000000596                I2C2_ER_IRQHandler
                0x0000000000000596                DMA1_Channel2_IRQHandler
                0x0000000000000596                TIM8_BRK_IRQHandler
                0x0000000000000596                TIM2_TRG_IRQHandler
                0x0000000000000596                CAN1_SCE_IRQHandler
                0x0000000000000596                FLASH_IRQHandler
                0x0000000000000596                USBFSWakeUp_IRQHandler
                0x0000000000000596                USART1_IRQHandler
                0x0000000000000596                OTG_FS_IRQHandler
                0x0000000000000596                SPI3_IRQHandler
                0x0000000000000596                USBFS_WakeUp_IRQHandler
                0x0000000000000596                UART3_IRQHandler
                0x0000000000000596                I2C1_ER_IRQHandler
                0x0000000000000596                USB2_DEVICE_IRQHandler
                0x0000000000000596                TMR1_IRQHandler
                0x0000000000000596                USBWakeUp_IRQHandler
                0x0000000000000596                DMA2_Channel3_IRQHandler
 .text.strlen   0x0000000000000598       0x12 C:\Users\uni\AppData\Local\Temp\iSLER-mess.elf.rRyfef.ltrans0.ltrans.o
                0x0000000000000598                strlen
 .text.mini_vpprintf
                0x00000000000005aa      0x1be C:\Users\uni\AppData\Local\Temp\iSLER-mess.elf.rRyfef.ltrans0.ltrans.o
 .text.printf   0x0000000000000768       0x26 C:\Users\uni\AppData\Local\Temp\iSLER-mess.elf.rRyfef.ltrans0.ltrans.o
                0x0000000000000768                printf
 .text.memset   0x000000000000078e       0x12 C:\Users\uni\AppData\Local\Temp\iSLER-mess.elf.rRyfef.ltrans0.ltrans.o
                0x000000000000078e                memset
 .text.memcpy   0x00000000000007a0       0x1c C:\Users\uni\AppData\Local\Temp\iSLER-mess.elf.rRyfef.ltrans0.ltrans.o
                0x00000000000007a0                memcpy
 .text.puts     0x00000000000007bc       0x2c C:\Users\uni\AppData\Local\Temp\iSLER-mess.elf.rRyfef.ltrans0.ltrans.o
                0x00000000000007bc                puts
 .text.putchar  0x00000000000007e8       0x6c C:\Users\uni\AppData\Local\Temp\iSLER-mess.elf.rRyfef.ltrans0.ltrans.o
                0x00000000000007e8                putchar
 .text.SystemInit
                0x0000000000000854       0x94 C:\Users\uni\AppData\Local\Temp\iSLER-mess.elf.rRyfef.ltrans0.ltrans.o
                0x0000000000000854                SystemInit
 .text.startup.main
                0x00000000000008e8      0x6b4 C:\Users\uni\AppData\Local\Temp\iSLER-mess.elf.rRyfef.ltrans0.ltrans.o
                0x00000000000008e8                main
 .text.LLE_IRQHandler
                0x0000000000000f9c       0x96 C:\Users\uni\AppData\Local\Temp\iSLER-mess.elf.rRyfef.ltrans0.ltrans.o
 .text.SysTick_Handler
                0x0000000000001032       0x56 C:\Users\uni\AppData\Local\Temp\iSLER-mess.elf.rRyfef.ltrans0.ltrans.o
 .text.SPI0_IRQHandler
                0x0000000000001088       0x66 C:\Users\uni\AppData\Local\Temp\iSLER-mess.elf.rRyfef.ltrans0.ltrans.o
 *(.rodata)
 *(.rodata*)
 *fill*         0x00000000000010ee        0x2 
 .rodata.puts.str1.4
                0x00000000000010f0        0x2 C:\Users\uni\AppData\Local\Temp\iSLER-mess.elf.rRyfef.ltrans0.ltrans.o
 *fill*         0x00000000000010f2        0x2 
 .rodata.main.str1.4
                0x00000000000010f4       0x18 C:\Users\uni\AppData\Local\Temp\iSLER-mess.elf.rRyfef.ltrans0.ltrans.o
 .rodata.bitquartets.0
                0x000000000000110c       0x20 C:\Users\uni\AppData\Local\Temp\iSLER-mess.elf.rRyfef.ltrans0.ltrans.o
 .rodata.channel_map
                0x000000000000112c       0x28 C:\Users\uni\AppData\Local\Temp\iSLER-mess.elf.rRyfef.ltrans0.ltrans.o
 *(.gnu.linkonce.t.*)
                0x0000000000001154                . = ALIGN (0x4)

.rela.dyn       0x0000000000001154        0x0
 .rela.text.mini_pad
                0x0000000000001154        0x0 C:\Users\uni\AppData\Local\Temp\iSLER-mess.elf.rRyfef.ltrans0.ltrans.o
 .rela.text.WS2812FillBuffSec.constprop.0
                0x0000000000001154        0x0 C:\Users\uni\AppData\Local\Temp\iSLER-mess.elf.rRyfef.ltrans0.ltrans.o
 .rela.text._write.constprop.0
                0x0000000000001154        0x0 C:\Users\uni\AppData\Local\Temp\iSLER-mess.elf.rRyfef.ltrans0.ltrans.o
 .rela.text.handle_reset
                0x0000000000001154        0x0 C:\Users\uni\AppData\Local\Temp\iSLER-mess.elf.rRyfef.ltrans0.ltrans.o
 .rela.text.mini_vpprintf
                0x0000000000001154        0x0 C:\Users\uni\AppData\Local\Temp\iSLER-mess.elf.rRyfef.ltrans0.ltrans.o
 .rela.text.puts
                0x0000000000001154        0x0 C:\Users\uni\AppData\Local\Temp\iSLER-mess.elf.rRyfef.ltrans0.ltrans.o
 .rela.text.startup.main
                0x0000000000001154        0x0 C:\Users\uni\AppData\Local\Temp\iSLER-mess.elf.rRyfef.ltrans0.ltrans.o

.fini           0x0000000000001154        0x0
 *(SORT_NONE(.fini))
                0x0000000000001154                . = ALIGN (0x4)
                [!provide]                        PROVIDE (_etext = .)
                [!provide]                        PROVIDE (_eitcm = .)

.preinit_array  0x0000000000001154        0x0
                [!provide]                        PROVIDE (__preinit_array_start = .)
 *(.preinit_array)
                [!provide]                        PROVIDE (__preinit_array_end = .)

.init_array     0x0000000000001154        0x0
                [!provide]                        PROVIDE (__init_array_start = .)
 *(SORT_BY_INIT_PRIORITY(.init_array.*) SORT_BY_INIT_PRIORITY(.ctors.*))
 *(.init_array EXCLUDE_FILE(*crtend?.o *crtend.o *crtbegin?.o *crtbegin.o) .ctors)
                [!provide]                        PROVIDE (__init_array_end = .)

.fini_array     0x0000000000001154        0x0
                [!provide]                        PROVIDE (__fini_array_start = .)
 *(SORT_BY_INIT_PRIORITY(.fini_array.*) SORT_BY_INIT_PRIORITY(.dtors.*))
 *(.fini_array EXCLUDE_FILE(*crtend?.o *crtend.o *crtbegin?.o *crtbegin.o) .dtors)
                [!provide]                        PROVIDE (__fini_array_end = .)

.ctors
 *crtbegin.o(.ctors)
 *crtbegin?.o(.ctors)
 *(EXCLUDE_FILE(*crtend?.o *crtend.o) .ctors)
 *(SORT_BY_NAME(.ctors.*))
 *(.ctors)

.dtors
 *crtbegin.o(.dtors)
 *crtbegin?.o(.dtors)
 *(EXCLUDE_FILE(*crtend?.o *crtend.o) .dtors)
 *(SORT_BY_NAME(.dtors.*))
 *(.dtors)

.dalign         0x0000000020000000        0x0 load address 0x0000000000001154
                0x0000000020000000                . = ALIGN (0x4)
                0x0000000020000000                PROVIDE (_data_vma = .)

.dlalign        0x0000000000001154        0x0
                0x0000000000001154                . = ALIGN (0x4)
                0x0000000000001154                PROVIDE (_data_lma = .)

.data           0x0000000020000000       0x40 load address 0x0000000000001154
                0x0000000020000000                . = ALIGN (0x4)
                0x00000000200003fc                __global_pointer$ = (. + 0x3fc)
 *(.gnu.linkonce.r.*)
 *(.data .data.*)
 .data.blink_led
                0x0000000020000000       0x18 C:\Users\uni\AppData\Local\Temp\iSLER-mess.elf.rRyfef.ltrans0.ltrans.o
 .data.color_arr
                0x0000000020000018        0xc C:\Users\uni\AppData\Local\Temp\iSLER-mess.elf.rRyfef.ltrans0.ltrans.o
 .data.move_leds
                0x0000000020000024       0x14 C:\Users\uni\AppData\Local\Temp\iSLER-mess.elf.rRyfef.ltrans0.ltrans.o
 *(.gnu.linkonce.d.*)
                0x0000000020000038                . = ALIGN (0x8)
 *(.sdata .sdata.*)
 .sdata.color_ani
                0x0000000020000038        0x8 C:\Users\uni\AppData\Local\Temp\iSLER-mess.elf.rRyfef.ltrans0.ltrans.o
 *(.sdata2*)
 *(.gnu.linkonce.s.*)
                0x0000000020000040                . = ALIGN (0x8)
 *(.srodata.cst16)
 *(.srodata.cst8)
 *(.srodata.cst4)
 *(.srodata.cst2)
 *(.srodata .srodata.*)
                0x0000000020000040                . = ALIGN (0x4)
                0x0000000020000040                PROVIDE (_edata = .)

.bss            0x0000000020000040      0x554 load address 0x0000000000001194
                0x0000000020000040                . = ALIGN (0x4)
                0x0000000020000040                PROVIDE (_sbss = .)
 *(.sbss*)
 .sbss.WS2812BLEDInUse
                0x0000000020000040        0x4 C:\Users\uni\AppData\Local\Temp\iSLER-mess.elf.rRyfef.ltrans0.ltrans.o
 .sbss.WS2812LEDPlace
                0x0000000020000044        0x4 C:\Users\uni\AppData\Local\Temp\iSLER-mess.elf.rRyfef.ltrans0.ltrans.o
 .sbss.WS2812LEDs
                0x0000000020000048        0x4 C:\Users\uni\AppData\Local\Temp\iSLER-mess.elf.rRyfef.ltrans0.ltrans.o
 .sbss.rx_ready
                0x000000002000004c        0x4 C:\Users\uni\AppData\Local\Temp\iSLER-mess.elf.rRyfef.ltrans0.ltrans.o
 .sbss.systick_millis
                0x0000000020000050        0x4 C:\Users\uni\AppData\Local\Temp\iSLER-mess.elf.rRyfef.ltrans0.ltrans.o
 .sbss.tuneFilter
                0x0000000020000054        0x4 C:\Users\uni\AppData\Local\Temp\iSLER-mess.elf.rRyfef.ltrans0.ltrans.o
 .sbss.tuneFilter2M
                0x0000000020000058        0x4 C:\Users\uni\AppData\Local\Temp\iSLER-mess.elf.rRyfef.ltrans0.ltrans.o
 *(.gnu.linkonce.sb.*)
 *(.bss*)
 .bss.LLE_BUF   0x000000002000005c      0x440 C:\Users\uni\AppData\Local\Temp\iSLER-mess.elf.rRyfef.ltrans0.ltrans.o
 .bss.WS2812dmabuff
                0x000000002000049c       0x60 C:\Users\uni\AppData\Local\Temp\iSLER-mess.elf.rRyfef.ltrans0.ltrans.o
 .bss.circular_buff
                0x00000000200004fc       0x80 C:\Users\uni\AppData\Local\Temp\iSLER-mess.elf.rRyfef.ltrans0.ltrans.o
 .bss.led_arr   0x000000002000057c       0x18 C:\Users\uni\AppData\Local\Temp\iSLER-mess.elf.rRyfef.ltrans0.ltrans.o
 *(.gnu.linkonce.b.*)
 *(COMMON*)
                0x0000000020000594                . = ALIGN (0x4)
                0x0000000020000594                PROVIDE (_ebss = .)
                [!provide]                        PROVIDE (_end = _ebss)
                [!provide]                        PROVIDE (end = .)
                0x0000000020008000                PROVIDE (_eusrstack = (ORIGIN (RAM) + LENGTH (RAM)))

/DISCARD/
 *(.note .note.*)
 *(.eh_frame .eh_frame.*)
 *(.comment .comment.*)
 *(.ARM.extab* .gnu.linkonce.armextab.*)
 *(.ARM.exidx*)
OUTPUT(iSLER-mess.elf elf32-littleriscv)

.riscv.attributes
                0x0000000000000000       0x2b
 .riscv.attributes
                0x0000000000000000       0x2b C:\Users\uni\AppData\Local\Temp\iSLER-mess.elf.rRyfef.ltrans0.ltrans.o

.debug_info     0x0000000000000000     0x4033
 .debug_info    0x0000000000000000     0x17b0 C:\Users\uni\AppData\Local\Temp\iSLER-mess.elf.rRyfef.ltrans0.ltrans.o
 .debug_info    0x00000000000017b0      0xebb C:\Users\uni\AppData\Local\Temp\cc7zcn3t.debug.temp.o
                0x00000000000017b0                ch32fun.c.e0983271
 .debug_info    0x000000000000266b     0x19c8 C:\Users\uni\AppData\Local\Temp\ccEHS4ED.debug.temp.o
                0x000000000000266b                iSLER_mess.c.23d34e11

.debug_abbrev   0x0000000000000000      0x77f
 .debug_abbrev  0x0000000000000000      0x20e C:\Users\uni\AppData\Local\Temp\iSLER-mess.elf.rRyfef.ltrans0.ltrans.o
 .debug_abbrev  0x000000000000020e      0x251 C:\Users\uni\AppData\Local\Temp\cc7zcn3t.debug.temp.o
 .debug_abbrev  0x000000000000045f      0x320 C:\Users\uni\AppData\Local\Temp\ccEHS4ED.debug.temp.o

.debug_loc      0x0000000000000000     0x2d21
 .debug_loc     0x0000000000000000     0x2d21 C:\Users\uni\AppData\Local\Temp\iSLER-mess.elf.rRyfef.ltrans0.ltrans.o

.debug_aranges  0x0000000000000000      0x170
 .debug_aranges
                0x0000000000000000      0x170 C:\Users\uni\AppData\Local\Temp\iSLER-mess.elf.rRyfef.ltrans0.ltrans.o

.debug_ranges   0x0000000000000000      0x6c8
 .debug_ranges  0x0000000000000000      0x6c8 C:\Users\uni\AppData\Local\Temp\iSLER-mess.elf.rRyfef.ltrans0.ltrans.o

.debug_line     0x0000000000000000     0x439e
 .debug_line    0x0000000000000000     0x401e C:\Users\uni\AppData\Local\Temp\iSLER-mess.elf.rRyfef.ltrans0.ltrans.o
 .debug_line    0x000000000000401e      0x18b C:\Users\uni\AppData\Local\Temp\cc7zcn3t.debug.temp.o
 .debug_line    0x00000000000041a9      0x1f5 C:\Users\uni\AppData\Local\Temp\ccEHS4ED.debug.temp.o

.debug_str      0x0000000000000000     0x11d3
 .debug_str     0x0000000000000000      0x16a C:\Users\uni\AppData\Local\Temp\iSLER-mess.elf.rRyfef.ltrans0.ltrans.o
                                        0x185 (size before relaxing)
 .debug_str     0x000000000000016a      0x623 C:\Users\uni\AppData\Local\Temp\cc7zcn3t.debug.temp.o
                                        0x719 (size before relaxing)
 .debug_str     0x000000000000078d      0xa46 C:\Users\uni\AppData\Local\Temp\ccEHS4ED.debug.temp.o
                                        0xcdb (size before relaxing)

.debug_frame    0x0000000000000000      0x554
 .debug_frame   0x0000000000000000      0x554 C:\Users\uni\AppData\Local\Temp\iSLER-mess.elf.rRyfef.ltrans0.ltrans.o
