
iSLER-mess.elf:     file format elf32-littleriscv


Disassembly of section .init:

00000000 <InterruptVector>:
	void InterruptVector()         __attribute__((naked)) __attribute((section(".init"))) __attribute((weak,alias("InterruptVectorDefault"))) __attribute((naked));
	void InterruptVectorDefault()  __attribute__((naked)) __attribute((section(".init"))) __attribute((naked));
	void InterruptVectorDefault( void )
	{
		#if !defined(FUNCONF_TINYVECTOR) || !FUNCONF_TINYVECTOR
			asm volatile( DEFAULT_INTERRUPT_VECTOR_CONTENTS );
   0:	0ff0006f          	j	8fe <handle_reset>
   4:	0000                	unimp
   6:	0000                	unimp
   8:	0982                	c.slli64	s3
   a:	0000                	unimp
   c:	0982                	c.slli64	s3
   e:	0000                	unimp
  10:	bda9                	j	fffffe6a <_eusrstack+0xdfff7e6a>
  12:	f3f9                	bnez	a5,ffffffd8 <_eusrstack+0xdfff7fd8>
  14:	0982                	c.slli64	s3
	...
  1e:	0000                	unimp
  20:	0982                	c.slli64	s3
  22:	0000                	unimp
  24:	0982                	c.slli64	s3
	...
  2e:	0000                	unimp
  30:	186a                	slli	a6,a6,0x3a
  32:	0000                	unimp
  34:	0000                	unimp
  36:	0000                	unimp
  38:	0982                	c.slli64	s3
  3a:	0000                	unimp
  3c:	0000                	unimp
  3e:	0000                	unimp
  40:	0982                	c.slli64	s3
  42:	0000                	unimp
  44:	0982                	c.slli64	s3
  46:	0000                	unimp
  48:	0982                	c.slli64	s3
  4a:	0000                	unimp
  4c:	18c0                	addi	s0,sp,116
  4e:	0000                	unimp
  50:	0982                	c.slli64	s3
  52:	0000                	unimp
  54:	1926                	slli	s2,s2,0x29
  56:	0000                	unimp
  58:	0982                	c.slli64	s3
  5a:	0000                	unimp
  5c:	0000                	unimp
  5e:	0000                	unimp
  60:	0982                	c.slli64	s3
  62:	0000                	unimp
  64:	0982                	c.slli64	s3
  66:	0000                	unimp
  68:	0982                	c.slli64	s3
  6a:	0000                	unimp
  6c:	0982                	c.slli64	s3
  6e:	0000                	unimp
  70:	0982                	c.slli64	s3
  72:	0000                	unimp
  74:	0982                	c.slli64	s3
  76:	0000                	unimp
  78:	0982                	c.slli64	s3
  7a:	0000                	unimp
  7c:	0982                	c.slli64	s3
  7e:	0000                	unimp
  80:	0982                	c.slli64	s3
  82:	0000                	unimp
  84:	0982                	c.slli64	s3
  86:	0000                	unimp
  88:	0982                	c.slli64	s3
  8a:	0000                	unimp
  8c:	0982                	c.slli64	s3
	...

Disassembly of section .text:

00000090 <mini_pad>:
{
      90:	1101                	addi	sp,sp,-32
      92:	ca26                	sw	s1,20(sp)
      94:	c84a                	sw	s2,16(sp)
      96:	c64e                	sw	s3,12(sp)
      98:	ce06                	sw	ra,28(sp)
      9a:	cc22                	sw	s0,24(sp)
      9c:	84ae                	mv	s1,a1
      9e:	89aa                	mv	s3,a0
      a0:	85b2                	mv	a1,a2
	int overflow = 0;
      a2:	4901                	li	s2,0
	if(pad_to == 0) pad_to = len;
      a4:	caa5                	beqz	a3,114 <mini_pad+0x84>
	if(len > pad_to) {
      a6:	0096d463          	bge	a3,s1,ae <mini_pad+0x1e>
      aa:	84b6                	mv	s1,a3
		overflow = 1;
      ac:	4905                	li	s2,1
	for(i = pad_to - len; i > 0; i --) {
      ae:	40968433          	sub	s0,a3,s1
		*(pbuffer++) = pad_char;
      b2:	00045363          	bgez	s0,b8 <mini_pad+0x28>
      b6:	4401                	li	s0,0
      b8:	853a                	mv	a0,a4
      ba:	8622                	mv	a2,s0
      bc:	2c7000ef          	jal	ra,b82 <memset>
      c0:	872a                	mv	a4,a0
      c2:	008506b3          	add	a3,a0,s0
      c6:	4781                	li	a5,0
	for(i = len; i > 0; i --) {
      c8:	40f48633          	sub	a2,s1,a5
      cc:	04c04663          	bgtz	a2,118 <mini_pad+0x88>
      d0:	0004d363          	bgez	s1,d6 <mini_pad+0x46>
      d4:	4481                	li	s1,0
      d6:	00968633          	add	a2,a3,s1
	len = pbuffer - buffer;
      da:	40e60533          	sub	a0,a2,a4
	if(overflow) {
      de:	02090463          	beqz	s2,106 <mini_pad+0x76>
		for (i = 0; i < 3 && pbuffer > buffer; i ++) {
      e2:	02c77263          	bgeu	a4,a2,106 <mini_pad+0x76>
			*(pbuffer-- - 1) = '*';
      e6:	02a00793          	li	a5,42
      ea:	fef60fa3          	sb	a5,-1(a2)
      ee:	fff60693          	addi	a3,a2,-1
		for (i = 0; i < 3 && pbuffer > buffer; i ++) {
      f2:	00d77a63          	bgeu	a4,a3,106 <mini_pad+0x76>
			*(pbuffer-- - 1) = '*';
      f6:	fef60f23          	sb	a5,-2(a2)
      fa:	ffe60693          	addi	a3,a2,-2
		for (i = 0; i < 3 && pbuffer > buffer; i ++) {
      fe:	00d77463          	bgeu	a4,a3,106 <mini_pad+0x76>
			*(pbuffer-- - 1) = '*';
     102:	fef60ea3          	sb	a5,-3(a2)
}
     106:	40f2                	lw	ra,28(sp)
     108:	4462                	lw	s0,24(sp)
     10a:	44d2                	lw	s1,20(sp)
     10c:	4942                	lw	s2,16(sp)
     10e:	49b2                	lw	s3,12(sp)
     110:	6105                	addi	sp,sp,32
     112:	8082                	ret
	if(pad_to == 0) pad_to = len;
     114:	86a6                	mv	a3,s1
     116:	bf61                	j	ae <mini_pad+0x1e>
		*(pbuffer++) = *(ptr++);
     118:	00f98633          	add	a2,s3,a5
     11c:	00064583          	lbu	a1,0(a2)
     120:	00f68633          	add	a2,a3,a5
     124:	0785                	addi	a5,a5,1
     126:	00b60023          	sb	a1,0(a2)
	for(i = len; i > 0; i --) {
     12a:	bf79                	j	c8 <mini_pad+0x38>

0000012c <mini_itoa.part.0>:
	int	negative = 0;
     12c:	4881                	li	a7,0
	if (value < 0 && !unsig) {
     12e:	00055663          	bgez	a0,13a <mini_itoa.part.0+0xe>
     132:	e681                	bnez	a3,13a <mini_itoa.part.0+0xe>
		value = -value;
     134:	40a00533          	neg	a0,a0
		negative = 1;
     138:	4885                	li	a7,1
     13a:	06100793          	li	a5,97
     13e:	c219                	beqz	a2,144 <mini_itoa.part.0+0x18>
     140:	04100793          	li	a5,65
	int	negative = 0;
     144:	883a                	mv	a6,a4
		*(pbuffer++) = (digit < 10 ? '0' + digit : (uppercase ? 'A' : 'a') + digit - 10);
     146:	4e25                	li	t3,9
     148:	ff678613          	addi	a2,a5,-10
		int digit = value % radix;
     14c:	02b577b3          	remu	a5,a0,a1
     150:	832a                	mv	t1,a0
		*(pbuffer++) = (digit < 10 ? '0' + digit : (uppercase ? 'A' : 'a') + digit - 10);
     152:	0ff7f693          	andi	a3,a5,255
     156:	04fe6463          	bltu	t3,a5,19e <mini_itoa.part.0+0x72>
     15a:	03068693          	addi	a3,a3,48
     15e:	0ff6f693          	andi	a3,a3,255
     162:	00d80023          	sb	a3,0(a6)
     166:	00180793          	addi	a5,a6,1
		value /= radix;
     16a:	02b55533          	divu	a0,a0,a1
	} while (value > 0);
     16e:	02b37663          	bgeu	t1,a1,19a <mini_itoa.part.0+0x6e>
	if (negative)
     172:	00088863          	beqz	a7,182 <mini_itoa.part.0+0x56>
		*(pbuffer++) = '-';
     176:	02d00693          	li	a3,45
     17a:	00d78023          	sb	a3,0(a5)
     17e:	00280793          	addi	a5,a6,2
	len = (pbuffer - buffer);
     182:	40e78533          	sub	a0,a5,a4
	for (i = 0; i < len / 2; i++) {
     186:	4609                	li	a2,2
	*(pbuffer) = '\0';
     188:	00078023          	sb	zero,0(a5)
	for (i = 0; i < len / 2; i++) {
     18c:	4681                	li	a3,0
     18e:	02c54633          	div	a2,a0,a2
     192:	17fd                	addi	a5,a5,-1
     194:	00c6c763          	blt	a3,a2,1a2 <mini_itoa.part.0+0x76>
}
     198:	8082                	ret
	} while (value > 0);
     19a:	883e                	mv	a6,a5
     19c:	bf45                	j	14c <mini_itoa.part.0+0x20>
		*(pbuffer++) = (digit < 10 ? '0' + digit : (uppercase ? 'A' : 'a') + digit - 10);
     19e:	96b2                	add	a3,a3,a2
     1a0:	bf7d                	j	15e <mini_itoa.part.0+0x32>
		char j = buffer[i];
     1a2:	00d705b3          	add	a1,a4,a3
		buffer[i] = buffer[len-i-1];
     1a6:	0007c883          	lbu	a7,0(a5)
		char j = buffer[i];
     1aa:	0005c803          	lbu	a6,0(a1)
	for (i = 0; i < len / 2; i++) {
     1ae:	0685                	addi	a3,a3,1
		buffer[i] = buffer[len-i-1];
     1b0:	01158023          	sb	a7,0(a1)
		buffer[len-i-1] = j;
     1b4:	01078023          	sb	a6,0(a5)
	for (i = 0; i < len / 2; i++) {
     1b8:	bfe9                	j	192 <mini_itoa.part.0+0x66>

000001ba <DevSetMode>:
}

void DevSetMode(uint16_t mode) {
#if !defined(CH571_CH573)
	if(mode) {
		BB->CTRL_CFG = DEVSETMODE_ON;
     1ba:	4000c737          	lui	a4,0x4000c
     1be:	10072783          	lw	a5,256(a4) # 4000c100 <_eusrstack+0x20004100>
     1c2:	e7f7f793          	andi	a5,a5,-385
	if(mode) {
     1c6:	c115                	beqz	a0,1ea <DevSetMode+0x30>
		BB->CTRL_CFG = DEVSETMODE_ON;
     1c8:	1007e793          	ori	a5,a5,256
     1cc:	10f72023          	sw	a5,256(a4)
		RF->RF2 |= 0x330000;
     1d0:	4000d737          	lui	a4,0x4000d
     1d4:	471c                	lw	a5,8(a4)
     1d6:	003306b7          	lui	a3,0x330
     1da:	8fd5                	or	a5,a5,a3
     1dc:	c71c                	sw	a5,8(a4)
	mode = (mode == 0) ? 0x80 : mode;
#elif !defined(CH32V208)
	mode |= 0x30000;
#endif
#endif // ! CH571_CH573
	LL->CTRL_MOD = mode;
     1de:	4000c7b7          	lui	a5,0x4000c
     1e2:	20078793          	addi	a5,a5,512 # 4000c200 <_eusrstack+0x20004200>
     1e6:	cba8                	sw	a0,80(a5)
}
     1e8:	8082                	ret
		BB->CTRL_CFG = DEVSETMODE_OFF;
     1ea:	0807e793          	ori	a5,a5,128
     1ee:	10f72023          	sw	a5,256(a4) # 4000d100 <_eusrstack+0x20005100>
		RF->RF2 &= 0xffcdffff;
     1f2:	4000d6b7          	lui	a3,0x4000d
     1f6:	469c                	lw	a5,8(a3)
     1f8:	ffce0737          	lui	a4,0xffce0
     1fc:	177d                	addi	a4,a4,-1
     1fe:	8ff9                	and	a5,a5,a4
     200:	c69c                	sw	a5,8(a3)
	mode = (mode == 0) ? 0x80 : mode;
     202:	08000513          	li	a0,128
     206:	bfe1                	j	1de <DevSetMode+0x24>

00000208 <RFEND_TXCTune>:

uint32_t RFEND_TXCTune(uint8_t channel) {
	// 0xbf = 2401 MHz
	RF->RF1 &= 0xfffffffe;
     208:	4000d737          	lui	a4,0x4000d
     20c:	435c                	lw	a5,4(a4)
	RF->TXTUNE_CTRL = (RF->TXTUNE_CTRL & 0xfffe00ff) | (0xbf00 + (channel_map[channel] << 8));
     20e:	6689                	lui	a3,0x2
     210:	ba468693          	addi	a3,a3,-1116 # 1ba4 <channel_map>
	RF->RF1 &= 0xfffffffe;
     214:	9bf9                	andi	a5,a5,-2
	RF->TXTUNE_CTRL = (RF->TXTUNE_CTRL & 0xfffe00ff) | (0xbf00 + (channel_map[channel] << 8));
     216:	96aa                	add	a3,a3,a0
	RF->RF1 &= 0xfffffffe;
     218:	c35c                	sw	a5,4(a4)
	RF->TXTUNE_CTRL = (RF->TXTUNE_CTRL & 0xfffe00ff) | (0xbf00 + (channel_map[channel] << 8));
     21a:	0006c783          	lbu	a5,0(a3)
     21e:	66b1                	lui	a3,0xc
     220:	5f10                	lw	a2,56(a4)
     222:	f0068693          	addi	a3,a3,-256 # bf00 <iSLER_mess.c.0d7236ba+0x8e37>
     226:	07a2                	slli	a5,a5,0x8
     228:	97b6                	add	a5,a5,a3
     22a:	7681                	lui	a3,0xfffe0
     22c:	0ff68693          	addi	a3,a3,255 # fffe00ff <_eusrstack+0xdffd80ff>
     230:	8e75                	and	a2,a2,a3
     232:	8fd1                	or	a5,a5,a2
     234:	df1c                	sw	a5,56(a4)
	RF->RF1 |= 1;
     236:	435c                	lw	a5,4(a4)

	LL->TMR = 8000;
	while(!(RF->TXCTUNE_CO_CTRL & (1 << 25)) || !(RF->TXCTUNE_CO_CTRL & (1 << 26))) {
     238:	02000637          	lui	a2,0x2000
     23c:	040006b7          	lui	a3,0x4000
	RF->RF1 |= 1;
     240:	0017e793          	ori	a5,a5,1
     244:	c35c                	sw	a5,4(a4)
	LL->TMR = 8000;
     246:	4000c7b7          	lui	a5,0x4000c
     24a:	6709                	lui	a4,0x2
     24c:	f4070713          	addi	a4,a4,-192 # 1f40 <_data_lma+0x374>
     250:	20078793          	addi	a5,a5,512 # 4000c200 <_eusrstack+0x20004200>
     254:	d3f8                	sw	a4,100(a5)
		if(LL->TMR == 0) {
     256:	4000c5b7          	lui	a1,0x4000c
	while(!(RF->TXCTUNE_CO_CTRL & (1 << 25)) || !(RF->TXCTUNE_CO_CTRL & (1 << 26))) {
     25a:	4000d737          	lui	a4,0x4000d
     25e:	09072783          	lw	a5,144(a4) # 4000d090 <_eusrstack+0x20005090>
     262:	8ff1                	and	a5,a5,a2
     264:	c789                	beqz	a5,26e <RFEND_TXCTune+0x66>
     266:	09072783          	lw	a5,144(a4)
     26a:	8ff5                	and	a5,a5,a3
     26c:	e789                	bnez	a5,276 <RFEND_TXCTune+0x6e>
		if(LL->TMR == 0) {
     26e:	20058793          	addi	a5,a1,512 # 4000c200 <_eusrstack+0x20004200>
     272:	53fc                	lw	a5,100(a5)
     274:	f7ed                	bnez	a5,25e <RFEND_TXCTune+0x56>
			break;
		}
	}

	uint8_t nCO = (uint8_t)RF->TXCTUNE_CO_CTRL & 0x3f;
     276:	4000d7b7          	lui	a5,0x4000d
     27a:	0907a503          	lw	a0,144(a5) # 4000d090 <_eusrstack+0x20005090>
	uint8_t nGA = (uint8_t)(RF->TXCTUNE_GA_CTRL >> 10) & 0x7f;
     27e:	0947a783          	lw	a5,148(a5)

	// printf("nCO,nGA ch:%u idx:%u %u,%u\n", channel, channel_map[channel], nCO,nGA);

	return (nGA << 24) | nCO;
     282:	03f57513          	andi	a0,a0,63
	uint8_t nGA = (uint8_t)(RF->TXCTUNE_GA_CTRL >> 10) & 0x7f;
     286:	83a9                	srli	a5,a5,0xa
	return (nGA << 24) | nCO;
     288:	07f7f793          	andi	a5,a5,127
     28c:	07e2                	slli	a5,a5,0x18
}
     28e:	8d5d                	or	a0,a0,a5
     290:	8082                	ret

00000292 <Neo_render_colorFlashing.constprop.0>:
	systick_millis++;
}


int8_t systick_handleTimeout(uint32_t *ref_time, uint32_t duration) {
	uint32_t now = millis();
     292:	ce01a603          	lw	a2,-800(gp) # 200000dc <systick_millis>

    return led_arr[ledIdx].packed;
}

uint32_t Neo_render_colorFlashing(WS2812_frame_t* fr, animation_color_t* ani, int ledIdx) {
    if (systick_handleTimeout(&fr->ref_time, fr->frame_duration)) {
     296:	ca018693          	addi	a3,gp,-864 # 2000009c <leds_frame>
	if (now - *ref_time > duration) {
     29a:	4a98                	lw	a4,16(a3)
     29c:	42cc                	lw	a1,4(a3)
     29e:	40e60733          	sub	a4,a2,a4
     2a2:	18c18e13          	addi	t3,gp,396 # 20000588 <led_arr>
     2a6:	0ce5f763          	bgeu	a1,a4,374 <Neo_render_colorFlashing.constprop.0+0xe2>
     2aa:	ca018793          	addi	a5,gp,-864 # 2000009c <leds_frame>
void animation_step(animation_color_t* ani) {
    ani->ref_index = (ani->ref_index + 1) % ani->num_colors;
}

RGB_t animation_currentColor(animation_color_t* ani) {
    return ani->colors[ani->ref_index];
     2ae:	cb818893          	addi	a7,gp,-840 # 200000b4 <color_ani>
        fr->frame_value += 1;
     2b2:	0097c703          	lbu	a4,9(a5)
     2b6:	0058c583          	lbu	a1,5(a7)
		*ref_time = now;
     2ba:	cb90                	sw	a2,16(a5)
     2bc:	0008a603          	lw	a2,0(a7)
     2c0:	0705                	addi	a4,a4,1
     2c2:	0ff77713          	andi	a4,a4,255
     2c6:	00259313          	slli	t1,a1,0x2
     2ca:	961a                	add	a2,a2,t1
     2cc:	00e784a3          	sb	a4,9(a5)
     2d0:	00062883          	lw	a7,0(a2) # 2000000 <iSLER_mess.c.0d7236ba+0x1ffcf37>
     2d4:	00064f83          	lbu	t6,0(a2)
     2d8:	00164f03          	lbu	t5,1(a2)
     2dc:	00264e83          	lbu	t4,2(a2)
        RGB_t color = animation_currentColor(ani);

        for (int i=0; i < NR_LEDS; i++) {
            led_arr[i] = COLOR_SET_BRIGHTNESS(color, fr->frame_value);
     2e0:	0ff00613          	li	a2,255
     2e4:	02c70633          	mul	a2,a4,a2
uint32_t Neo_render_colorFlashing(WS2812_frame_t* fr, animation_color_t* ani, int ledIdx) {
     2e8:	1141                	addi	sp,sp,-16
     2ea:	c646                	sw	a7,12(sp)
     2ec:	c046                	sw	a7,0(sp)
            led_arr[i] = COLOR_SET_BRIGHTNESS(color, fr->frame_value);
     2ee:	06400893          	li	a7,100
     2f2:	18c18693          	addi	a3,gp,396 # 20000588 <led_arr>
     2f6:	018e0293          	addi	t0,t3,24
     2fa:	cb818813          	addi	a6,gp,-840 # 200000b4 <color_ani>
     2fe:	03164633          	div	a2,a2,a7
     302:	6889                	lui	a7,0x2
     304:	a8488893          	addi	a7,a7,-1404 # 1a84 <SIN_LUT>
     308:	0ff67613          	andi	a2,a2,255
     30c:	9646                	add	a2,a2,a7
     30e:	00064603          	lbu	a2,0(a2)
     312:	02cf8333          	mul	t1,t6,a2
     316:	02cf08b3          	mul	a7,t5,a2
     31a:	40835313          	srai	t1,t1,0x8
     31e:	02ce8633          	mul	a2,t4,a2
     322:	4088d893          	srai	a7,a7,0x8
     326:	8621                	srai	a2,a2,0x8
     328:	01f10023          	sb	t6,0(sp)
     32c:	01e100a3          	sb	t5,1(sp)
     330:	01d10123          	sb	t4,2(sp)
     334:	4382                	lw	t2,0(sp)
     336:	c21e                	sw	t2,4(sp)
     338:	00610223          	sb	t1,4(sp)
     33c:	011102a3          	sb	a7,5(sp)
     340:	00c10323          	sb	a2,6(sp)
     344:	4392                	lw	t2,4(sp)
     346:	0076a023          	sw	t2,0(a3) # 4000000 <iSLER_mess.c.0d7236ba+0x3ffcf37>
        for (int i=0; i < NR_LEDS; i++) {
     34a:	0691                	addi	a3,a3,4
     34c:	fcd29ee3          	bne	t0,a3,328 <Neo_render_colorFlashing.constprop.0+0x96>
        }

        if (fr->frame_value >= 100) {
     350:	06300693          	li	a3,99
     354:	00e6fb63          	bgeu	a3,a4,36a <Neo_render_colorFlashing.constprop.0+0xd8>
            fr->frame_value = 0;
     358:	000784a3          	sb	zero,9(a5)
    ani->ref_index = (ani->ref_index + 1) % ani->num_colors;
     35c:	00484783          	lbu	a5,4(a6)
     360:	0585                	addi	a1,a1,1
     362:	02f5e5b3          	rem	a1,a1,a5
     366:	00b802a3          	sb	a1,5(a6)

            animation_step(ani);
        }
    }

    return led_arr[ledIdx].packed;
     36a:	050a                	slli	a0,a0,0x2
     36c:	9572                	add	a0,a0,t3
}
     36e:	4108                	lw	a0,0(a0)
     370:	0141                	addi	sp,sp,16
     372:	8082                	ret
    return led_arr[ledIdx].packed;
     374:	050a                	slli	a0,a0,0x2
     376:	9572                	add	a0,a0,t3
}
     378:	4108                	lw	a0,0(a0)
     37a:	8082                	ret

0000037c <WS2812FillBuffSec.constprop.0>:
#define bMOSI PA14
#endif
#endif
// This is the code that updates a portion of the WS2812dmabuff with new data.
// This effectively creates the bitstream that outputs to the LEDs.
static void WS2812FillBuffSec( uint16_t * ptr, int numhalfwords, int tce )
     37c:	7159                	addi	sp,sp,-112
     37e:	d0ca                	sw	s2,96(sp)
     380:	c6de                	sw	s7,76(sp)
		0b1110111010001000, 0b1110111010001110, 0b1110111011101000, 0b1110111011101110, };
#endif

	int i;
	uint16_t * end = ptr + numhalfwords;
	int ledcount = WS2812LEDs;
     382:	cd01ab83          	lw	s7,-816(gp) # 200000cc <WS2812LEDs>
	int place = WS2812LEDPlace;
     386:	ccc18793          	addi	a5,gp,-820 # 200000c8 <WS2812LEDPlace>
     38a:	439c                	lw	a5,0(a5)
static void WS2812FillBuffSec( uint16_t * ptr, int numhalfwords, int tce )
     38c:	cece                	sw	s3,92(sp)
     38e:	d2a6                	sw	s1,100(sp)
     390:	c0ea                	sw	s10,64(sp)
	int place = WS2812LEDPlace;
     392:	12c18493          	addi	s1,gp,300 # 20000528 <WS2812dmabuff>
static void WS2812FillBuffSec( uint16_t * ptr, int numhalfwords, int tce )
     396:	d686                	sw	ra,108(sp)
     398:	d4a2                	sw	s0,104(sp)
     39a:	ccd2                	sw	s4,88(sp)
     39c:	cad6                	sw	s5,84(sp)
     39e:	c8da                	sw	s6,80(sp)
     3a0:	c4e2                	sw	s8,72(sp)
     3a2:	c2e6                	sw	s9,68(sp)
     3a4:	de6e                	sw	s11,60(sp)
     3a6:	c62a                	sw	a0,12(sp)
     3a8:	00878d13          	addi	s10,a5,8
     3ac:	ccc18913          	addi	s2,gp,-820 # 200000c8 <WS2812LEDPlace>
     3b0:	12c18993          	addi	s3,gp,300 # 20000528 <WS2812dmabuff>
		ptr += 8;
		place++;
	}

#else
	while( place < 0 && ptr != end )
     3b4:	0607cf63          	bltz	a5,432 <WS2812FillBuffSec.constprop.0+0xb6>
     3b8:	18c18693          	addi	a3,gp,396 # 20000588 <led_arr>
     3bc:	00279713          	slli	a4,a5,0x2
    color_ani.ref_index = 0;
    ARRAY_SET_VALUE(led_arr, 0);
}

uint32_t WS2812BLEDCallback(int ledIdx){
    leds_frame.frame_duration = 70;
     3c0:	6a89                	lui	s5,0x2
        led_arr[fr->ref_index] = COLOR_SET_BRIGHTNESS(color, fr->frame_value);
     3c2:	6b09                	lui	s6,0x2
     3c4:	00e68a33          	add	s4,a3,a4
     3c8:	8d3e                	mv	s10,a5
     3ca:	18c18d93          	addi	s11,gp,396 # 20000588 <led_arr>
    leds_frame.frame_duration = 70;
     3ce:	ca018413          	addi	s0,gp,-864 # 2000009c <leds_frame>
     3d2:	9e4a8a93          	addi	s5,s5,-1564 # 19e4 <LLE_IRQHandler+0xbe>
    return ani->colors[ani->ref_index];
     3d6:	cb818c93          	addi	s9,gp,-840 # 200000b4 <color_ani>
        led_arr[fr->ref_index] = COLOR_SET_BRIGHTNESS(color, fr->frame_value);
     3da:	a84b0b13          	addi	s6,s6,-1404 # 1a84 <SIN_LUT>
		(*ptr++) = 0;
		place++;
	}
#endif

	while( ptr != end )
     3de:	06098613          	addi	a2,s3,96
     3e2:	04c48a63          	beq	s1,a2,436 <WS2812FillBuffSec.constprop.0+0xba>
	{
		if( place >= ledcount )
     3e6:	077d4963          	blt	s10,s7,458 <WS2812FillBuffSec.constprop.0+0xdc>
		{
			// Optionally, leave line high.
			while( ptr != end )
				(*ptr++) = 0;//0xffff;
     3ea:	8e05                	sub	a2,a2,s1
     3ec:	4581                	li	a1,0
     3ee:	8526                	mv	a0,s1
     3f0:	792000ef          	jal	ra,b82 <memset>

			// Only safe to do this when we're on the second leg.
			if( tce )
     3f4:	47b2                	lw	a5,12(sp)
     3f6:	c3a1                	beqz	a5,436 <WS2812FillBuffSec.constprop.0+0xba>
			{
				if( place == ledcount )
     3f8:	01ab9c63          	bne	s7,s10,410 <WS2812FillBuffSec.constprop.0+0x94>
				{
					// Take the DMA out of circular mode and let it expire.
#ifdef CH5xx
					R8_SPI0_INTER_EN &= ~RB_SPI_IE_DMA_END;  // Disable DMA end interrupt
     3fc:	40004737          	lui	a4,0x40004
     400:	00274783          	lbu	a5,2(a4) # 40004002 <_eusrstack+0x1fffc002>
     404:	0f77f793          	andi	a5,a5,247
     408:	00f70123          	sb	a5,2(a4)
#else
					DMA1_Channel3->CFGR &= ~DMA_Mode_Circular;
#endif
					WS2812BLEDInUse = 0;
     40c:	cc01a423          	sw	zero,-824(gp) # 200000c4 <WS2812BLEDInUse>
				}
				place++;
     410:	0d05                	addi	s10,s10,1
     412:	a015                	j	436 <WS2812FillBuffSec.constprop.0+0xba>
		(*ptr++) = 0;
     414:	00049023          	sh	zero,0(s1)
		(*ptr++) = 0;
     418:	00049123          	sh	zero,2(s1)
		(*ptr++) = 0;
     41c:	00049223          	sh	zero,4(s1)
		(*ptr++) = 0;
     420:	00049323          	sh	zero,6(s1)
		(*ptr++) = 0;
     424:	00049423          	sh	zero,8(s1)
		place++;
     428:	0785                	addi	a5,a5,1
     42a:	04b1                	addi	s1,s1,12
		(*ptr++) = 0;
     42c:	fe049f23          	sh	zero,-2(s1)
     430:	b751                	j	3b4 <WS2812FillBuffSec.constprop.0+0x38>
	while( place < 0 && ptr != end )
     432:	ffa791e3          	bne	a5,s10,414 <WS2812FillBuffSec.constprop.0+0x98>
		i += 6;
#endif

	}
	WS2812LEDPlace = place;
}
     436:	50b6                	lw	ra,108(sp)
     438:	5426                	lw	s0,104(sp)
	WS2812LEDPlace = place;
     43a:	01a92023          	sw	s10,0(s2)
}
     43e:	5496                	lw	s1,100(sp)
     440:	5906                	lw	s2,96(sp)
     442:	49f6                	lw	s3,92(sp)
     444:	4a66                	lw	s4,88(sp)
     446:	4ad6                	lw	s5,84(sp)
     448:	4b46                	lw	s6,80(sp)
     44a:	4bb6                	lw	s7,76(sp)
     44c:	4c26                	lw	s8,72(sp)
     44e:	4c96                	lw	s9,68(sp)
     450:	4d06                	lw	s10,64(sp)
     452:	5df2                	lw	s11,60(sp)
     454:	6165                	addi	sp,sp,112
     456:	8082                	ret
    leds_frame.frame_duration = 70;
     458:	04600793          	li	a5,70
     45c:	c05c                	sw	a5,4(s0)
     45e:	cb41c783          	lbu	a5,-844(gp) # 200000b0 <Neo_LedCmd>
     462:	4711                	li	a4,4
		uint32_t ledval24bit = WS2812BLEDCallback( place++ );
     464:	001d0c13          	addi	s8,s10,1
     468:	17fd                	addi	a5,a5,-1
     46a:	0ff7f793          	andi	a5,a5,255
     46e:	2ef76e63          	bltu	a4,a5,76a <WS2812FillBuffSec.constprop.0+0x3ee>
     472:	078a                	slli	a5,a5,0x2
     474:	97d6                	add	a5,a5,s5
     476:	439c                	lw	a5,0(a5)
     478:	8782                	jr	a5
	uint32_t now = millis();
     47a:	ce01a703          	lw	a4,-800(gp) # 200000dc <systick_millis>
	if (now - *ref_time > duration) {
     47e:	481c                	lw	a5,16(s0)
     480:	04600613          	li	a2,70
     484:	40f707b3          	sub	a5,a4,a5
     488:	04f67463          	bgeu	a2,a5,4d0 <WS2812FillBuffSec.constprop.0+0x154>
		*ref_time = now;
     48c:	c818                	sw	a4,16(s0)
     48e:	85ee                	mv	a1,s11
        for (int i=0; i < NR_LEDS; i++) {
     490:	4601                	li	a2,0
}

RGB_t animation_colorAt(animation_color_t* ani, uint8_t steps, uint8_t index) {
    return ani->colors[(index/steps) % ani->num_colors];
     492:	4895                	li	a7,5
     494:	4819                	li	a6,6
            led_arr[i] = animation_colorAt(ani, 5, i+fr->ref_index);
     496:	00e44703          	lbu	a4,14(s0)
     49a:	004cc503          	lbu	a0,4(s9)
     49e:	00c707b3          	add	a5,a4,a2
     4a2:	0ff7f793          	andi	a5,a5,255
     4a6:	0317d7b3          	divu	a5,a5,a7
        for (int i=0; i < NR_LEDS; i++) {
     4aa:	0605                	addi	a2,a2,1
     4ac:	02a7e7b3          	rem	a5,a5,a0
     4b0:	000ca503          	lw	a0,0(s9)
     4b4:	078a                	slli	a5,a5,0x2
     4b6:	97aa                	add	a5,a5,a0
     4b8:	439c                	lw	a5,0(a5)
            led_arr[i] = animation_colorAt(ani, 5, i+fr->ref_index);
     4ba:	c19c                	sw	a5,0(a1)
     4bc:	cc3e                	sw	a5,24(sp)
     4be:	d23e                	sw	a5,36(sp)
        for (int i=0; i < NR_LEDS; i++) {
     4c0:	0591                	addi	a1,a1,4
     4c2:	fd061ae3          	bne	a2,a6,496 <WS2812FillBuffSec.constprop.0+0x11a>
        fr->ref_index += fr->frame_step;
     4c6:	00844783          	lbu	a5,8(s0)
     4ca:	973e                	add	a4,a4,a5
     4cc:	00e40723          	sb	a4,14(s0)
    return led_arr[ledIdx].packed;
     4d0:	000a2503          	lw	a0,0(s4)
		ptr[0] = bitquartets[(ledval24bit>>12)&0xf];
     4d4:	6709                	lui	a4,0x2
     4d6:	00b55793          	srli	a5,a0,0xb
     4da:	b8470713          	addi	a4,a4,-1148 # 1b84 <bitquartets.0>
     4de:	8bf9                	andi	a5,a5,30
     4e0:	97ba                	add	a5,a5,a4
     4e2:	0007d783          	lhu	a5,0(a5)
		ptr += 6;
     4e6:	04b1                	addi	s1,s1,12
     4e8:	0a11                	addi	s4,s4,4
		ptr[0] = bitquartets[(ledval24bit>>12)&0xf];
     4ea:	fef49a23          	sh	a5,-12(s1)
		ptr[1] = bitquartets[(ledval24bit>>8)&0xf];
     4ee:	00755793          	srli	a5,a0,0x7
     4f2:	8bf9                	andi	a5,a5,30
     4f4:	97ba                	add	a5,a5,a4
     4f6:	0007d783          	lhu	a5,0(a5)
		uint32_t ledval24bit = WS2812BLEDCallback( place++ );
     4fa:	8d62                	mv	s10,s8
		ptr[1] = bitquartets[(ledval24bit>>8)&0xf];
     4fc:	fef49b23          	sh	a5,-10(s1)
		ptr[2] = bitquartets[(ledval24bit>>4)&0xf];
     500:	00355793          	srli	a5,a0,0x3
     504:	8bf9                	andi	a5,a5,30
     506:	97ba                	add	a5,a5,a4
     508:	0007d783          	lhu	a5,0(a5)
     50c:	fef49c23          	sh	a5,-8(s1)
		ptr[3] = bitquartets[(ledval24bit>>0)&0xf];
     510:	00f57793          	andi	a5,a0,15
     514:	0786                	slli	a5,a5,0x1
     516:	97ba                	add	a5,a5,a4
     518:	0007d783          	lhu	a5,0(a5)
     51c:	fef49d23          	sh	a5,-6(s1)
		ptr[4] = bitquartets[(ledval24bit>>20)&0xf];
     520:	01355793          	srli	a5,a0,0x13
     524:	8bf9                	andi	a5,a5,30
     526:	97ba                	add	a5,a5,a4
     528:	0007d783          	lhu	a5,0(a5)
     52c:	fef49e23          	sh	a5,-4(s1)
		ptr[5] = bitquartets[(ledval24bit>>16)&0xf];
     530:	00f55793          	srli	a5,a0,0xf
     534:	8bf9                	andi	a5,a5,30
     536:	97ba                	add	a5,a5,a4
     538:	0007d783          	lhu	a5,0(a5)
     53c:	fef49f23          	sh	a5,-2(s1)
     540:	bd79                	j	3de <WS2812FillBuffSec.constprop.0+0x62>
	uint32_t now = millis();
     542:	ce01a703          	lw	a4,-800(gp) # 200000dc <systick_millis>
	if (now - *ref_time > duration) {
     546:	481c                	lw	a5,16(s0)
     548:	04600613          	li	a2,70
     54c:	40f707b3          	sub	a5,a4,a5
     550:	f8f670e3          	bgeu	a2,a5,4d0 <WS2812FillBuffSec.constprop.0+0x154>
        led_arr[fr->prev_index] = COLOR_BLACK;       // Turn off previous LED
     554:	00d44783          	lbu	a5,13(s0)
		*ref_time = now;
     558:	c818                	sw	a4,16(s0)
    return ani->colors[ani->ref_index];
     55a:	005cc703          	lbu	a4,5(s9)
     55e:	000ca603          	lw	a2,0(s9)
     562:	078a                	slli	a5,a5,0x2
     564:	97ee                	add	a5,a5,s11
     566:	0007a023          	sw	zero,0(a5)
     56a:	00271593          	slli	a1,a4,0x2
        led_arr[fr->ref_index] = animation_currentColor(ani);
     56e:	00e44783          	lbu	a5,14(s0)
     572:	962e                	add	a2,a2,a1
     574:	420c                	lw	a1,0(a2)
     576:	00279613          	slli	a2,a5,0x2
     57a:	966e                	add	a2,a2,s11
     57c:	c20c                	sw	a1,0(a2)
        uint8_t next_idx = fr->ref_index + fr->frame_step;
     57e:	00844603          	lbu	a2,8(s0)
        fr->prev_index = fr->ref_index;
     582:	00f406a3          	sb	a5,13(s0)
     586:	ce2e                	sw	a1,28(sp)
        uint8_t next_idx = fr->ref_index + fr->frame_step;
     588:	97b2                	add	a5,a5,a2
     58a:	0ff7f793          	andi	a5,a5,255
        fr->ref_index = next_idx % NR_LEDS;
     58e:	4619                	li	a2,6
     590:	02c7f633          	remu	a2,a5,a2
     594:	d22e                	sw	a1,36(sp)
     596:	00c40723          	sb	a2,14(s0)
        if (next_idx >= NR_LEDS) animation_step(ani);
     59a:	4615                	li	a2,5
     59c:	f2f67ae3          	bgeu	a2,a5,4d0 <WS2812FillBuffSec.constprop.0+0x154>
    ani->ref_index = (ani->ref_index + 1) % ani->num_colors;
     5a0:	004cc783          	lbu	a5,4(s9)
     5a4:	0705                	addi	a4,a4,1
     5a6:	02f76733          	rem	a4,a4,a5
     5aa:	00ec82a3          	sb	a4,5(s9)
     5ae:	b70d                	j	4d0 <WS2812FillBuffSec.constprop.0+0x154>
	uint32_t now = millis();
     5b0:	ce01a703          	lw	a4,-800(gp) # 200000dc <systick_millis>
	if (now - *ref_time > duration) {
     5b4:	481c                	lw	a5,16(s0)
     5b6:	04600613          	li	a2,70
     5ba:	40f707b3          	sub	a5,a4,a5
     5be:	f0f679e3          	bgeu	a2,a5,4d0 <WS2812FillBuffSec.constprop.0+0x154>
		*ref_time = now;
     5c2:	c818                	sw	a4,16(s0)
     5c4:	856e                	mv	a0,s11
        for (int i = 0; i < NR_LEDS; i++) {
     5c6:	4701                	li	a4,0
            led_arr[i] = COLOR_DECREMENT(color, diff*49);       // Triangular diff growth
     5c8:	03100893          	li	a7,49
     5cc:	f9c00313          	li	t1,-100
     5d0:	06400e13          	li	t3,100
        for (int i = 0; i < NR_LEDS; i++) {
     5d4:	4f99                	li	t6,6
    return ani->colors[ani->ref_index];
     5d6:	005cc583          	lbu	a1,5(s9)
     5da:	000ca783          	lw	a5,0(s9)
            uint8_t diff = fr->ref_index - i;
     5de:	00e44603          	lbu	a2,14(s0)
     5e2:	00259813          	slli	a6,a1,0x2
     5e6:	97c2                	add	a5,a5,a6
     5e8:	0007c283          	lbu	t0,0(a5)
     5ec:	0017c383          	lbu	t2,1(a5)
     5f0:	0027c803          	lbu	a6,2(a5)
     5f4:	40e607b3          	sub	a5,a2,a4
            led_arr[i] = COLOR_DECREMENT(color, diff*49);       // Triangular diff growth
     5f8:	0ff7f793          	andi	a5,a5,255
     5fc:	02f28eb3          	mul	t4,t0,a5
     600:	4f01                	li	t5,0
     602:	031e8eb3          	mul	t4,t4,a7
     606:	026ecd33          	div	s10,t4,t1
     60a:	9d16                	add	s10,s10,t0
     60c:	000d4863          	bltz	s10,61c <WS2812FillBuffSec.constprop.0+0x2a0>
     610:	03cecf33          	div	t5,t4,t3
     614:	41e28f33          	sub	t5,t0,t5
     618:	0fff7f13          	andi	t5,t5,255
     61c:	027782b3          	mul	t0,a5,t2
     620:	4e81                	li	t4,0
     622:	031282b3          	mul	t0,t0,a7
     626:	0262cd33          	div	s10,t0,t1
     62a:	9d1e                	add	s10,s10,t2
     62c:	000d4863          	bltz	s10,63c <WS2812FillBuffSec.constprop.0+0x2c0>
     630:	03c2ceb3          	div	t4,t0,t3
     634:	41d38eb3          	sub	t4,t2,t4
     638:	0ffefe93          	andi	t4,t4,255
     63c:	030787b3          	mul	a5,a5,a6
     640:	4381                	li	t2,0
     642:	031787b3          	mul	a5,a5,a7
     646:	0267c2b3          	div	t0,a5,t1
     64a:	92c2                	add	t0,t0,a6
     64c:	0002c863          	bltz	t0,65c <WS2812FillBuffSec.constprop.0+0x2e0>
     650:	03c7c7b3          	div	a5,a5,t3
     654:	40f807b3          	sub	a5,a6,a5
     658:	0ff7f393          	andi	t2,a5,255
     65c:	00271293          	slli	t0,a4,0x2
     660:	92ee                	add	t0,t0,s11
     662:	0002a023          	sw	zero,0(t0)
     666:	01e50023          	sb	t5,0(a0)
     66a:	01d500a3          	sb	t4,1(a0)
     66e:	00750123          	sb	t2,2(a0)
        for (int i = 0; i < NR_LEDS; i++) {
     672:	0705                	addi	a4,a4,1
     674:	0511                	addi	a0,a0,4
     676:	f7f710e3          	bne	a4,t6,5d6 <WS2812FillBuffSec.constprop.0+0x25a>
        uint8_t next_increment = fr->ref_index + fr->frame_step;
     67a:	00844783          	lbu	a5,8(s0)
     67e:	97b2                	add	a5,a5,a2
     680:	0ff7f793          	andi	a5,a5,255
        fr->ref_index = next_increment % NR_LEDS;
     684:	02e7f733          	remu	a4,a5,a4
     688:	00e40723          	sb	a4,14(s0)
        if (next_increment >= NR_LEDS) {
     68c:	4715                	li	a4,5
     68e:	e4f771e3          	bgeu	a4,a5,4d0 <WS2812FillBuffSec.constprop.0+0x154>
    ani->ref_index = (ani->ref_index + 1) % ani->num_colors;
     692:	004cc783          	lbu	a5,4(s9)
     696:	0585                	addi	a1,a1,1
     698:	02f5e5b3          	rem	a1,a1,a5
     69c:	00bc82a3          	sb	a1,5(s9)
     6a0:	bd05                	j	4d0 <WS2812FillBuffSec.constprop.0+0x154>
	uint32_t now = millis();
     6a2:	ce01a703          	lw	a4,-800(gp) # 200000dc <systick_millis>
	if (now - *ref_time > duration) {
     6a6:	481c                	lw	a5,16(s0)
            break;
        case NEO_COLOR_FADE:
            return Neo_render_colorFade(&leds_frame, &color_ani, ledIdx);
            break;
        case NEO_SOLO_COLOR_FADE:
            leds_frame.frame_duration = 10;
     6a8:	4629                	li	a2,10
     6aa:	c050                	sw	a2,4(s0)
     6ac:	40f707b3          	sub	a5,a4,a5
     6b0:	e2f670e3          	bgeu	a2,a5,4d0 <WS2812FillBuffSec.constprop.0+0x154>
		*ref_time = now;
     6b4:	c818                	sw	a4,16(s0)
        fr->frame_value += 3;
     6b6:	00944703          	lbu	a4,9(s0)
    return ani->colors[ani->ref_index];
     6ba:	005cc603          	lbu	a2,5(s9)
     6be:	000ca783          	lw	a5,0(s9)
     6c2:	070d                	addi	a4,a4,3
     6c4:	0ff77713          	andi	a4,a4,255
     6c8:	00261593          	slli	a1,a2,0x2
     6cc:	97ae                	add	a5,a5,a1
     6ce:	00e404a3          	sb	a4,9(s0)
     6d2:	0007a883          	lw	a7,0(a5)
     6d6:	0007c503          	lbu	a0,0(a5)
     6da:	0017c583          	lbu	a1,1(a5)
     6de:	0027c803          	lbu	a6,2(a5)
        led_arr[fr->ref_index] = COLOR_SET_BRIGHTNESS(color, fr->frame_value);
     6e2:	0ff00793          	li	a5,255
     6e6:	02f707b3          	mul	a5,a4,a5
     6ea:	d246                	sw	a7,36(sp)
     6ec:	d646                	sw	a7,44(sp)
     6ee:	d046                	sw	a7,32(sp)
     6f0:	06400893          	li	a7,100
     6f4:	0317c7b3          	div	a5,a5,a7
     6f8:	0ff7f793          	andi	a5,a5,255
     6fc:	97da                	add	a5,a5,s6
     6fe:	0007c783          	lbu	a5,0(a5)
     702:	02f50533          	mul	a0,a0,a5
     706:	02f585b3          	mul	a1,a1,a5
     70a:	8521                	srai	a0,a0,0x8
     70c:	02a10223          	sb	a0,36(sp)
     710:	02f807b3          	mul	a5,a6,a5
     714:	85a1                	srai	a1,a1,0x8
     716:	02b102a3          	sb	a1,37(sp)
     71a:	87a1                	srai	a5,a5,0x8
     71c:	02f10323          	sb	a5,38(sp)
     720:	00e44783          	lbu	a5,14(s0)
     724:	5512                	lw	a0,36(sp)
     726:	00279593          	slli	a1,a5,0x2
     72a:	95ee                	add	a1,a1,s11
     72c:	c188                	sw	a0,0(a1)
     72e:	d42a                	sw	a0,40(sp)
        if (fr->frame_value >= 100) {
     730:	06300593          	li	a1,99
     734:	d8e5fee3          	bgeu	a1,a4,4d0 <WS2812FillBuffSec.constprop.0+0x154>
            uint8_t next_idx = fr->ref_index + fr->frame_step;
     738:	00844703          	lbu	a4,8(s0)
            fr->frame_value = 0;
     73c:	000404a3          	sb	zero,9(s0)
            uint8_t next_idx = fr->ref_index + fr->frame_step;
     740:	97ba                	add	a5,a5,a4
     742:	0ff7f793          	andi	a5,a5,255
            fr->ref_index = next_idx % NR_LEDS;
     746:	4719                	li	a4,6
     748:	02e7f733          	remu	a4,a5,a4
     74c:	00e40723          	sb	a4,14(s0)
            if (next_idx >= NR_LEDS) {
     750:	4715                	li	a4,5
     752:	d6f77fe3          	bgeu	a4,a5,4d0 <WS2812FillBuffSec.constprop.0+0x154>
    ani->ref_index = (ani->ref_index + 1) % ani->num_colors;
     756:	004cc783          	lbu	a5,4(s9)
     75a:	0605                	addi	a2,a2,1
     75c:	02f66633          	rem	a2,a2,a5
     760:	00cc82a3          	sb	a2,5(s9)
     764:	b3b5                	j	4d0 <WS2812FillBuffSec.constprop.0+0x154>
            return Neo_render_soloColorFade(&leds_frame, &color_ani, ledIdx);
            break;
        case NEO_COLOR_FLASHING:
            leds_frame.frame_duration = 10;
     766:	47a9                	li	a5,10
     768:	c05c                	sw	a5,4(s0)
            return Neo_render_colorFlashing(&leds_frame, &color_ani, ledIdx);
            break;
        default:
            return Neo_render_colorFlashing(&leds_frame, &color_ani, ledIdx);
     76a:	856a                	mv	a0,s10
     76c:	361d                	jal	292 <Neo_render_colorFlashing.constprop.0>
     76e:	b39d                	j	4d4 <WS2812FillBuffSec.constprop.0+0x158>

00000770 <DelaySysTick.constprop.0>:
{
#if defined(CH32V003) || defined(CH32V00x)
	uint32_t targend = SysTick->CNT + n;
	while( ((int32_t)( SysTick->CNT - targend )) < 0 );
#elif defined(CH32V20x) || defined(CH32V30x) || defined(CH32X03x) || defined(CH582_CH583) || defined(CH591_CH592)
	uint64_t targend = SysTick->CNT + n;
     770:	e000f7b7          	lui	a5,0xe000f
     774:	4794                	lw	a3,8(a5)
     776:	47d8                	lw	a4,12(a5)
     778:	0003c7b7          	lui	a5,0x3c
     77c:	6cc78793          	addi	a5,a5,1740 # 3c6cc <iSLER_mess.c.0d7236ba+0x39603>
     780:	97b6                	add	a5,a5,a3
     782:	00d7b633          	sltu	a2,a5,a3
     786:	963a                	add	a2,a2,a4
	while( ((int64_t)( SysTick->CNT - targend )) < 0 );
     788:	e000f837          	lui	a6,0xe000f
     78c:	00882503          	lw	a0,8(a6) # e000f008 <_eusrstack+0xc0007008>
     790:	00c82583          	lw	a1,12(a6)
     794:	40f50733          	sub	a4,a0,a5
     798:	00e536b3          	sltu	a3,a0,a4
     79c:	40c58733          	sub	a4,a1,a2
     7a0:	8f15                	sub	a4,a4,a3
     7a2:	fe0745e3          	bltz	a4,78c <DelaySysTick.constprop.0+0x1c>
	uint64_t targend = SysTick->CNT - n;
	while( ((int64_t)( SysTick->CNT - targend )) > 0 );
#else
	#error DelaySysTick not defined.
#endif
}
     7a6:	8082                	ret

000007a8 <blink>:
	.msgCode = 0xC1C2,
	.dest = {0xD1, 0xD2, 0xD3, 0xD4, 0xD5, 0xD6},
	.group_id = 0x55,
};

void blink(int n) {
     7a8:	1141                	addi	sp,sp,-16
     7aa:	c422                	sw	s0,8(sp)
     7ac:	c226                	sw	s1,4(sp)
     7ae:	c04a                	sw	s2,0(sp)
     7b0:	c606                	sw	ra,12(sp)
	for(int i = n-1; i >= 0; i--) {
     7b2:	fff50413          	addi	s0,a0,-1
		funDigitalWrite( LED, FUN_LOW ); // Turn on LED
     7b6:	400014b7          	lui	s1,0x40001
	for(int i = n-1; i >= 0; i--) {
     7ba:	597d                	li	s2,-1
		funDigitalWrite( LED, FUN_LOW ); // Turn on LED
     7bc:	0ac4a783          	lw	a5,172(s1) # 400010ac <_eusrstack+0x1fff90ac>
     7c0:	1007e793          	ori	a5,a5,256
     7c4:	0af4a623          	sw	a5,172(s1)
		Delay_Ms(33);
     7c8:	3765                	jal	770 <DelaySysTick.constprop.0>
		funDigitalWrite( LED, FUN_HIGH ); // Turn off LED
     7ca:	0a84a783          	lw	a5,168(s1)
     7ce:	1007e793          	ori	a5,a5,256
     7d2:	0af4a423          	sw	a5,168(s1)
		if(i) Delay_Ms(33);
     7d6:	c011                	beqz	s0,7da <blink+0x32>
     7d8:	3f61                	jal	770 <DelaySysTick.constprop.0>
	for(int i = n-1; i >= 0; i--) {
     7da:	147d                	addi	s0,s0,-1
     7dc:	ff2410e3          	bne	s0,s2,7bc <blink+0x14>
	}
}
     7e0:	40b2                	lw	ra,12(sp)
     7e2:	4422                	lw	s0,8(sp)
     7e4:	4492                	lw	s1,4(sp)
     7e6:	4902                	lw	s2,0(sp)
     7e8:	0141                	addi	sp,sp,16
     7ea:	8082                	ret

000007ec <internal_handle_input.constprop.0>:
	uint32_t dmd0 = *dmdata0;
     7ec:	e00007b7          	lui	a5,0xe0000
     7f0:	3807a783          	lw	a5,896(a5) # e0000380 <_eusrstack+0xbfff8380>
}
     7f4:	8082                	ret

000007f6 <_write.constprop.0>:
	if( ( *DMDATA0 & 0xc0 ) == 0xc0 ) return 0;
     7f6:	e0000737          	lui	a4,0xe0000
     7fa:	38072783          	lw	a5,896(a4) # e0000380 <_eusrstack+0xbfff8380>
WEAK int _write(int fd, const char *buf, int size)
     7fe:	7139                	addi	sp,sp,-64
     800:	de06                	sw	ra,60(sp)
     802:	dc22                	sw	s0,56(sp)
     804:	da26                	sw	s1,52(sp)
     806:	d84a                	sw	s2,48(sp)
     808:	d64e                	sw	s3,44(sp)
     80a:	d452                	sw	s4,40(sp)
     80c:	d256                	sw	s5,36(sp)
     80e:	d05a                	sw	s6,32(sp)
     810:	ce5e                	sw	s7,28(sp)
     812:	cc62                	sw	s8,24(sp)
     814:	ca66                	sw	s9,20(sp)
	if( ( *DMDATA0 & 0xc0 ) == 0xc0 ) return 0;
     816:	0c07f793          	andi	a5,a5,192
     81a:	0c000693          	li	a3,192
     81e:	0ad78a63          	beq	a5,a3,8d2 <_write.constprop.0+0xdc>
	char buffer[4] = { 0 };
     822:	c602                	sw	zero,12(sp)
     824:	842e                	mv	s0,a1
	if( size == 0 )
     826:	e9c5                	bnez	a1,8d6 <_write.constprop.0+0xe0>
		lastdmd = (*DMDATA0);
     828:	38072783          	lw	a5,896(a4)
		if( lastdmd && !(lastdmd&0x80) ) internal_handle_input( (uint32_t*)DMDATA0 );
     82c:	c789                	beqz	a5,836 <_write.constprop.0+0x40>
     82e:	0807f793          	andi	a5,a5,128
     832:	e391                	bnez	a5,836 <_write.constprop.0+0x40>
     834:	3f65                	jal	7ec <internal_handle_input.constprop.0>
}
     836:	50f2                	lw	ra,60(sp)
     838:	8522                	mv	a0,s0
     83a:	5462                	lw	s0,56(sp)
     83c:	54d2                	lw	s1,52(sp)
     83e:	5942                	lw	s2,48(sp)
     840:	59b2                	lw	s3,44(sp)
     842:	5a22                	lw	s4,40(sp)
     844:	5a92                	lw	s5,36(sp)
     846:	5b02                	lw	s6,32(sp)
     848:	4bf2                	lw	s7,28(sp)
     84a:	4c62                	lw	s8,24(sp)
     84c:	4cd2                	lw	s9,20(sp)
     84e:	6121                	addi	sp,sp,64
     850:	8082                	ret
		int tosend = size - place;
     852:	40940cb3          	sub	s9,s0,s1
     856:	8966                	mv	s2,s9
     858:	019ad363          	bge	s5,s9,85e <_write.constprop.0+0x68>
     85c:	491d                	li	s2,7
     85e:	001b0793          	addi	a5,s6,1
		while( ( lastdmd = (*DMDATA0) ) & 0x80 )
     862:	380a2703          	lw	a4,896(s4)
     866:	380a0693          	addi	a3,s4,896
     86a:	08077613          	andi	a2,a4,128
     86e:	ee21                	bnez	a2,8c6 <_write.constprop.0+0xd0>
		if( lastdmd ) internal_handle_input( (uint32_t*)DMDATA0 );
     870:	c311                	beqz	a4,874 <_write.constprop.0+0x7e>
     872:	3fad                	jal	7ec <internal_handle_input.constprop.0>
			buffer[t-3] = buf[t+place];
     874:	4601                	li	a2,0
     876:	019bd463          	bge	s7,s9,87e <_write.constprop.0+0x88>
     87a:	ffd90613          	addi	a2,s2,-3
     87e:	00348593          	addi	a1,s1,3
     882:	95ce                	add	a1,a1,s3
     884:	0068                	addi	a0,sp,12
     886:	2639                	jal	b94 <memcpy>
		*DMDATA1 = *(uint32_t*)&(buffer[0]);
     888:	47b2                	lw	a5,12(sp)
     88a:	00998733          	add	a4,s3,s1
     88e:	38fa2223          	sw	a5,900(s4)
		t = 0;
     892:	4781                	li	a5,0
			buffer[t+1] = buf[t+place];
     894:	00074603          	lbu	a2,0(a4)
     898:	0785                	addi	a5,a5,1
     89a:	0074                	addi	a3,sp,12
     89c:	96be                	add	a3,a3,a5
     89e:	00c68023          	sb	a2,0(a3)
		while( t < tosend && t < 3 )
     8a2:	00f90563          	beq	s2,a5,8ac <_write.constprop.0+0xb6>
     8a6:	0705                	addi	a4,a4,1
     8a8:	ff8796e3          	bne	a5,s8,894 <_write.constprop.0+0x9e>
		buffer[0] = 0x80 | (tosend + 4);
     8ac:	00490793          	addi	a5,s2,4
     8b0:	f807e793          	ori	a5,a5,-128
     8b4:	00f10623          	sb	a5,12(sp)
		*DMDATA0 = *(uint32_t*)&(buffer[0]);
     8b8:	47b2                	lw	a5,12(sp)
		place += tosend;
     8ba:	94ca                	add	s1,s1,s2
		*DMDATA0 = *(uint32_t*)&(buffer[0]);
     8bc:	38fa2023          	sw	a5,896(s4)
	while( place < size )
     8c0:	f884c9e3          	blt	s1,s0,852 <_write.constprop.0+0x5c>
     8c4:	bf8d                	j	836 <_write.constprop.0+0x40>
			if( timeout-- == 0 )
     8c6:	17fd                	addi	a5,a5,-1
     8c8:	ffc9                	bnez	a5,862 <_write.constprop.0+0x6c>
				*DMDATA0 |= 0xc0;
     8ca:	429c                	lw	a5,0(a3)
     8cc:	0c07e793          	ori	a5,a5,192
     8d0:	c29c                	sw	a5,0(a3)
	if( ( *DMDATA0 & 0xc0 ) == 0xc0 ) return 0;
     8d2:	4401                	li	s0,0
     8d4:	b78d                	j	836 <_write.constprop.0+0x40>
     8d6:	89aa                	mv	s3,a0
	if( size == 0 )
     8d8:	4481                	li	s1,0
     8da:	4a9d                	li	s5,7
		int tosend = size - place;
     8dc:	00100b37          	lui	s6,0x100
		while( ( lastdmd = (*DMDATA0) ) & 0x80 )
     8e0:	e0000a37          	lui	s4,0xe0000
			buffer[t-3] = buf[t+place];
     8e4:	4b89                	li	s7,2
		while( t < tosend && t < 3 )
     8e6:	4c0d                	li	s8,3
     8e8:	bfe1                	j	8c0 <_write.constprop.0+0xca>

000008ea <__puts_uart>:
{
     8ea:	1141                	addi	sp,sp,-16
     8ec:	c422                	sw	s0,8(sp)
     8ee:	c606                	sw	ra,12(sp)
     8f0:	842e                	mv	s0,a1
	_write( 0, s, len );
     8f2:	3711                	jal	7f6 <_write.constprop.0>
}
     8f4:	40b2                	lw	ra,12(sp)
     8f6:	8522                	mv	a0,s0
     8f8:	4422                	lw	s0,8(sp)
     8fa:	0141                	addi	sp,sp,16
     8fc:	8082                	ret

000008fe <handle_reset>:
	asm volatile( "\n\
     8fe:	20000197          	auipc	gp,0x20000
     902:	afe18193          	addi	gp,gp,-1282 # 200003fc <__global_pointer$>
     906:	20007117          	auipc	sp,0x20007
     90a:	6fa10113          	addi	sp,sp,1786 # 20008000 <_eusrstack>
	asm volatile(
     90e:	cc818513          	addi	a0,gp,-824 # 200000c4 <WS2812BLEDInUse>
     912:	1b018593          	addi	a1,gp,432 # 200005ac <_ebss>
     916:	00b57763          	bgeu	a0,a1,924 <handle_reset+0x26>
     91a:	00052023          	sw	zero,0(a0)
     91e:	0511                	addi	a0,a0,4
     920:	feb56de3          	bltu	a0,a1,91a <handle_reset+0x1c>
     924:	00001517          	auipc	a0,0x1
     928:	2a850513          	addi	a0,a0,680 # 1bcc <_data_lma>
     92c:	c0418593          	addi	a1,gp,-1020 # 20000000 <color_arr>
     930:	cc818613          	addi	a2,gp,-824 # 200000c4 <WS2812BLEDInUse>
     934:	00c58a63          	beq	a1,a2,948 <handle_reset+0x4a>
     938:	00052283          	lw	t0,0(a0)
     93c:	0055a023          	sw	t0,0(a1)
     940:	0511                	addi	a0,a0,4
     942:	0591                	addi	a1,a1,4
     944:	fec5eae3          	bltu	a1,a2,938 <handle_reset+0x3a>
	asm volatile(
     948:	00000793          	li	a5,0
     94c:	42fd                	li	t0,31
     94e:	bc029073          	csrw	0xbc0,t0
     952:	6289                	lui	t0,0x2
     954:	88828293          	addi	t0,t0,-1912 # 1888 <SysTick_Handler+0x1e>
     958:	3002a073          	csrs	mstatus,t0
     95c:	fffff297          	auipc	t0,0xfffff
     960:	6a428293          	addi	t0,t0,1700 # 0 <InterruptVector>
     964:	0032e293          	ori	t0,t0,3
     968:	30529073          	csrw	mtvec,t0
	SysTick->CTLR = 1;
     96c:	e000f7b7          	lui	a5,0xe000f
     970:	4705                	li	a4,1
     972:	c398                	sw	a4,0(a5)
	asm volatile(
     974:	6785                	lui	a5,0x1
     976:	e7678793          	addi	a5,a5,-394 # e76 <main>
     97a:	34179073          	csrw	mepc,a5
     97e:	30200073          	mret

00000982 <ADC1_2_IRQHandler>:
	asm volatile( "1: j 1b" );
     982:	a001                	j	982 <ADC1_2_IRQHandler>

00000984 <strlen>:
{
     984:	87aa                	mv	a5,a0
	for (; *s; s++);
     986:	0007c703          	lbu	a4,0(a5)
     98a:	e701                	bnez	a4,992 <strlen+0xe>
}
     98c:	40a78533          	sub	a0,a5,a0
     990:	8082                	ret
	for (; *s; s++);
     992:	0785                	addi	a5,a5,1
     994:	bfcd                	j	986 <strlen+0x2>

00000996 <mini_vpprintf>:
{
     996:	7159                	addi	sp,sp,-112
     998:	d4a2                	sw	s0,104(sp)
     99a:	d2a6                	sw	s1,100(sp)
     99c:	d0ca                	sw	s2,96(sp)
     99e:	cece                	sw	s3,92(sp)
     9a0:	ccd2                	sw	s4,88(sp)
     9a2:	cad6                	sw	s5,84(sp)
     9a4:	c6de                	sw	s7,76(sp)
     9a6:	d686                	sw	ra,108(sp)
     9a8:	c8da                	sw	s6,80(sp)
     9aa:	c4e2                	sw	s8,72(sp)
     9ac:	c2e6                	sw	s9,68(sp)
     9ae:	c0ea                	sw	s10,64(sp)
     9b0:	84aa                	mv	s1,a0
     9b2:	892e                	mv	s2,a1
     9b4:	8432                	mv	s0,a2
     9b6:	8bb6                	mv	s7,a3
	int n = 0;
     9b8:	4981                	li	s3,0
		if (ch!='%') {
     9ba:	02500a13          	li	s4,37
				pad_to = pad_to * 10 + (ch - '0');
     9be:	4aa9                	li	s5,10
	while ((ch=*(fmt++))) {
     9c0:	00044783          	lbu	a5,0(s0)
     9c4:	00140c13          	addi	s8,s0,1
     9c8:	00f107a3          	sb	a5,15(sp)
     9cc:	e385                	bnez	a5,9ec <mini_vpprintf+0x56>
}
     9ce:	50b6                	lw	ra,108(sp)
     9d0:	5426                	lw	s0,104(sp)
     9d2:	5496                	lw	s1,100(sp)
     9d4:	5906                	lw	s2,96(sp)
     9d6:	4a66                	lw	s4,88(sp)
     9d8:	4ad6                	lw	s5,84(sp)
     9da:	4b46                	lw	s6,80(sp)
     9dc:	4bb6                	lw	s7,76(sp)
     9de:	4c26                	lw	s8,72(sp)
     9e0:	4c96                	lw	s9,68(sp)
     9e2:	4d06                	lw	s10,64(sp)
     9e4:	854e                	mv	a0,s3
     9e6:	49f6                	lw	s3,92(sp)
     9e8:	6165                	addi	sp,sp,112
     9ea:	8082                	ret
		if (ch!='%') {
     9ec:	01478c63          	beq	a5,s4,a04 <mini_vpprintf+0x6e>
			len = puts(&ch, len, buf);
     9f0:	864a                	mv	a2,s2
     9f2:	4585                	li	a1,1
     9f4:	00f10513          	addi	a0,sp,15
     9f8:	9482                	jalr	s1
     9fa:	8b5e                	mv	s6,s7
	while ((ch=*(fmt++))) {
     9fc:	8462                	mv	s0,s8
		n = n + len;
     9fe:	99aa                	add	s3,s3,a0
     a00:	8bda                	mv	s7,s6
     a02:	bf7d                	j	9c0 <mini_vpprintf+0x2a>
			ch=*(fmt++);
     a04:	00144783          	lbu	a5,1(s0)
			if (ch == '0') pad_char = '0';
     a08:	03000693          	li	a3,48
			ch=*(fmt++);
     a0c:	00240713          	addi	a4,s0,2
     a10:	00f107a3          	sb	a5,15(sp)
			if (ch == '0') pad_char = '0';
     a14:	03000c13          	li	s8,48
     a18:	06d79f63          	bne	a5,a3,a96 <mini_vpprintf+0x100>
				ch=*(fmt++);
     a1c:	843a                	mv	s0,a4
     a1e:	4d01                	li	s10,0
     a20:	4701                	li	a4,0
			while (ch >= '0' && ch <= '9') {
     a22:	4625                	li	a2,9
     a24:	a801                	j	a34 <mini_vpprintf+0x9e>
				pad_to = pad_to * 10 + (ch - '0');
     a26:	035d0d33          	mul	s10,s10,s5
				ch=*(fmt++);
     a2a:	00044783          	lbu	a5,0(s0)
     a2e:	0405                	addi	s0,s0,1
     a30:	4705                	li	a4,1
				pad_to = pad_to * 10 + (ch - '0');
     a32:	9d36                	add	s10,s10,a3
			while (ch >= '0' && ch <= '9') {
     a34:	fd078693          	addi	a3,a5,-48
     a38:	0ff6f593          	andi	a1,a3,255
     a3c:	feb675e3          	bgeu	a2,a1,a26 <mini_vpprintf+0x90>
     a40:	c319                	beqz	a4,a46 <mini_vpprintf+0xb0>
     a42:	00f107a3          	sb	a5,15(sp)
			if(pad_to > (signed int) sizeof(bf)) {
     a46:	4761                	li	a4,24
     a48:	8cea                	mv	s9,s10
     a4a:	01a75363          	bge	a4,s10,a50 <mini_vpprintf+0xba>
     a4e:	4ce1                	li	s9,24
			if (ch == 'l') {
     a50:	06c00693          	li	a3,108
			char l = 0;
     a54:	4701                	li	a4,0
			if (ch == 'l') {
     a56:	00d79863          	bne	a5,a3,a66 <mini_vpprintf+0xd0>
				ch=*(fmt++);
     a5a:	00044783          	lbu	a5,0(s0)
				l = 1;
     a5e:	4705                	li	a4,1
				ch=*(fmt++);
     a60:	0405                	addi	s0,s0,1
     a62:	00f107a3          	sb	a5,15(sp)
			switch (ch) {
     a66:	00f14683          	lbu	a3,15(sp)
     a6a:	06400793          	li	a5,100
     a6e:	06f68163          	beq	a3,a5,ad0 <mini_vpprintf+0x13a>
     a72:	02d7e563          	bltu	a5,a3,a9c <mini_vpprintf+0x106>
     a76:	05800793          	li	a5,88
     a7a:	08f68e63          	beq	a3,a5,b16 <mini_vpprintf+0x180>
     a7e:	06300793          	li	a5,99
     a82:	0af68c63          	beq	a3,a5,b3a <mini_vpprintf+0x1a4>
     a86:	d6a1                	beqz	a3,9ce <mini_vpprintf+0x38>
					len = puts(&ch, len, buf);
     a88:	864a                	mv	a2,s2
     a8a:	4585                	li	a1,1
     a8c:	00f10513          	addi	a0,sp,15
     a90:	9482                	jalr	s1
     a92:	8b5e                	mv	s6,s7
     a94:	b7ad                	j	9fe <mini_vpprintf+0x68>
			char pad_char = ' ';
     a96:	02000c13          	li	s8,32
     a9a:	b749                	j	a1c <mini_vpprintf+0x86>
			switch (ch) {
     a9c:	07500793          	li	a5,117
     aa0:	02f68863          	beq	a3,a5,ad0 <mini_vpprintf+0x13a>
     aa4:	07800793          	li	a5,120
     aa8:	06f68763          	beq	a3,a5,b16 <mini_vpprintf+0x180>
     aac:	07300793          	li	a5,115
     ab0:	fcf69ce3          	bne	a3,a5,a88 <mini_vpprintf+0xf2>
					ptr = va_arg(va, char*);
     ab4:	004b8b13          	addi	s6,s7,4
     ab8:	000bab83          	lw	s7,0(s7)
					len = mini_strlen(ptr);
     abc:	855e                	mv	a0,s7
     abe:	35d9                	jal	984 <strlen>
     ac0:	85aa                	mv	a1,a0
					if (pad_to > 0) {
     ac2:	080d0963          	beqz	s10,b54 <mini_vpprintf+0x1be>
						len = mini_pad(ptr, len, pad_char, pad_to, bf);
     ac6:	1038                	addi	a4,sp,40
     ac8:	86e6                	mv	a3,s9
     aca:	8662                	mv	a2,s8
     acc:	855e                	mv	a0,s7
     ace:	a025                	j	af6 <mini_vpprintf+0x160>
						len = mini_itoa(va_arg(va, unsigned long), 10, 0, (ch=='u'), bf2);
     ad0:	004b8b13          	addi	s6,s7,4
					if(l) {
     ad4:	cb05                	beqz	a4,b04 <mini_vpprintf+0x16e>
						len = mini_itoa(va_arg(va, unsigned long), 10, 0, (ch=='u'), bf2);
     ad6:	f8b68693          	addi	a3,a3,-117
     ada:	0818                	addi	a4,sp,16
     adc:	0016b693          	seqz	a3,a3
     ae0:	000ba503          	lw	a0,0(s7)
     ae4:	4601                	li	a2,0
     ae6:	45a9                	li	a1,10
     ae8:	e44ff0ef          	jal	ra,12c <mini_itoa.part.0>
					len = mini_pad(bf2, len, pad_char, pad_to, bf);
     aec:	1038                	addi	a4,sp,40
     aee:	86e6                	mv	a3,s9
     af0:	8662                	mv	a2,s8
     af2:	85aa                	mv	a1,a0
					len = mini_pad(bf2, len, pad_char, pad_to, bf);
     af4:	0808                	addi	a0,sp,16
     af6:	d9aff0ef          	jal	ra,90 <mini_pad>
     afa:	85aa                	mv	a1,a0
					len = puts(bf, len, buf);
     afc:	864a                	mv	a2,s2
     afe:	1028                	addi	a0,sp,40
     b00:	9482                	jalr	s1
					break;
     b02:	bdf5                	j	9fe <mini_vpprintf+0x68>
						if(ch == 'u') {
     b04:	07500793          	li	a5,117
     b08:	0818                	addi	a4,sp,16
     b0a:	00f69463          	bne	a3,a5,b12 <mini_vpprintf+0x17c>
	if (radix > 16)
     b0e:	4685                	li	a3,1
     b10:	bfc1                	j	ae0 <mini_vpprintf+0x14a>
     b12:	4681                	li	a3,0
     b14:	b7f1                	j	ae0 <mini_vpprintf+0x14a>
					if(l) {
     b16:	000ba503          	lw	a0,0(s7)
						len = mini_itoa(va_arg(va, unsigned long), 16, (ch=='X'), 1, bf2);
     b1a:	fa868613          	addi	a2,a3,-88
     b1e:	0818                	addi	a4,sp,16
     b20:	4685                	li	a3,1
     b22:	00163613          	seqz	a2,a2
     b26:	45c1                	li	a1,16
     b28:	e04ff0ef          	jal	ra,12c <mini_itoa.part.0>
						len = mini_itoa(va_arg(va, unsigned long), 10, 0, (ch=='u'), bf2);
     b2c:	004b8b13          	addi	s6,s7,4
	if (radix > 16)
     b30:	85aa                	mv	a1,a0
					len = mini_pad(bf2, len, pad_char, pad_to, bf);
     b32:	1038                	addi	a4,sp,40
     b34:	86e6                	mv	a3,s9
     b36:	8662                	mv	a2,s8
     b38:	bf75                	j	af4 <mini_vpprintf+0x15e>
					ch = (char)(va_arg(va, int));
     b3a:	000ba783          	lw	a5,0(s7)
     b3e:	004b8b13          	addi	s6,s7,4
					len = mini_pad(&ch, 1, pad_char, pad_to, bf);
     b42:	1038                	addi	a4,sp,40
					ch = (char)(va_arg(va, int));
     b44:	00f107a3          	sb	a5,15(sp)
					len = mini_pad(&ch, 1, pad_char, pad_to, bf);
     b48:	86e6                	mv	a3,s9
     b4a:	8662                	mv	a2,s8
     b4c:	4585                	li	a1,1
     b4e:	00f10513          	addi	a0,sp,15
     b52:	b755                	j	af6 <mini_vpprintf+0x160>
						len = puts(ptr, len, buf);
     b54:	864a                	mv	a2,s2
     b56:	855e                	mv	a0,s7
     b58:	b765                	j	b00 <mini_vpprintf+0x16a>

00000b5a <printf>:
{
     b5a:	7139                	addi	sp,sp,-64
     b5c:	d432                	sw	a2,40(sp)
	int ret_status = mini_vpprintf(__puts_uart, 0, format, args);
     b5e:	862a                	mv	a2,a0
     b60:	6505                	lui	a0,0x1
{
     b62:	d22e                	sw	a1,36(sp)
     b64:	d636                	sw	a3,44(sp)
	int ret_status = mini_vpprintf(__puts_uart, 0, format, args);
     b66:	4581                	li	a1,0
	va_start( args, format );
     b68:	1054                	addi	a3,sp,36
	int ret_status = mini_vpprintf(__puts_uart, 0, format, args);
     b6a:	8ea50513          	addi	a0,a0,-1814 # 8ea <__puts_uart>
{
     b6e:	ce06                	sw	ra,28(sp)
     b70:	d83a                	sw	a4,48(sp)
     b72:	da3e                	sw	a5,52(sp)
     b74:	dc42                	sw	a6,56(sp)
     b76:	de46                	sw	a7,60(sp)
	va_start( args, format );
     b78:	c636                	sw	a3,12(sp)
	int ret_status = mini_vpprintf(__puts_uart, 0, format, args);
     b7a:	3d31                	jal	996 <mini_vpprintf>
}
     b7c:	40f2                	lw	ra,28(sp)
     b7e:	6121                	addi	sp,sp,64
     b80:	8082                	ret

00000b82 <memset>:
WEAK void *memset(void *dest, int c, size_t n) { unsigned char *s = dest; for (; n; n--, s++) *s = c; return dest; }
     b82:	962a                	add	a2,a2,a0
     b84:	87aa                	mv	a5,a0
     b86:	00c79363          	bne	a5,a2,b8c <memset+0xa>
     b8a:	8082                	ret
     b8c:	00b78023          	sb	a1,0(a5)
     b90:	0785                	addi	a5,a5,1
     b92:	bfd5                	j	b86 <memset+0x4>

00000b94 <memcpy>:
{
     b94:	4781                	li	a5,0
	for (; n; n--) *d++ = *s++;
     b96:	00f61363          	bne	a2,a5,b9c <memcpy+0x8>
}
     b9a:	8082                	ret
	for (; n; n--) *d++ = *s++;
     b9c:	00f58733          	add	a4,a1,a5
     ba0:	00074683          	lbu	a3,0(a4)
     ba4:	00f50733          	add	a4,a0,a5
     ba8:	0785                	addi	a5,a5,1
     baa:	00d70023          	sb	a3,0(a4)
     bae:	b7e5                	j	b96 <memcpy+0x2>

00000bb0 <modiSLER_adv_data.constprop.0>:
) {
	dataFrame->data_len = data_len;
	memcpy(dataFrame->payload, cmd, data_len);
}

void modiSLER_adv_data(MESS_DataFrame_t *dataFrame) {
     bb0:	716d                	addi	sp,sp,-272
     bb2:	10112623          	sw	ra,268(sp)
     bb6:	10812423          	sw	s0,264(sp)
     bba:	10912223          	sw	s1,260(sp)
     bbe:	0a00                	addi	s0,sp,272
     bc0:	dfce                	sw	s3,252(sp)
     bc2:	ddd2                	sw	s4,248(sp)
     bc4:	dbd6                	sw	s5,244(sp)
     bc6:	d9da                	sw	s6,240(sp)
     bc8:	d7de                	sw	s7,236(sp)
     bca:	d5e2                	sw	s8,232(sp)
     bcc:	d3e6                	sw	s9,228(sp)
     bce:	cfee                	sw	s11,220(sp)
     bd0:	11212023          	sw	s2,256(sp)
     bd4:	d1ea                	sw	s10,224(sp)
	if (!REPORT_ALL) return;

	iSLER_frame_t frame = {
     bd6:	443327b7          	lui	a5,0x44332
     bda:	21178793          	addi	a5,a5,529 # 44332211 <_eusrstack+0x2432a211>
     bde:	f0f42623          	sw	a5,-244(s0)
     be2:	6799                	lui	a5,0x6
     be4:	65578793          	addi	a5,a5,1621 # 6655 <iSLER_mess.c.0d7236ba+0x358c>
     be8:	f0f41823          	sh	a5,-240(s0)
     bec:	6589                	lui	a1,0x2
     bee:	10200793          	li	a5,258
     bf2:	f0f41923          	sh	a5,-238(s0)
     bf6:	4621                	li	a2,8
     bf8:	4799                	li	a5,6
     bfa:	9d058593          	addi	a1,a1,-1584 # 19d0 <LLE_IRQHandler+0xaa>
     bfe:	f1740513          	addi	a0,s0,-233
     c02:	f0f40a23          	sb	a5,-236(s0)
     c06:	3779                	jal	b94 <memcpy>
     c08:	4631                	li	a2,12
     c0a:	4581                	li	a1,0
     c0c:	f1f40513          	addi	a0,s0,-225
     c10:	3f8d                	jal	b82 <memset>
     c12:	77f5                	lui	a5,0xffffd
     c14:	7ff78793          	addi	a5,a5,2047 # ffffd7ff <_eusrstack+0xdfff57ff>
     c18:	f2f41623          	sh	a5,-212(s0)
     c1c:	08e00613          	li	a2,142
     c20:	479d                	li	a5,7
     c22:	c1018593          	addi	a1,gp,-1008 # 2000000c <dataFrame>
     c26:	f2f40513          	addi	a0,s0,-209

	// Uncomment to disable whitening to debug RF.
	//BB->CTRL_CFG |= (1<<6);
	DevSetMode(DEVSETMODE_TX);

	BB->ACCESSADDRESS1 = 0x8E89BED6; // access address
     c2a:	8e89ca37          	lui	s4,0x8e89c
	BB->CRCINIT1 = 0x555555; // crc init
     c2e:	00555ab7          	lui	s5,0x555
	BB->CRCPOLY1 = (BB->CRCPOLY1 & 0xff000000) | 0x80032d; // crc poly
	BB->CRCPOLY2 = (BB->CRCPOLY2 & 0xff000000) | 0x80032d;
#endif
	// LL->LL1 = (LL->LL1 & 0xfffffffe) | 1; // The "| 1" is for AUTO mode, to swap between RX <-> TX when either happened

	ADV_BUF[0] = 0x02; // PDU 0x00, 0x02, 0x06 seem to work, with only 0x02 showing up on the phone
     c32:	7b6d                	lui	s6,0xffffb

#if defined(CH582_CH583) || defined(CH32V208)
	BB->CTRL_CFG = (phy_mode == PHY_2M) ? CTRL_CFG_PHY_2M:
				   (phy_mode == PHY_S2) ? CTRL_CFG_PHY_CODED:
				   (phy_mode == PHY_S8) ? CTRL_CFG_PHY_CODED:
										  CTRL_CFG_PHY_1M; // default 1M for now
     c34:	7bc5                	lui	s7,0xffff1
#if defined(CH571_CH573)
	BB->BB11 = (BB->BB11 & 0xfffffffc); // |2 for RX
#endif

	// This clears bit 17 (If set, seems to have no impact.)
	LL->LL4 &= 0xfffdffff;
     c36:	7c01                	lui	s8,0xfffe0

#if !defined(CH571_CH573)
	LL->STATUS = LL_STATUS_TX;
#endif
	LL->TMR = (uint32_t)(len *512); // needs optimisation, per phy mode
     c38:	6cd9                	lui	s9,0x16
     c3a:	f2f40723          	sb	a5,-210(s0)
	// PRINT_SEPARATOR();
	// printf("Frame: ");
	// PRINT_STRUCT_BYTES(&frame, "%02X");
	// printf("\n");

	for(int c = 0; c < sizeof(adv_channels); c++) {
     c3e:	4d81                	li	s11,0
	iSLER_frame_t frame = {
     c40:	3f91                	jal	b94 <memcpy>
		Frame_TX((uint8_t*)&frame, sizeof(frame), adv_channels[c], PHY_MODE);
     c42:	cc418993          	addi	s3,gp,-828 # 200000c0 <adv_channels>
	BB->CTRL_TX = (BB->CTRL_TX & 0xfffffffc) | 1;
     c46:	4000c4b7          	lui	s1,0x4000c
	BB->ACCESSADDRESS1 = 0x8E89BED6; // access address
     c4a:	ed6a0a13          	addi	s4,s4,-298 # 8e89bed6 <_eusrstack+0x6e893ed6>
	BB->CRCINIT1 = 0x555555; // crc init
     c4e:	555a8a93          	addi	s5,s5,1365 # 555555 <iSLER_mess.c.0d7236ba+0x55248c>
	ADV_BUF[0] = 0x02; // PDU 0x00, 0x02, 0x06 seem to work, with only 0x02 showing up on the phone
     c52:	102b0b13          	addi	s6,s6,258 # ffffb102 <_eusrstack+0xdfff3102>
										  CTRL_CFG_PHY_1M; // default 1M for now
     c56:	1bfd                	addi	s7,s7,-1
	LL->LL4 &= 0xfffdffff;
     c58:	1c7d                	addi	s8,s8,-1
	LL->TMR = (uint32_t)(len *512); // needs optimisation, per phy mode
     c5a:	200c8c93          	addi	s9,s9,512 # 16200 <iSLER_mess.c.0d7236ba+0x13137>
	BB->CTRL_TX = (BB->CTRL_TX & 0xfffffffc) | 1;
     c5e:	12c4a703          	lw	a4,300(s1) # 4000c12c <_eusrstack+0x2000412c>
void Frame_TX(uint8_t adv[], size_t len, uint8_t channel, uint8_t phy_mode) {
     c62:	ee242e23          	sw	sp,-260(s0)
     c66:	01b987b3          	add	a5,s3,s11
	BB->CTRL_TX = (BB->CTRL_TX & 0xfffffffc) | 1;
     c6a:	9b71                	andi	a4,a4,-4
     c6c:	00176713          	ori	a4,a4,1
     c70:	0007c603          	lbu	a2,0(a5)
     c74:	12e4a623          	sw	a4,300(s1)
	RF->RF11 &= 0xfffffffd;
     c78:	4000d737          	lui	a4,0x4000d
     c7c:	575c                	lw	a5,44(a4)
	__attribute__((aligned(4))) uint8_t  ADV_BUF[len+2]; // for the advertisement, which is 37 bytes + 2 header bytes
     c7e:	7131                	addi	sp,sp,-192
	DevSetMode(DEVSETMODE_TX);
     c80:	0da00513          	li	a0,218
	RF->RF11 &= 0xfffffffd;
     c84:	9bf5                	andi	a5,a5,-3
     c86:	d75c                	sw	a5,44(a4)
	BB->CTRL_CFG = (BB->CTRL_CFG & 0xffffff80) | (channel & 0x7f);
     c88:	1004a783          	lw	a5,256(s1)
     c8c:	07f67713          	andi	a4,a2,127
	__attribute__((aligned(4))) uint8_t  ADV_BUF[len+2]; // for the advertisement, which is 37 bytes + 2 header bytes
     c90:	8d0a                	mv	s10,sp
	BB->CTRL_CFG = (BB->CTRL_CFG & 0xffffff80) | (channel & 0x7f);
     c92:	f807f793          	andi	a5,a5,-128
     c96:	8fd9                	or	a5,a5,a4
     c98:	10f4a023          	sw	a5,256(s1)
	DevSetMode(DEVSETMODE_TX);
     c9c:	d1eff0ef          	jal	ra,1ba <DevSetMode>
	BB->ACCESSADDRESS1 = 0x8E89BED6; // access address
     ca0:	1144a423          	sw	s4,264(s1)
	BB->CRCINIT1 = 0x555555; // crc init
     ca4:	1154a223          	sw	s5,260(s1)
	memcpy(&ADV_BUF[2], adv, len);
     ca8:	47d5                	li	a5,21
     caa:	f0f40aa3          	sb	a5,-235(s0)
     cae:	47a5                	li	a5,9
     cb0:	f0f40b23          	sb	a5,-234(s0)
     cb4:	0b100613          	li	a2,177
     cb8:	f9100793          	li	a5,-111
	ADV_BUF[0] = 0x02; // PDU 0x00, 0x02, 0x06 seem to work, with only 0x02 showing up on the phone
     cbc:	016d1023          	sh	s6,0(s10)
	memcpy(&ADV_BUF[2], adv, len);
     cc0:	f0c40593          	addi	a1,s0,-244
     cc4:	002d0513          	addi	a0,s10,2
     cc8:	f2f405a3          	sb	a5,-213(s0)
     ccc:	35e1                	jal	b94 <memcpy>
	LL->FRAME_BUF = (uint32_t)ADV_BUF;
     cce:	20048793          	addi	a5,s1,512
     cd2:	07a7a823          	sw	s10,112(a5)
     cd6:	6785                	lui	a5,0x1
     cd8:	bba78793          	addi	a5,a5,-1094 # bba <modiSLER_adv_data.constprop.0+0xa>
	for( int timeout = 3000; !(RF->RF26 & 0x1000000) && timeout >= 0; timeout-- );
     cdc:	4000d6b7          	lui	a3,0x4000d
     ce0:	01000637          	lui	a2,0x1000
     ce4:	56b8                	lw	a4,104(a3)
     ce6:	8f71                	and	a4,a4,a2
     ce8:	e319                	bnez	a4,cee <modiSLER_adv_data.constprop.0+0x13e>
     cea:	17fd                	addi	a5,a5,-1
     cec:	ffe5                	bnez	a5,ce4 <modiSLER_adv_data.constprop.0+0x134>
										  CTRL_CFG_PHY_1M; // default 1M for now
     cee:	1004a783          	lw	a5,256(s1)
				   (phy_mode == PHY_S8) ? CTRL_CFG_PHY_CODED:
     cf2:	6705                	lui	a4,0x1
										  CTRL_CFG_PHY_1M; // default 1M for now
     cf4:	10048693          	addi	a3,s1,256
     cf8:	0177f7b3          	and	a5,a5,s7
				   (phy_mode == PHY_S8) ? CTRL_CFG_PHY_CODED:
     cfc:	8fd9                	or	a5,a5,a4
	BB->CTRL_CFG = (phy_mode == PHY_2M) ? CTRL_CFG_PHY_2M:
     cfe:	10f4a023          	sw	a5,256(s1)
	LL->LL4 &= 0xfffdffff;
     d02:	20048793          	addi	a5,s1,512
     d06:	4b98                	lw	a4,16(a5)
     d08:	01877733          	and	a4,a4,s8
     d0c:	cb98                	sw	a4,16(a5)
	LL->STATUS = LL_STATUS_TX;
     d0e:	6709                	lui	a4,0x2
     d10:	c798                	sw	a4,8(a5)
	LL->TMR = (uint32_t)(len *512); // needs optimisation, per phy mode
     d12:	0797a223          	sw	s9,100(a5)

	BB->CTRL_CFG |= CTRL_CFG_START_TX;
     d16:	1004a783          	lw	a5,256(s1)
     d1a:	00800737          	lui	a4,0x800
     d1e:	8fd9                	or	a5,a5,a4
     d20:	10f4a023          	sw	a5,256(s1)
	BB->CTRL_TX &= 0xfffffffc;
     d24:	56dc                	lw	a5,44(a3)
     d26:	9bf1                	andi	a5,a5,-4
     d28:	d6dc                	sw	a5,44(a3)

	LL->LL0 = 2; // Not sure what this does, but on RX it's 1
     d2a:	4789                	li	a5,2
     d2c:	20f4a023          	sw	a5,512(s1)

	while(LL->TMR); // wait for tx buffer to empty
     d30:	2644a783          	lw	a5,612(s1)
     d34:	fff5                	bnez	a5,d30 <modiSLER_adv_data.constprop.0+0x180>
	DevSetMode(0);
     d36:	4501                	li	a0,0
     d38:	c82ff0ef          	jal	ra,1ba <DevSetMode>
	if(LL->LL0 & 3) {
     d3c:	2004a783          	lw	a5,512(s1)
     d40:	8b8d                	andi	a5,a5,3
     d42:	cf81                	beqz	a5,d5a <modiSLER_adv_data.constprop.0+0x1aa>
		LL->CTRL_MOD &= CTRL_MOD_RFSTOP;
     d44:	2504a783          	lw	a5,592(s1)
     d48:	9be1                	andi	a5,a5,-8
     d4a:	24f4a823          	sw	a5,592(s1)
		LL->LL0 |= 0x08;
     d4e:	2004a783          	lw	a5,512(s1)
     d52:	0087e793          	ori	a5,a5,8
     d56:	20f4a023          	sw	a5,512(s1)
	for(int c = 0; c < sizeof(adv_channels); c++) {
     d5a:	0d85                	addi	s11,s11,1
     d5c:	478d                	li	a5,3
     d5e:	efc42103          	lw	sp,-260(s0)
     d62:	eefd9ee3          	bne	s11,a5,c5e <modiSLER_adv_data.constprop.0+0xae>
	}
}
     d66:	ef040113          	addi	sp,s0,-272
     d6a:	10c12083          	lw	ra,268(sp)
     d6e:	10812403          	lw	s0,264(sp)
     d72:	10412483          	lw	s1,260(sp)
     d76:	10012903          	lw	s2,256(sp)
     d7a:	59fe                	lw	s3,252(sp)
     d7c:	5a6e                	lw	s4,248(sp)
     d7e:	5ade                	lw	s5,244(sp)
     d80:	5b4e                	lw	s6,240(sp)
     d82:	5bbe                	lw	s7,236(sp)
     d84:	5c2e                	lw	s8,232(sp)
     d86:	5c9e                	lw	s9,228(sp)
     d88:	5d0e                	lw	s10,224(sp)
     d8a:	4dfe                	lw	s11,220(sp)
     d8c:	6151                	addi	sp,sp,272
     d8e:	8082                	ret

00000d90 <memcmp>:
{
     d90:	4701                	li	a4,0
	for (; n && *l == *r; n--, l++, r++);
     d92:	02e60063          	beq	a2,a4,db2 <memcmp+0x22>
     d96:	00e507b3          	add	a5,a0,a4
     d9a:	0705                	addi	a4,a4,1
     d9c:	00e586b3          	add	a3,a1,a4
     da0:	0007c783          	lbu	a5,0(a5)
     da4:	fff6c683          	lbu	a3,-1(a3) # 4000cfff <_eusrstack+0x20004fff>
     da8:	fed785e3          	beq	a5,a3,d92 <memcmp+0x2>
	return n ? *l-*r : 0;
     dac:	40d78533          	sub	a0,a5,a3
}
     db0:	8082                	ret
	return n ? *l-*r : 0;
     db2:	4501                	li	a0,0
     db4:	8082                	ret

00000db6 <puts>:
{
     db6:	1141                	addi	sp,sp,-16
     db8:	c606                	sw	ra,12(sp)
     dba:	c422                	sw	s0,8(sp)
     dbc:	c226                	sw	s1,4(sp)
     dbe:	84aa                	mv	s1,a0
	int sl = strlen( s );
     dc0:	36d1                	jal	984 <strlen>
     dc2:	842a                	mv	s0,a0
	_write(0, s, sl );
     dc4:	85aa                	mv	a1,a0
     dc6:	8526                	mv	a0,s1
     dc8:	343d                	jal	7f6 <_write.constprop.0>
	_write(0, "\n", 1 );
     dca:	6509                	lui	a0,0x2
     dcc:	4585                	li	a1,1
     dce:	9f850513          	addi	a0,a0,-1544 # 19f8 <LLE_IRQHandler+0xd2>
     dd2:	3415                	jal	7f6 <_write.constprop.0>
}
     dd4:	40b2                	lw	ra,12(sp)
     dd6:	00140513          	addi	a0,s0,1
     dda:	4422                	lw	s0,8(sp)
     ddc:	4492                	lw	s1,4(sp)
     dde:	0141                	addi	sp,sp,16
     de0:	8082                	ret

00000de2 <SystemInit>:
			R8_CLK_SYS_CFG = sc;
		);
	}
#else // ch5xx EXCEPT ch570/2 ch584/5
	SYS_CLKTypeDef sc = CLK_SOURCE_CH5XX;
	SYS_SAFE_ACCESS(
     de2:	400017b7          	lui	a5,0x40001
     de6:	05700693          	li	a3,87
     dea:	04d78023          	sb	a3,64(a5) # 40001040 <_eusrstack+0x1fff9040>
     dee:	fa800713          	li	a4,-88
     df2:	04e78023          	sb	a4,64(a5)
     df6:	0001                	nop
     df8:	0001                	nop
     dfa:	04b7c603          	lbu	a2,75(a5)
     dfe:	0df67613          	andi	a2,a2,223
     e02:	04c785a3          	sb	a2,75(a5)
     e06:	04078023          	sb	zero,64(a5)
     e0a:	0001                	nop
     e0c:	0001                	nop
		ADD_N_NOPS(4);
		R8_FLASH_CFG = 0X51;
	}
	else if(sc & 0x40) // PLL div
	{
		SYS_SAFE_ACCESS(
     e0e:	04d78023          	sb	a3,64(a5)
     e12:	04e78023          	sb	a4,64(a5)
     e16:	0001                	nop
     e18:	0001                	nop
     e1a:	00140637          	lui	a2,0x140
     e1e:	04860613          	addi	a2,a2,72 # 140048 <iSLER_mess.c.0d7236ba+0x13cf7f>
     e22:	c790                	sw	a2,8(a5)
     e24:	04078023          	sb	zero,64(a5)
     e28:	0001                	nop
     e2a:	0001                	nop
			R32_CLK_SYS_CFG = (1 << 6) | (sc & 0x1f) | RB_TX_32M_PWR_EN | RB_PLL_PWR_EN;
		);
		ADD_N_NOPS(4);
     e2c:	0001                	nop
     e2e:	0001                	nop
     e30:	0001                	nop
     e32:	0001                	nop
		R8_FLASH_CFG = 0x52;
     e34:	40002637          	lui	a2,0x40002
     e38:	05200593          	li	a1,82
     e3c:	80b603a3          	sb	a1,-2041(a2) # 40001807 <_eusrstack+0x1fff9807>
		SYS_SAFE_ACCESS(
			R32_CLK_SYS_CFG |= RB_CLK_SYS_MOD;
		);
	}

	SYS_SAFE_ACCESS(
     e40:	04d78023          	sb	a3,64(a5)
     e44:	04e78023          	sb	a4,64(a5)
     e48:	0001                	nop
     e4a:	0001                	nop
     e4c:	04b7c703          	lbu	a4,75(a5)
     e50:	f8076713          	ori	a4,a4,-128
     e54:	0ff77713          	andi	a4,a4,255
     e58:	04e785a3          	sb	a4,75(a5)
     e5c:	04078023          	sb	zero,64(a5)
     e60:	0001                	nop
     e62:	0001                	nop
	*DMDATA1 = 0x00;
     e64:	e00007b7          	lui	a5,0xe0000
     e68:	3807a223          	sw	zero,900(a5) # e0000384 <_eusrstack+0xbfff8384>
	*DMDATA0 = 0x80;
     e6c:	08000713          	li	a4,128
     e70:	38e7a023          	sw	a4,896(a5)
	SetupUART( UART_BRR );
#endif
#if defined( FUNCONF_USE_DEBUGPRINTF ) && FUNCONF_USE_DEBUGPRINTF
	SetupDebugPrintf();
#endif
}
     e74:	8082                	ret

00000e76 <main>:
				break;
		}
	}
}

int main() {
     e76:	7175                	addi	sp,sp,-144
     e78:	c706                	sw	ra,140(sp)
     e7a:	c522                	sw	s0,136(sp)
     e7c:	c326                	sw	s1,132(sp)
     e7e:	c14a                	sw	s2,128(sp)
     e80:	dece                	sw	s3,124(sp)
     e82:	dcd2                	sw	s4,120(sp)
     e84:	dad6                	sw	s5,116(sp)
     e86:	d8da                	sw	s6,112(sp)
     e88:	d6de                	sw	s7,108(sp)
     e8a:	d4e2                	sw	s8,104(sp)
     e8c:	d2e6                	sw	s9,100(sp)
     e8e:	d0ea                	sw	s10,96(sp)
     e90:	ceee                	sw	s11,92(sp)
	SystemInit();
     e92:	3f81                	jal	de2 <SystemInit>
	SysTick->CTLR = 0x0000;
     e94:	e000f7b7          	lui	a5,0xe000f
	SysTick->CMP = SYSTICK_ONE_MILLISECOND - 1;
     e98:	663d                	lui	a2,0xf
	SysTick->CTLR = 0x0000;
     e9a:	0007a023          	sw	zero,0(a5) # e000f000 <_eusrstack+0xc0007000>
	SysTick->CMP = SYSTICK_ONE_MILLISECOND - 1;
     e9e:	a5f60613          	addi	a2,a2,-1441 # ea5f <iSLER_mess.c.0d7236ba+0xb996>
     ea2:	cb90                	sw	a2,16(a5)
     ea4:	4681                	li	a3,0
     ea6:	cbd4                	sw	a3,20(a5)
	SysTick->CNT = 0x00000000;
     ea8:	4681                	li	a3,0
     eaa:	c794                	sw	a3,8(a5)
     eac:	4701                	li	a4,0
     eae:	c7d8                	sw	a4,12(a5)
	systick_millis = 0x00000000;
     eb0:	ce018713          	addi	a4,gp,-800 # 200000dc <systick_millis>
     eb4:	00072023          	sw	zero,0(a4) # 800000 <iSLER_mess.c.0d7236ba+0x7fcf37>
	SysTick->CTLR |= SYSTICK_CTLR_STE   |  // Enable Counter
     eb8:	4398                	lw	a4,0(a5)
}

// Enable Interrupt (by interrupt number)
RV_STATIC_INLINE void NVIC_EnableIRQ(IRQn_Type IRQn)
{
	NVIC->IENR[((uint32_t)(IRQn) >> 5)] = (1 << ((uint32_t)(IRQn) & 0x1F));
     eba:	e000e5b7          	lui	a1,0xe000e
     ebe:	6d05                	lui	s10,0x1
     ec0:	00776713          	ori	a4,a4,7
     ec4:	c398                	sw	a4,0(a5)
		*(&R32_PA_PD_DRV + OFFSET_FOR_GPIOB(pin)) |= (pin & ~PB);
		*(&R32_PA_PU + OFFSET_FOR_GPIOB(pin))     &= ~(pin & ~PB);
		*(&R32_PA_DIR + OFFSET_FOR_GPIOB(pin))    &= ~(pin & ~PB);
		break;
	case GPIO_ModeOut_PP_5mA:
		*(&R32_PA_PD_DRV + OFFSET_FOR_GPIOB(pin)) &= ~(pin & ~PB);
     ec6:	400017b7          	lui	a5,0x40001
	NVIC->IENR[((uint32_t)(IRQn) >> 5)] = (1 << ((uint32_t)(IRQn) & 0x1F));
     eca:	11a5a023          	sw	s10,256(a1) # e000e100 <_eusrstack+0xc0006100>
		*(&R32_PA_PD_DRV + OFFSET_FOR_GPIOB(pin)) &= ~(pin & ~PB);
     ece:	08078793          	addi	a5,a5,128 # 40001080 <_eusrstack+0x1fff9080>
     ed2:	5bd8                	lw	a4,52(a5)
	LL->LL5 = 0x8c;
     ed4:	08c00693          	li	a3,140
	LL->LL7 = 0x76;
     ed8:	07600613          	li	a2,118
     edc:	eff77713          	andi	a4,a4,-257
     ee0:	dbd8                	sw	a4,52(a5)
		*(&R32_PA_DIR + OFFSET_FOR_GPIOB(pin))    |= (pin & ~PB);
     ee2:	5398                	lw	a4,32(a5)
	RF->RF10 = 0x480;
     ee4:	4000d4b7          	lui	s1,0x4000d
     ee8:	10076713          	ori	a4,a4,256
     eec:	d398                	sw	a4,32(a5)
		*(&R32_PA_PD_DRV + OFFSET_FOR_GPIOB(pin)) &= ~(pin & ~PB);
     eee:	5bd8                	lw	a4,52(a5)
	RF->RF18 = (RF->RF18 & 0x8fffffff) | 0x20000000;
     ef0:	90000e37          	lui	t3,0x90000
     ef4:	1e7d                	addi	t3,t3,-1
     ef6:	bff77713          	andi	a4,a4,-1025
     efa:	dbd8                	sw	a4,52(a5)
		*(&R32_PA_PU + OFFSET_FOR_GPIOB(pin))     |= (pin & ~PB);
     efc:	5b98                	lw	a4,48(a5)
     efe:	20000eb7          	lui	t4,0x20000
	RF->RF18 |= 0x80000000;
     f02:	800008b7          	lui	a7,0x80000
     f06:	40076713          	ori	a4,a4,1024
     f0a:	db98                	sw	a4,48(a5)
		*(&R32_PA_DIR + OFFSET_FOR_GPIOB(pin))    &= ~(pin & ~PB);
     f0c:	5398                	lw	a4,32(a5)
	RF->RF19 |= 0x2000000;
     f0e:	02000f37          	lui	t5,0x2000
	RF->RF20 = (RF->RF20 & 0xffff0fff) | 0x4000;
     f12:	7845                	lui	a6,0xffff1
     f14:	bff77713          	andi	a4,a4,-1025
     f18:	d398                	sw	a4,32(a5)
	LL->LL5 = 0x8c;
     f1a:	4000c7b7          	lui	a5,0x4000c
     f1e:	20078713          	addi	a4,a5,512 # 4000c200 <_eusrstack+0x20004200>
     f22:	cb54                	sw	a3,20(a4)
	LL->LL7 = 0x76;
     f24:	cf50                	sw	a2,28(a4)
	LL->LL9 = 0x8c;
     f26:	d354                	sw	a3,36(a4)
	LL->LL13 = 0x8c;
     f28:	db54                	sw	a3,52(a4)
	LL->LL17 = 0x8c;
     f2a:	c374                	sw	a3,68(a4)
	LL->LL19 = 0x76;
     f2c:	c770                	sw	a2,76(a4)
	LL->LL11 = 0x3c;
     f2e:	03c00693          	li	a3,60
     f32:	d754                	sw	a3,44(a4)
	LL->LL15 = 0x3c;
     f34:	df54                	sw	a3,60(a4)
	LL->INT_EN = 0xf00f;
     f36:	66bd                	lui	a3,0xf
     f38:	06bd                	addi	a3,a3,15
     f3a:	c754                	sw	a3,12(a4)
	LL->STATE_BUF = (uint32_t)LLE_BUF;
     f3c:	cec18693          	addi	a3,gp,-788 # 200000e8 <LLE_BUF>
     f40:	db74                	sw	a3,116(a4)
	LL->STATUS = 0xffffffff;
     f42:	56fd                	li	a3,-1
     f44:	c714                	sw	a3,8(a4)
	RF->RF10 = 0x480;
     f46:	48000713          	li	a4,1152
     f4a:	d498                	sw	a4,40(s1)
	RF->RF18 = (RF->RF18 & 0x8fffffff) | 0x20000000;
     f4c:	44b8                	lw	a4,72(s1)
	RF->RF18 = (RF->RF18 & 0xf8ffffff) | 0x4000000;
     f4e:	f90006b7          	lui	a3,0xf9000
     f52:	16fd                	addi	a3,a3,-1
	RF->RF18 = (RF->RF18 & 0x8fffffff) | 0x20000000;
     f54:	01c77733          	and	a4,a4,t3
     f58:	01d76733          	or	a4,a4,t4
     f5c:	c4b8                	sw	a4,72(s1)
	RF->RF18 = (RF->RF18 & 0xf8ffffff) | 0x4000000;
     f5e:	44b8                	lw	a4,72(s1)
     f60:	04000637          	lui	a2,0x4000
	RF->RF20 = (RF->RF20 & 0xffff0fff) | 0x4000;
     f64:	6511                	lui	a0,0x4
	RF->RF18 = (RF->RF18 & 0xf8ffffff) | 0x4000000;
     f66:	8f75                	and	a4,a4,a3
     f68:	8f51                	or	a4,a4,a2
     f6a:	c4b8                	sw	a4,72(s1)
	RF->RF18 = (RF->RF18 & 0xfffffff0) | 9;
     f6c:	44b8                	lw	a4,72(s1)
	RF->RF18 &= 0xfff8ffff;
     f6e:	fff90637          	lui	a2,0xfff90
     f72:	167d                	addi	a2,a2,-1
	RF->RF18 = (RF->RF18 & 0xfffffff0) | 9;
     f74:	9b41                	andi	a4,a4,-16
     f76:	00976713          	ori	a4,a4,9
     f7a:	c4b8                	sw	a4,72(s1)
	RF->RF18 &= 0xfff8ffff;
     f7c:	44b8                	lw	a4,72(s1)
	RF->RF21 &= 0xffffefff;
     f7e:	797d                	lui	s2,0xfffff
     f80:	197d                	addi	s2,s2,-1
	RF->RF18 &= 0xfff8ffff;
     f82:	8f71                	and	a4,a4,a2
     f84:	c4b8                	sw	a4,72(s1)
	RF->RF18 |= 0x80000000;
     f86:	44b8                	lw	a4,72(s1)
	RF->RF19 &= 0xfeffffff;
     f88:	ff000637          	lui	a2,0xff000
     f8c:	167d                	addi	a2,a2,-1
	RF->RF18 |= 0x80000000;
     f8e:	01176733          	or	a4,a4,a7
     f92:	c4b8                	sw	a4,72(s1)
	RF->RF19 = (RF->RF19 & 0xfffffff8) | 3;
     f94:	44f8                	lw	a4,76(s1)
	RF->RF15 = (RF->RF15 & 0x1fffffff) | 0x40000000;
     f96:	1efd                	addi	t4,t4,-1
	RF->RF11 = (RF->RF11 & 0xfffcffff) | 0x20000;
     f98:	00020a37          	lui	s4,0x20
	RF->RF19 = (RF->RF19 & 0xfffffff8) | 3;
     f9c:	9b61                	andi	a4,a4,-8
     f9e:	00376713          	ori	a4,a4,3
     fa2:	c4f8                	sw	a4,76(s1)
	RF->RF19 = (RF->RF19 & 0xffffff8f) | 0x30;
     fa4:	44f8                	lw	a4,76(s1)
	BB->CTRL_CFG |= 0x800000;
     fa6:	10078793          	addi	a5,a5,256
	NVIC->VTFIDR[3] = 0x14;
     faa:	4bd1                	li	s7,20
	RF->RF19 = (RF->RF19 & 0xffffff8f) | 0x30;
     fac:	f8f77713          	andi	a4,a4,-113
     fb0:	03076713          	ori	a4,a4,48
     fb4:	c4f8                	sw	a4,76(s1)
	RF->RF19 = (RF->RF19 & 0xfffff8ff) | 0x300;
     fb6:	44f8                	lw	a4,76(s1)
     fb8:	ce018413          	addi	s0,gp,-800 # 200000dc <systick_millis>
     fbc:	cec18993          	addi	s3,gp,-788 # 200000e8 <LLE_BUF>
     fc0:	8ff77713          	andi	a4,a4,-1793
     fc4:	30076713          	ori	a4,a4,768
     fc8:	c4f8                	sw	a4,76(s1)
	RF->RF19 &= 0xfeffffff;
     fca:	44f8                	lw	a4,76(s1)
		txctune_co[f] = tune | (tune << 4);
     fcc:	1d41                	addi	s10,s10,-16
	RF->RF19 &= 0xfeffffff;
     fce:	8f71                	and	a4,a4,a2
     fd0:	c4f8                	sw	a4,76(s1)
	RF->RF19 |= 0x2000000;
     fd2:	44f8                	lw	a4,76(s1)
	RF->RF20 = (RF->RF20 & 0xffff0fff) | 0x4000;
     fd4:	fff80613          	addi	a2,a6,-1 # ffff0fff <_eusrstack+0xdffe8fff>
	RF->RF19 |= 0x2000000;
     fd8:	01e76733          	or	a4,a4,t5
     fdc:	c4f8                	sw	a4,76(s1)
	RF->RF20 = (RF->RF20 & 0xffff0fff) | 0x4000;
     fde:	48b8                	lw	a4,80(s1)
     fe0:	8f71                	and	a4,a4,a2
     fe2:	8f49                	or	a4,a4,a0
     fe4:	c8b8                	sw	a4,80(s1)
	RF->RF21 = (RF->RF21 & 0xfffffff0) | 0xc;
     fe6:	0544a303          	lw	t1,84(s1) # 4000d054 <_eusrstack+0x20005054>
     fea:	ff037313          	andi	t1,t1,-16
     fee:	00c36313          	ori	t1,t1,12
     ff2:	0464aa23          	sw	t1,84(s1)
	RF->RF21 |= 0x80;
     ff6:	48f8                	lw	a4,84(s1)
     ff8:	08076713          	ori	a4,a4,128
     ffc:	c8f8                	sw	a4,84(s1)
	RF->RF21 &= 0xffffefff;
     ffe:	48f8                	lw	a4,84(s1)
    1000:	01277733          	and	a4,a4,s2
    1004:	c8f8                	sw	a4,84(s1)
	RF->RF15 = (RF->RF15 & 0xffff0fff) | 0x8000;
    1006:	03c4a803          	lw	a6,60(s1)
    100a:	6721                	lui	a4,0x8
    100c:	00c87833          	and	a6,a6,a2
    1010:	00e86833          	or	a6,a6,a4
    1014:	0304ae23          	sw	a6,60(s1)
	RF->RF15 = (RF->RF15 & 0xf8ffffff) | 0x2000000;
    1018:	5cc8                	lw	a0,60(s1)
	RF->RF15 = (RF->RF15 & 0x1fffffff) | 0x40000000;
    101a:	40000737          	lui	a4,0x40000
	RF->RF15 = (RF->RF15 & 0xf8ffffff) | 0x2000000;
    101e:	8d75                	and	a0,a0,a3
    1020:	01e56533          	or	a0,a0,t5
    1024:	dcc8                	sw	a0,60(s1)
	RF->RF15 = (RF->RF15 & 0x1fffffff) | 0x40000000;
    1026:	5cd0                	lw	a2,60(s1)
	RF->RF11 |= 0x700000;
    1028:	00700537          	lui	a0,0x700
	RF->RF15 = (RF->RF15 & 0x1fffffff) | 0x40000000;
    102c:	01d67633          	and	a2,a2,t4
    1030:	8e59                	or	a2,a2,a4
    1032:	dcd0                	sw	a2,60(s1)
	RF->RF11 |= 0x700000;
    1034:	54d8                	lw	a4,44(s1)
	RF->RF11 = (RF->RF11 & 0xffffcfff) | 0x2000;
    1036:	7675                	lui	a2,0xffffd
    1038:	167d                	addi	a2,a2,-1
	RF->RF11 |= 0x700000;
    103a:	8f49                	or	a4,a4,a0
    103c:	d4d8                	sw	a4,44(s1)
	RF->RF11 &= 0xf8ffffff;
    103e:	54d8                	lw	a4,44(s1)
    1040:	8ef9                	and	a3,a3,a4
    1042:	d4d4                	sw	a3,44(s1)
	RF->RF11 = (RF->RF11 & 0xffffcfff) | 0x2000;
    1044:	54d4                	lw	a3,44(s1)
    1046:	6709                	lui	a4,0x2
    1048:	8ef1                	and	a3,a3,a2
    104a:	8ed9                	or	a3,a3,a4
    104c:	d4d4                	sw	a3,44(s1)
	RF->RF11 = (RF->RF11 & 0xfffcffff) | 0x20000;
    104e:	54d4                	lw	a3,44(s1)
    1050:	fffd0637          	lui	a2,0xfffd0
    1054:	167d                	addi	a2,a2,-1
    1056:	8ef1                	and	a3,a3,a2
    1058:	0146e6b3          	or	a3,a3,s4
    105c:	d4d4                	sw	a3,44(s1)
	RF->RF12 &= 0xfffffff0;
    105e:	5894                	lw	a3,48(s1)
    1060:	9ac1                	andi	a3,a3,-16
    1062:	d894                	sw	a3,48(s1)
	RF->RF12 &= 0xffffff0f;
    1064:	5894                	lw	a3,48(s1)
    1066:	f0f6f693          	andi	a3,a3,-241
    106a:	d894                	sw	a3,48(s1)
	RF->RF12 &= 0xfffff8ff;
    106c:	5894                	lw	a3,48(s1)
    106e:	8ff6f693          	andi	a3,a3,-1793
    1072:	d894                	sw	a3,48(s1)
	RF->RF12 |= 0x700000;
    1074:	5898                	lw	a4,48(s1)
	RF->RF12 = (RF->RF12 & 0x8fffffff) | 0x50000000;
    1076:	500006b7          	lui	a3,0x50000
	RF->RF12 |= 0x700000;
    107a:	8f49                	or	a4,a4,a0
    107c:	d898                	sw	a4,48(s1)
	RF->RF12 = (RF->RF12 & 0x8fffffff) | 0x50000000;
    107e:	5898                	lw	a4,48(s1)
	DevSetMode(DEVSETMODE_TUNE);
    1080:	0dd00513          	li	a0,221
	RF->RF12 = (RF->RF12 & 0x8fffffff) | 0x50000000;
    1084:	01c77733          	and	a4,a4,t3
    1088:	8f55                	or	a4,a4,a3
    108a:	d898                	sw	a4,48(s1)
	RF->TXTUNE_CTRL = (RF->TXTUNE_CTRL & 0xff07ffff) | RFEND_TXCTUNE_INIT;
    108c:	5c98                	lw	a4,56(s1)
    108e:	ff0806b7          	lui	a3,0xff080
    1092:	16fd                	addi	a3,a3,-1
    1094:	8f75                	and	a4,a4,a3
    1096:	008806b7          	lui	a3,0x880
    109a:	8f55                	or	a4,a4,a3
    109c:	dc98                	sw	a4,56(s1)
	RF->TXTUNE_CTRL |= 0x80000000;
    109e:	5c98                	lw	a4,56(s1)
	BB->CTRL_CFG |= 0x800000;
    10a0:	008006b7          	lui	a3,0x800
	RF->TXTUNE_CTRL |= 0x80000000;
    10a4:	011768b3          	or	a7,a4,a7
    10a8:	0314ac23          	sw	a7,56(s1)
	BB->CTRL_CFG |= 0x800000;
    10ac:	4398                	lw	a4,0(a5)
    10ae:	8f55                	or	a4,a4,a3
    10b0:	c398                	sw	a4,0(a5)
	BB->CTRL_CFG |= 0x10000000;
    10b2:	4398                	lw	a4,0(a5)
    10b4:	100006b7          	lui	a3,0x10000
    10b8:	8f55                	or	a4,a4,a3
    10ba:	c398                	sw	a4,0(a5)
	BB->BB13 = 0x1d0;
    10bc:	1d000713          	li	a4,464
    10c0:	dbd8                	sw	a4,52(a5)
	BB->CTRL_TX = TxPower << 0x19 | CTRL_TX_TXPOWER;
    10c2:	a4011737          	lui	a4,0xa4011
    10c6:	e7870713          	addi	a4,a4,-392 # a4010e78 <_eusrstack+0x84008e78>
    10ca:	d7d8                	sw	a4,44(a5)
	BB->CTRL_TX = (BB->CTRL_TX & 0x81ffffff) | (TxPower & 0x3f) << 0x19;
    10cc:	57d8                	lw	a4,44(a5)
    10ce:	820006b7          	lui	a3,0x82000
    10d2:	16fd                	addi	a3,a3,-1
    10d4:	8f75                	and	a4,a4,a3
    10d6:	240006b7          	lui	a3,0x24000
    10da:	8f55                	or	a4,a4,a3
    10dc:	d7d8                	sw	a4,44(a5)
	BB->BB8 = 0x90083;
    10de:	00090737          	lui	a4,0x90
    10e2:	08370713          	addi	a4,a4,131 # 90083 <iSLER_mess.c.0d7236ba+0x8cfba>
    10e6:	d398                	sw	a4,32(a5)
	NVIC->VTFIDR[3] = 0x14;
    10e8:	057589a3          	sb	s7,83(a1)
	DevSetMode(DEVSETMODE_TUNE);
    10ec:	8ceff0ef          	jal	ra,1ba <DevSetMode>
	RF->RF1 &= 0xfffffeff;
    10f0:	40dc                	lw	a5,4(s1)
	uint32_t tune2401 = RFEND_TXCTune(37);
    10f2:	02500513          	li	a0,37
	RF->RF1 &= 0xfffffeff;
    10f6:	eff7f793          	andi	a5,a5,-257
    10fa:	c0dc                	sw	a5,4(s1)
	RF->RF10 &= 0xffffefff;
    10fc:	549c                	lw	a5,40(s1)
    10fe:	0127f933          	and	s2,a5,s2
    1102:	0324a423          	sw	s2,40(s1)
	RF->RF11 &= 0xffffffef;
    1106:	54d8                	lw	a4,44(s1)
    1108:	9b3d                	andi	a4,a4,-17
    110a:	d4d8                	sw	a4,44(s1)
	RF->RF2 |= 0x20000;
    110c:	449c                	lw	a5,8(s1)
    110e:	0147e7b3          	or	a5,a5,s4
    1112:	c49c                	sw	a5,8(s1)
	RF->RF1 |= 0x10;
    1114:	40dc                	lw	a5,4(s1)
    1116:	0107e793          	ori	a5,a5,16
    111a:	c0dc                	sw	a5,4(s1)
	uint32_t tune2401 = RFEND_TXCTune(37);
    111c:	8ecff0ef          	jal	ra,208 <RFEND_TXCTune>
    1120:	84aa                	mv	s1,a0
	uint8_t nGA2401 = (uint8_t)(tune2401 >> 24) & 0x7f;
    1122:	01855b13          	srli	s6,a0,0x18
	uint32_t tune2480 = RFEND_TXCTune(39);
    1126:	02700513          	li	a0,39
    112a:	8deff0ef          	jal	ra,208 <RFEND_TXCTune>
    112e:	892a                	mv	s2,a0
	uint8_t nGA2480 = (uint8_t)(tune2480 >> 24) & 0x7f;
    1130:	01855c93          	srli	s9,a0,0x18
	uint32_t tune2440 = RFEND_TXCTune(18);
    1134:	4549                	li	a0,18
    1136:	8d2ff0ef          	jal	ra,208 <RFEND_TXCTune>
	uint8_t nCO2440 = (uint8_t)(tune2440 & 0x3f);
    113a:	03f57c13          	andi	s8,a0,63
	uint8_t nGA2440 = (uint8_t)(tune2440 >> 24) & 0x7f;
    113e:	01855a93          	srli	s5,a0,0x18
	uint8_t txctune_co[sizeof(RF->TXCTUNE_CO)] = {0};
    1142:	02400613          	li	a2,36
	uint32_t tune2440 = RFEND_TXCTune(18);
    1146:	8a2a                	mv	s4,a0
	uint32_t dCO0140 = nCO2401 - nCO2440;
    1148:	03f4f493          	andi	s1,s1,63
	uint8_t txctune_co[sizeof(RF->TXCTUNE_CO)] = {0};
    114c:	4581                	li	a1,0
    114e:	1068                	addi	a0,sp,44
	uint32_t dCO0140 = nCO2401 - nCO2440;
    1150:	418484b3          	sub	s1,s1,s8
	uint8_t txctune_co[sizeof(RF->TXCTUNE_CO)] = {0};
    1154:	d402                	sw	zero,40(sp)
    1156:	3435                	jal	b82 <memset>
    1158:	037487b3          	mul	a5,s1,s7
	uint32_t dCO4080 = nCO2440 - nCO2480;
    115c:	03f97913          	andi	s2,s2,63
	uint8_t nGA2401 = (uint8_t)(tune2401 >> 24) & 0x7f;
    1160:	07fb7b13          	andi	s6,s6,127
	uint8_t nGA2480 = (uint8_t)(tune2480 >> 24) & 0x7f;
    1164:	07fcfc93          	andi	s9,s9,127
	uint8_t nGA2440 = (uint8_t)(tune2440 >> 24) & 0x7f;
    1168:	07fafa93          	andi	s5,s5,127
	uint32_t dCO4080 = nCO2440 - nCO2480;
    116c:	412c0933          	sub	s2,s8,s2
	for(int f = 0; f < int_points; f++) {
    1170:	4701                	li	a4,0
		tune = (dCO0140 * (int_points -f)) / int_points;
    1172:	4651                	li	a2,20
		txctune_co[f] = tune | (tune << 4);
    1174:	1034                	addi	a3,sp,40
    1176:	00e68533          	add	a0,a3,a4
		tune = (dCO0140 * (int_points -f)) / int_points;
    117a:	02c7d5b3          	divu	a1,a5,a2
	for(int f = 0; f < int_points; f++) {
    117e:	0705                	addi	a4,a4,1
    1180:	8f85                	sub	a5,a5,s1
		txctune_co[f] = tune | (tune << 4);
    1182:	00459693          	slli	a3,a1,0x4
    1186:	01a6f6b3          	and	a3,a3,s10
    118a:	8ecd                	or	a3,a3,a1
    118c:	00d50023          	sb	a3,0(a0) # 700000 <iSLER_mess.c.0d7236ba+0x6fcf37>
	for(int f = 0; f < int_points; f++) {
    1190:	fec712e3          	bne	a4,a2,1174 <main+0x2fe>
		txctune_co[f] = tune | (tune << 4);
    1194:	6605                	lui	a2,0x1
	for(int f = 0; f < int_points; f++) {
    1196:	4681                	li	a3,0
		tune = (dCO4080 * (f -int_points)) / int_points;
    1198:	48d1                	li	a7,20
		txctune_co[f] = tune | (tune << 4);
    119a:	1641                	addi	a2,a2,-16
	for(int f = int_points; f < sizeof(RF->TXCTUNE_CO); f++) {
    119c:	02800513          	li	a0,40
		tune = (dCO4080 * (f -int_points)) / int_points;
    11a0:	0316d5b3          	divu	a1,a3,a7
		txctune_co[f] = tune | (tune << 4);
    11a4:	103c                	addi	a5,sp,40
    11a6:	00e78833          	add	a6,a5,a4
	for(int f = int_points; f < sizeof(RF->TXCTUNE_CO); f++) {
    11aa:	0705                	addi	a4,a4,1
    11ac:	96ca                	add	a3,a3,s2
		txctune_co[f] = tune | (tune << 4);
    11ae:	00459793          	slli	a5,a1,0x4
    11b2:	8ff1                	and	a5,a5,a2
    11b4:	8fcd                	or	a5,a5,a1
    11b6:	00f80023          	sb	a5,0(a6)
	for(int f = int_points; f < sizeof(RF->TXCTUNE_CO); f++) {
    11ba:	fea713e3          	bne	a4,a0,11a0 <main+0x32a>
    11be:	1034                	addi	a3,sp,40
	for(int i = 0; i < sizeof(txctune_co) /4; i++) {
    11c0:	4701                	li	a4,0
		RF->TXCTUNE_CO[i] = ((uint32_t*)txctune_co)[i];
    11c2:	4000d537          	lui	a0,0x4000d
	for(int i = 0; i < sizeof(txctune_co) /4; i++) {
    11c6:	4629                	li	a2,10
		RF->TXCTUNE_CO[i] = ((uint32_t*)txctune_co)[i];
    11c8:	428c                	lw	a1,0(a3)
    11ca:	02870793          	addi	a5,a4,40
    11ce:	078a                	slli	a5,a5,0x2
    11d0:	97aa                	add	a5,a5,a0
    11d2:	c38c                	sw	a1,0(a5)
	for(int i = 0; i < sizeof(txctune_co) /4; i++) {
    11d4:	0705                	addi	a4,a4,1
    11d6:	0691                	addi	a3,a3,4
    11d8:	fec718e3          	bne	a4,a2,11c8 <main+0x352>
	uint32_t dGA0140 = nGA2401 - nGA2440;
    11dc:	415b0b33          	sub	s6,s6,s5
	uint32_t dGA4080 = nGA2440 - nGA2480;
    11e0:	4695                	li	a3,5
    11e2:	02db06b3          	mul	a3,s6,a3
		txctune_ga[f] = tune | (tune << 4);
    11e6:	6705                	lui	a4,0x1
	uint32_t dGA4080 = nGA2440 - nGA2480;
    11e8:	419a8ab3          	sub	s5,s5,s9
	uint8_t txctune_ga[sizeof(RF->TXCTUNE_GA)] = {0};
    11ec:	ce02                	sw	zero,28(sp)
    11ee:	d002                	sw	zero,32(sp)
    11f0:	d202                	sw	zero,36(sp)
	for(int f = 1; f < int_points; f++) {
    11f2:	4785                	li	a5,1
		tune = (dGA0140 * (int_points -f)) / int_points;
    11f4:	4599                	li	a1,6
		txctune_ga[f] = tune | (tune << 4);
    11f6:	1741                	addi	a4,a4,-16
    11f8:	0870                	addi	a2,sp,28
		tune = (dGA0140 * (int_points -f)) / int_points;
    11fa:	02b6d533          	divu	a0,a3,a1
		txctune_ga[f] = tune | (tune << 4);
    11fe:	00f60833          	add	a6,a2,a5
	for(int f = 1; f < int_points; f++) {
    1202:	0785                	addi	a5,a5,1
    1204:	416686b3          	sub	a3,a3,s6
		txctune_ga[f] = tune | (tune << 4);
    1208:	00451613          	slli	a2,a0,0x4
    120c:	8e79                	and	a2,a2,a4
    120e:	8e49                	or	a2,a2,a0
    1210:	00c80023          	sb	a2,0(a6)
	for(int f = 1; f < int_points; f++) {
    1214:	feb792e3          	bne	a5,a1,11f8 <main+0x382>
		txctune_ga[f] = tune | (tune << 4);
    1218:	6605                	lui	a2,0x1
	for(int f = 1; f < int_points; f++) {
    121a:	4701                	li	a4,0
		tune = (dGA4080 * (f -int_points)) / int_points;
    121c:	4319                	li	t1,6
		txctune_ga[f] = tune | (tune << 4);
    121e:	ff060893          	addi	a7,a2,-16 # ff0 <main+0x17a>
	for(int f = int_points; f < sizeof(RF->TXCTUNE_GA) -1; f++) {
    1222:	452d                	li	a0,11
		tune = (dGA4080 * (f -int_points)) / int_points;
    1224:	026755b3          	divu	a1,a4,t1
		txctune_ga[f] = tune | (tune << 4);
    1228:	0874                	addi	a3,sp,28
    122a:	00f68833          	add	a6,a3,a5
	for(int f = int_points; f < sizeof(RF->TXCTUNE_GA) -1; f++) {
    122e:	0785                	addi	a5,a5,1
    1230:	9756                	add	a4,a4,s5
		txctune_ga[f] = tune | (tune << 4);
    1232:	00459693          	slli	a3,a1,0x4
    1236:	0116f6b3          	and	a3,a3,a7
    123a:	8ecd                	or	a3,a3,a1
    123c:	00d80023          	sb	a3,0(a6)
	for(int f = int_points; f < sizeof(RF->TXCTUNE_GA) -1; f++) {
    1240:	fea792e3          	bne	a5,a0,1224 <main+0x3ae>
		RF->TXCTUNE_GA[i] = ((uint32_t*)txctune_ga)[i];
    1244:	46f2                	lw	a3,28(sp)
    1246:	4000d7b7          	lui	a5,0x4000d
    124a:	08078713          	addi	a4,a5,128 # 4000d080 <_eusrstack+0x20005080>
    124e:	c734                	sw	a3,72(a4)
    1250:	5682                	lw	a3,32(sp)
    1252:	c774                	sw	a3,76(a4)
    1254:	5692                	lw	a3,36(sp)
    1256:	cb34                	sw	a3,80(a4)
	RF->RF1 &= 0xffffffef;
    1258:	43d8                	lw	a4,4(a5)
	RF->RF20 &= 0xfffeffff;
    125a:	76c1                	lui	a3,0xffff0
    125c:	16fd                	addi	a3,a3,-1
	RF->RF1 &= 0xffffffef;
    125e:	9b3d                	andi	a4,a4,-17
    1260:	c3d8                	sw	a4,4(a5)
	RF->RF1 &= 0xfffffffe;
    1262:	43d8                	lw	a4,4(a5)
    1264:	9b79                	andi	a4,a4,-2
    1266:	c3d8                	sw	a4,4(a5)
	RF->RF10 |= 0x1000;
    1268:	5798                	lw	a4,40(a5)
    126a:	8f51                	or	a4,a4,a2
    126c:	d798                	sw	a4,40(a5)
	RF->RF11 |= 0x10;
    126e:	57d8                	lw	a4,44(a5)
    1270:	01076713          	ori	a4,a4,16
    1274:	d7d8                	sw	a4,44(a5)
	RF->TXTUNE_CTRL = (RF->TXTUNE_CTRL & 0xffffffc0) | (tune2440 & 0x3f);
    1276:	5f98                	lw	a4,56(a5)
    1278:	fc077713          	andi	a4,a4,-64
    127c:	01876733          	or	a4,a4,s8
    1280:	df98                	sw	a4,56(a5)
	RF->TXTUNE_CTRL = (RF->TXTUNE_CTRL & 0x80ffffff) | (tune2440 & 0x7f000000);
    1282:	5f88                	lw	a0,56(a5)
    1284:	81000737          	lui	a4,0x81000
    1288:	177d                	addi	a4,a4,-1
    128a:	8f69                	and	a4,a4,a0
    128c:	7f000537          	lui	a0,0x7f000
    1290:	00aa7533          	and	a0,s4,a0
    1294:	8d59                	or	a0,a0,a4
    1296:	df88                	sw	a0,56(a5)
	RF->RF1 |= 0x100;
    1298:	43d8                	lw	a4,4(a5)
    129a:	10076713          	ori	a4,a4,256
    129e:	c3d8                	sw	a4,4(a5)
	RF->RF20 &= 0xfffeffff;
    12a0:	4bb8                	lw	a4,80(a5)
    12a2:	8f75                	and	a4,a4,a3
    12a4:	cbb8                	sw	a4,80(a5)
	RF->RF2 |= 0x200000;
    12a6:	4798                	lw	a4,8(a5)
    12a8:	002006b7          	lui	a3,0x200
    12ac:	8f55                	or	a4,a4,a3
    12ae:	c798                	sw	a4,8(a5)
	RF->RF3 = (RF->RF3 & 0xffffffef) | 0x10;
    12b0:	47d8                	lw	a4,12(a5)
	while(LL->TMR && ((RF->RXTUNE >> 8) & 1));
    12b2:	4000c6b7          	lui	a3,0x4000c
	RF->RF3 = (RF->RF3 & 0xffffffef) | 0x10;
    12b6:	01076713          	ori	a4,a4,16
    12ba:	c7d8                	sw	a4,12(a5)
	RF->RF1 |= 0x1000;
    12bc:	43d8                	lw	a4,4(a5)
    12be:	8f51                	or	a4,a4,a2
    12c0:	c3d8                	sw	a4,4(a5)
	LL->TMR = 100;
    12c2:	4000c7b7          	lui	a5,0x4000c
    12c6:	06400713          	li	a4,100
    12ca:	20078793          	addi	a5,a5,512 # 4000c200 <_eusrstack+0x20004200>
    12ce:	d3f8                	sw	a4,100(a5)
	while(LL->TMR && ((RF->RXTUNE >> 8) & 1));
    12d0:	4000d737          	lui	a4,0x4000d
    12d4:	20068793          	addi	a5,a3,512 # 4000c200 <_eusrstack+0x20004200>
    12d8:	53fc                	lw	a5,100(a5)
    12da:	c791                	beqz	a5,12e6 <main+0x470>
    12dc:	09c72783          	lw	a5,156(a4) # 4000d09c <_eusrstack+0x2000509c>
    12e0:	1007f793          	andi	a5,a5,256
    12e4:	fbe5                	bnez	a5,12d4 <main+0x45e>
	tuneFilter = RF->RXTUNE & 0x1f;
    12e6:	4000d7b7          	lui	a5,0x4000d
    12ea:	08078713          	addi	a4,a5,128 # 4000d080 <_eusrstack+0x20005080>
    12ee:	4f54                	lw	a3,28(a4)
    12f0:	ce418713          	addi	a4,gp,-796 # 200000e0 <tuneFilter>
    12f4:	8afd                	andi	a3,a3,31
    12f6:	c314                	sw	a3,0(a4)
	RF->RF20 |= 0x10000;
    12f8:	4bb4                	lw	a3,80(a5)
    12fa:	6641                	lui	a2,0x10
    12fc:	8ed1                	or	a3,a3,a2
    12fe:	cbb4                	sw	a3,80(a5)
	RF->RF20 = (RF->RF20 & 0xffffffe0) | tuneFilter;
    1300:	4bb4                	lw	a3,80(a5)
    1302:	4310                	lw	a2,0(a4)
    1304:	9a81                	andi	a3,a3,-32
    1306:	8ed1                	or	a3,a3,a2
    1308:	cbb4                	sw	a3,80(a5)
	RF->RF2 &= 0xffdfffff;
    130a:	4794                	lw	a3,8(a5)
    130c:	ffe00637          	lui	a2,0xffe00
    1310:	167d                	addi	a2,a2,-1
    1312:	8ef1                	and	a3,a3,a2
    1314:	c794                	sw	a3,8(a5)
	tuneFilter2M = (tuneFilter +2 < 0x1f) ? (tuneFilter +2) : 0x1f;
    1316:	4314                	lw	a3,0(a4)
    1318:	4679                	li	a2,30
    131a:	47fd                	li	a5,31
    131c:	0689                	addi	a3,a3,2
    131e:	00d66463          	bltu	a2,a3,1326 <main+0x4b0>
    1322:	431c                	lw	a5,0(a4)
    1324:	0789                	addi	a5,a5,2
    1326:	cef1a423          	sw	a5,-792(gp) # 200000e4 <tuneFilter2M>
	RF->RF22 &= 0xfffeffff;
    132a:	4000d7b7          	lui	a5,0x4000d
    132e:	4fb8                	lw	a4,88(a5)
    1330:	76c1                	lui	a3,0xffff0
    1332:	16fd                	addi	a3,a3,-1
    1334:	8f75                	and	a4,a4,a3
    1336:	cfb8                	sw	a4,88(a5)
	RF->RF2 |= 0x10000;
    1338:	4798                	lw	a4,8(a5)
    133a:	66c1                	lui	a3,0x10
	DevSetMode(0);
    133c:	4501                	li	a0,0
	RF->RF2 |= 0x10000;
    133e:	8f55                	or	a4,a4,a3
    1340:	c798                	sw	a4,8(a5)
	RF->RF3 = (RF->RF3 & 0xfffffeff) | 0x100;
    1342:	47d8                	lw	a4,12(a5)
	RF->RF1 = (RF->RF1 & 0xfffeffff) | 0x100000;
    1344:	ffef06b7          	lui	a3,0xffef0
    1348:	16fd                	addi	a3,a3,-1
	RF->RF3 = (RF->RF3 & 0xfffffeff) | 0x100;
    134a:	10076713          	ori	a4,a4,256
    134e:	c7d8                	sw	a4,12(a5)
	RF->RF1 = (RF->RF1 & 0xfffeffff) | 0x100000;
    1350:	43d8                	lw	a4,4(a5)
	NVIC->IPRIOR[0x15] |= 0x80;
    1352:	e000e4b7          	lui	s1,0xe000e
	RF->RF1 = (RF->RF1 & 0xfffeffff) | 0x100000;
    1356:	8f75                	and	a4,a4,a3
    1358:	001006b7          	lui	a3,0x100
    135c:	8f55                	or	a4,a4,a3
    135e:	c3d8                	sw	a4,4(a5)
	DevSetMode(0);
    1360:	e5bfe0ef          	jal	ra,1ba <DevSetMode>
	NVIC->IPRIOR[0x15] |= 0x80;
    1364:	4154c783          	lbu	a5,1045(s1) # e000e415 <_eusrstack+0xc0006415>
	funGpioInitAll();
	funPinMode(LED, GPIO_CFGLR_OUT_2Mhz_PP);
	funPinMode(INPUT1_PIN, GPIO_CFGLR_IN_PUPD);

	RFCoreInit(LL_TX_POWER_0_DBM);
	printf(".~ ch32fun iSLER ~.\n");
    1368:	6509                	lui	a0,0x2
    136a:	9fc50513          	addi	a0,a0,-1540 # 19fc <LLE_IRQHandler+0xd6>
    136e:	f807e793          	ori	a5,a5,-128
    1372:	0ff7f793          	andi	a5,a5,255
    1376:	40f48aa3          	sb	a5,1045(s1)
	NVIC->IENR[((uint32_t)(IRQn) >> 5)] = (1 << ((uint32_t)(IRQn) & 0x1F));
    137a:	002007b7          	lui	a5,0x200
    137e:	10f4a023          	sw	a5,256(s1)
    1382:	3c15                	jal	db6 <puts>
	blink(5);
    1384:	4515                	li	a0,5
    1386:	c22ff0ef          	jal	ra,7a8 <blink>
		*(&R32_PA_PD_DRV + OFFSET_FOR_GPIOB(pin)) &= ~(pin & ~PB);
    138a:	400017b7          	lui	a5,0x40001
    138e:	08078793          	addi	a5,a5,128 # 40001080 <_eusrstack+0x1fff9080>
    1392:	5bd8                	lw	a4,52(a5)
    1394:	76f1                	lui	a3,0xffffc
    1396:	16fd                	addi	a3,a3,-1
    1398:	8f75                	and	a4,a4,a3
    139a:	dbd8                	sw	a4,52(a5)
		*(&R32_PA_DIR + OFFSET_FOR_GPIOB(pin))    |= (pin & ~PB);
    139c:	5398                	lw	a4,32(a5)
    139e:	6691                	lui	a3,0x4
#ifdef CH5xx
	funPinMode( bMOSI, GPIO_CFGLR_OUT_2Mhz_PP );
	R8_SPI0_CLOCK_DIV = FUNCONF_SYSTEM_CORE_CLOCK / 3000000; // div = Fsys/3MHz
	R8_SPI0_CTRL_MOD = RB_SPI_ALL_CLEAR;
	R8_SPI0_CTRL_MOD = RB_SPI_MOSI_OE | RB_SPI_2WIRE_MOD;
	R16_SPI0_DMA_END = ( (uint32_t)WS2812dmabuff + (DMA_BUFFER_LEN * 2) );
    13a0:	12c18a93          	addi	s5,gp,300 # 20000528 <WS2812dmabuff>
    13a4:	8f55                	or	a4,a4,a3
    13a6:	d398                	sw	a4,32(a5)
	R8_SPI0_CLOCK_DIV = FUNCONF_SYSTEM_CORE_CLOCK / 3000000; // div = Fsys/3MHz
    13a8:	46d1                	li	a3,20
    13aa:	40004737          	lui	a4,0x40004
    13ae:	00d701a3          	sb	a3,3(a4) # 40004003 <_eusrstack+0x1fffc003>
	R16_SPI0_DMA_END = ( (uint32_t)WS2812dmabuff + (DMA_BUFFER_LEN * 2) );
    13b2:	0ac2                	slli	s5,s5,0x10
	R8_SPI0_CTRL_MOD = RB_SPI_ALL_CLEAR;
    13b4:	4689                	li	a3,2
    13b6:	00d70023          	sb	a3,0(a4)
	R16_SPI0_DMA_END = ( (uint32_t)WS2812dmabuff + (DMA_BUFFER_LEN * 2) );
    13ba:	010ada93          	srli	s5,s5,0x10
	R8_SPI0_CTRL_MOD = RB_SPI_MOSI_OE | RB_SPI_2WIRE_MOD;
    13be:	04400693          	li	a3,68
    13c2:	00d70023          	sb	a3,0(a4)
	R16_SPI0_DMA_END = ( (uint32_t)WS2812dmabuff + (DMA_BUFFER_LEN * 2) );
    13c6:	060a8693          	addi	a3,s5,96
    13ca:	06c2                	slli	a3,a3,0x10
    13cc:	82c1                	srli	a3,a3,0x10
    13ce:	00d71e23          	sh	a3,28(a4)
	R8_SPI0_CTRL_CFG |= RB_SPI_BIT_ORDER;
    13d2:	00174683          	lbu	a3,1(a4)
   uint32_t release_time;
   uint32_t press_time;
} Button_t;

void _reset_timers(uint8_t newState, Button_t *model) {
   model->btn_state = newState;
    13d6:	490d                	li	s2,3
    13d8:	0ff6f693          	andi	a3,a3,255
    13dc:	0206e693          	ori	a3,a3,32
    13e0:	00d700a3          	sb	a3,1(a4)
	NVIC->IENR[((uint32_t)(IRQn) >> 5)] = (1 << ((uint32_t)(IRQn) & 0x1F));
    13e4:	00080737          	lui	a4,0x80
    13e8:	10e4a023          	sw	a4,256(s1)
		*(&R32_PA_PD_DRV + OFFSET_FOR_GPIOB(pin)) &= ~(pin & ~PB);
    13ec:	5bd8                	lw	a4,52(a5)
	dataFrame->data_len = data_len;
    13ee:	c1018493          	addi	s1,gp,-1008 # 2000000c <dataFrame>
    13f2:	9b3d                	andi	a4,a4,-17
    13f4:	dbd8                	sw	a4,52(a5)
		*(&R32_PA_PU + OFFSET_FOR_GPIOB(pin))     |= (pin & ~PB);
    13f6:	5b98                	lw	a4,48(a5)
	memcpy(dataFrame->payload, cmd, data_len);
    13f8:	00e48b93          	addi	s7,s1,14
    13fc:	01076713          	ori	a4,a4,16
    1400:	db98                	sw	a4,48(a5)
		*(&R32_PA_DIR + OFFSET_FOR_GPIOB(pin))    &= ~(pin & ~PB);
    1402:	5398                	lw	a4,32(a5)
			ping_cmd.value1 = 0;
			ping_cmd.value2 = 0;
		}

		if (is_slave_device() == 0) {
			leds_frame.is_enabled = 1;
    1404:	ca018b13          	addi	s6,gp,-864 # 2000009c <leds_frame>
    1408:	9b3d                	andi	a4,a4,-17
    140a:	d398                	sw	a4,32(a5)
   model->debounce_time = millis();
    140c:	00042c03          	lw	s8,0(s0)
   model->release_time = millis();
    1410:	00042a03          	lw	s4,0(s0)
	Button_t button = {
    1414:	c202                	sw	zero,4(sp)
	uint32_t sec_time = 0;
    1416:	c402                	sw	zero,8(sp)
		if (ping_cmd.command == 0xF2 && millis() - delay_send > 200) {
    1418:	1a418c93          	addi	s9,gp,420 # 200005a0 <ping_cmd>
    141c:	000cc683          	lbu	a3,0(s9)
    1420:	0f200713          	li	a4,242
    1424:	06e69b63          	bne	a3,a4,149a <main+0x624>
    1428:	cd81a683          	lw	a3,-808(gp) # 200000d4 <delay_send>
    142c:	4018                	lw	a4,0(s0)
    142e:	8f15                	sub	a4,a4,a3
    1430:	0c800693          	li	a3,200
    1434:	06e6f363          	bgeu	a3,a4,149a <main+0x624>
			blink(1);
    1438:	4505                	li	a0,1
    143a:	b6eff0ef          	jal	ra,7a8 <blink>
			printf("Sending value1: %u, value2: %u\n", ping_cmd.value1, ping_cmd.value2);
    143e:	004ca703          	lw	a4,4(s9)
    1442:	008cc683          	lbu	a3,8(s9)
    1446:	000ca583          	lw	a1,0(s9)
    144a:	00875613          	srli	a2,a4,0x8
    144e:	06e2                	slli	a3,a3,0x18
    1450:	0762                	slli	a4,a4,0x18
    1452:	81a1                	srli	a1,a1,0x8
    1454:	6509                	lui	a0,0x2
    1456:	8e55                	or	a2,a2,a3
    1458:	8dd9                	or	a1,a1,a4
    145a:	a1050513          	addi	a0,a0,-1520 # 1a10 <LLE_IRQHandler+0xea>
    145e:	efcff0ef          	jal	ra,b5a <printf>
	dataFrame->data_len = data_len;
    1462:	4725                	li	a4,9
	memcpy(dataFrame->payload, cmd, data_len);
    1464:	4625                	li	a2,9
    1466:	85e6                	mv	a1,s9
    1468:	855e                	mv	a0,s7
	dataFrame->data_len = data_len;
    146a:	00e486a3          	sb	a4,13(s1)
	memcpy(dataFrame->payload, cmd, data_len);
    146e:	f26ff0ef          	jal	ra,b94 <memcpy>
			modiSLER_adv_data(&dataFrame);
    1472:	f3eff0ef          	jal	ra,bb0 <modiSLER_adv_data.constprop.0>
			ping_cmd.command = 0;
    1476:	000c8023          	sb	zero,0(s9)
			ping_cmd.value1 = 0;
    147a:	000c80a3          	sb	zero,1(s9)
    147e:	000c8123          	sb	zero,2(s9)
    1482:	000c81a3          	sb	zero,3(s9)
    1486:	000c8223          	sb	zero,4(s9)
			ping_cmd.value2 = 0;
    148a:	000c82a3          	sb	zero,5(s9)
    148e:	000c8323          	sb	zero,6(s9)
    1492:	000c83a3          	sb	zero,7(s9)
    1496:	000c8423          	sb	zero,8(s9)
	return funDigitalRead(INPUT1_PIN);
    149a:	40001737          	lui	a4,0x40001
    149e:	0a472703          	lw	a4,164(a4) # 400010a4 <_eusrstack+0x1fff90a4>
    14a2:	40077713          	andi	a4,a4,1024
		if (is_slave_device() == 0) {
    14a6:	eb3d                	bnez	a4,151c <main+0x6a6>
	uint32_t now = millis();
    14a8:	00042d03          	lw	s10,0(s0)
	if (now - *ref_time > duration) {
    14ac:	47a2                	lw	a5,8(sp)
			leds_frame.is_enabled = 1;
    14ae:	4705                	li	a4,1
    14b0:	00eb05a3          	sb	a4,11(s6)
    14b4:	6705                	lui	a4,0x1
    14b6:	40fd0633          	sub	a2,s10,a5
    14ba:	bb870713          	addi	a4,a4,-1096 # bb8 <modiSLER_adv_data.constprop.0+0x8>
    14be:	04c77f63          	bgeu	a4,a2,151c <main+0x6a6>

			if (systick_handleTimeout(&sec_time, 3000)) {
				blink(1);
    14c2:	4505                	li	a0,1
    14c4:	ae4ff0ef          	jal	ra,7a8 <blink>
				// stepper32_tick(&command_step, 1);
				// printf("Sending value: %08X\n", remote_cmd1.value1);

				remote_command_t remote_cmd1 = {
					.command = 0xF1,
					.value1 = counter++,
    14c8:	cd418613          	addi	a2,gp,-812 # 200000d0 <counter>
    14cc:	4218                	lw	a4,0(a2)
    14ce:	01a489a3          	sb	s10,19(s1)
    14d2:	00170593          	addi	a1,a4,1
    14d6:	c20c                	sw	a1,0(a2)
	dataFrame->data_len = data_len;
    14d8:	4625                	li	a2,9
    14da:	00c486a3          	sb	a2,13(s1)
	memcpy(dataFrame->payload, cmd, data_len);
    14de:	5645                	li	a2,-15
    14e0:	00c48723          	sb	a2,14(s1)
    14e4:	00875613          	srli	a2,a4,0x8
    14e8:	00e487a3          	sb	a4,15(s1)
    14ec:	00c48823          	sb	a2,16(s1)
    14f0:	01075613          	srli	a2,a4,0x10
    14f4:	8361                	srli	a4,a4,0x18
    14f6:	00e48923          	sb	a4,18(s1)
    14fa:	008d5713          	srli	a4,s10,0x8
    14fe:	00e48a23          	sb	a4,20(s1)
    1502:	010d5713          	srli	a4,s10,0x10
    1506:	00e48aa3          	sb	a4,21(s1)
    150a:	018d5713          	srli	a4,s10,0x18
    150e:	00c488a3          	sb	a2,17(s1)
    1512:	00e48b23          	sb	a4,22(s1)
				};
				// printf("[Master] Sending value1: %u, value2: %u\n", 
				// 	remote_cmd1.value1, remote_cmd1.value2);

				modiSLER_loadCommand(&dataFrame, &remote_cmd1, sizeof(remote_cmd1));
				modiSLER_adv_data(&dataFrame);
    1516:	e9aff0ef          	jal	ra,bb0 <modiSLER_adv_data.constprop.0>
		*ref_time = now;
    151a:	c46a                	sw	s10,8(sp)
			}
		}
		
		handle_receiving_frame(millis());
    151c:	401c                	lw	a5,0(s0)
	}
}

void Frame_RX(uint8_t frame_info[], uint8_t channel, uint8_t phy_mode) {
	DevSetMode(0);
    151e:	4501                	li	a0,0
    1520:	8d3e                	mv	s10,a5
    1522:	c99fe0ef          	jal	ra,1ba <DevSetMode>
	if(LL->LL0 & 3) {
    1526:	4000c737          	lui	a4,0x4000c
    152a:	20072683          	lw	a3,512(a4) # 4000c200 <_eusrstack+0x20004200>
    152e:	20070613          	addi	a2,a4,512
    1532:	8a8d                	andi	a3,a3,3
    1534:	ca91                	beqz	a3,1548 <main+0x6d2>
		LL->CTRL_MOD &= CTRL_MOD_RFSTOP;
    1536:	4a34                	lw	a3,80(a2)
    1538:	9ae1                	andi	a3,a3,-8
    153a:	ca34                	sw	a3,80(a2)
		LL->LL0 |= 0x08;
    153c:	20072683          	lw	a3,512(a4)
    1540:	0086e693          	ori	a3,a3,8
    1544:	20d72023          	sw	a3,512(a4)
	}
	LL->TMR = 0;
    1548:	4000c6b7          	lui	a3,0x4000c
    154c:	20068713          	addi	a4,a3,512 # 4000c200 <_eusrstack+0x20004200>
    1550:	06072223          	sw	zero,100(a4)
	RF->RF11 &= 0xfffffffd;
    1554:	4000d637          	lui	a2,0x4000d
    1558:	5658                	lw	a4,44(a2)

	DevSetChannel(channel);
	DevSetMode(DEVSETMODE_RX);
    155a:	0d900513          	li	a0,217
	RF->RF11 &= 0xfffffffd;
    155e:	9b75                	andi	a4,a4,-3
    1560:	d658                	sw	a4,44(a2)
	BB->CTRL_CFG = (BB->CTRL_CFG & 0xffffff80) | (channel & 0x7f);
    1562:	1006a603          	lw	a2,256(a3)
    1566:	f8067613          	andi	a2,a2,-128
    156a:	02566613          	ori	a2,a2,37
    156e:	10c6a023          	sw	a2,256(a3)
	DevSetMode(DEVSETMODE_RX);
    1572:	c49fe0ef          	jal	ra,1ba <DevSetMode>

#if defined(CH582_CH583) || defined(CH32V208)
	BB->CTRL_CFG = (phy_mode == PHY_2M) ? CTRL_CFG_PHY_2M:
				   (phy_mode == PHY_S2) ? CTRL_CFG_PHY_CODED:
				   (phy_mode == PHY_S8) ? CTRL_CFG_PHY_CODED:
										  CTRL_CFG_PHY_1M; // default 1M for now
    1576:	4000c6b7          	lui	a3,0x4000c
    157a:	1006a603          	lw	a2,256(a3) # 4000c100 <_eusrstack+0x20004100>
    157e:	75c5                	lui	a1,0xffff1
    1580:	15fd                	addi	a1,a1,-1
    1582:	8e6d                	and	a2,a2,a1
				   (phy_mode == PHY_S8) ? CTRL_CFG_PHY_CODED:
    1584:	6585                	lui	a1,0x1
    1586:	8e4d                	or	a2,a2,a1
	BB->CTRL_CFG = (phy_mode == PHY_2M) ? CTRL_CFG_PHY_2M:
    1588:	10c6a023          	sw	a2,256(a3)
	BB->BB7 = (BB->BB7 & 0xff00fc00) | ((phy_mode == PHY_2M) ? 0x7f00a0 : 0x79009c);
#elif defined(CH571_CH573)
	BB->BB11 = (BB->BB11 & 0xfffffffc) | 2; // no |2 for TX
#elif defined(CH582_CH583) || defined(CH32V208)
#if defined(CH582_CH583)
	BB->BB4 = (phy_mode < PHY_S2) ? 0x3722d0 : 0x3722df;
    158c:	4000c7b7          	lui	a5,0x4000c
    1590:	00372637          	lui	a2,0x372
    1594:	10078713          	addi	a4,a5,256 # 4000c100 <_eusrstack+0x20004100>
    1598:	2d060613          	addi	a2,a2,720 # 3722d0 <iSLER_mess.c.0d7236ba+0x36f207>
    159c:	cb10                	sw	a2,16(a4)
#elif defined(CH32V208)
	BB->BB4 = (phy_mode < PHY_S2) ? 0x3222d0 : 0x34a4df;
#endif
	BB->BB5 = (phy_mode < PHY_S2) ? 0x8101901 : 0x8301ff1;
    159e:	08102637          	lui	a2,0x8102
    15a2:	90160613          	addi	a2,a2,-1791 # 8101901 <iSLER_mess.c.0d7236ba+0x80fe838>
    15a6:	cb50                	sw	a2,20(a4)
	BB->BB6 = (phy_mode < PHY_S2) ? 0x31624 : 0x31619;
    15a8:	00031637          	lui	a2,0x31
    15ac:	62460613          	addi	a2,a2,1572 # 31624 <iSLER_mess.c.0d7236ba+0x2e55b>
    15b0:	cf10                	sw	a2,24(a4)
	BB->BB8 = (phy_mode < PHY_S2) ? 0x90083 : 0x90086;
    15b2:	00090637          	lui	a2,0x90
    15b6:	08360613          	addi	a2,a2,131 # 90083 <iSLER_mess.c.0d7236ba+0x8cfba>
    15ba:	d310                	sw	a2,32(a4)
	BB->BB9 = 0x1006310;
    15bc:	01006637          	lui	a2,0x1006
    15c0:	31060613          	addi	a2,a2,784 # 1006310 <iSLER_mess.c.0d7236ba+0x1003247>
    15c4:	d350                	sw	a2,36(a4)
	BB->BB10 = (phy_mode < PHY_S2) ? 0x28be : 0x28de;
    15c6:	660d                	lui	a2,0x3
    15c8:	8be60613          	addi	a2,a2,-1858 # 28be <ch32fun.c.e0983271+0x6b0>
    15cc:	d710                	sw	a2,40(a4)
#elif defined(CH584_CH585) || defined(CH591_CH592)
	BB->BB6 = (BB->BB6 & 0xfffffc00) | ((phy_mode == PHY_2M) ? 0x13a : 0x132);
	BB->BB4 = (BB->BB4 & 0x00ffffff) | ((phy_mode == PHY_2M) ? 0x78000000 : 0x7f000000);
#endif

	BB->ACCESSADDRESS1 = 0x8E89BED6; // access address
    15ce:	8e89c637          	lui	a2,0x8e89c
    15d2:	ed660613          	addi	a2,a2,-298 # 8e89bed6 <_eusrstack+0x6e893ed6>
    15d6:	c710                	sw	a2,8(a4)
	BB->CRCINIT1 = 0x555555; // crc init
    15d8:	00555637          	lui	a2,0x555
    15dc:	55560613          	addi	a2,a2,1365 # 555555 <iSLER_mess.c.0d7236ba+0x55248c>
    15e0:	c350                	sw	a2,4(a4)
#endif

	//LL->LL1 = (LL->LL1 & 0xfffffffe) | 1; // 1: AUTO mode, to swap between RX <-> TX when either happened. 0: BASIC
	//LL->FRAME_BUF = (uint32_t)frame_info; // also this only in AUTO mode

	LL->LL0 = 1; // Not sure what this does, but on TX it's 2
    15e2:	4705                	li	a4,1
    15e4:	20e6a023          	sw	a4,512(a3)
	rx_ready = 0;
    15e8:	cdc18693          	addi	a3,gp,-804 # 200000d8 <rx_ready>
    15ec:	0006a023          	sw	zero,0(a3)
    15f0:	cdc18713          	addi	a4,gp,-804 # 200000d8 <rx_ready>
	while(!rx_ready);
    15f4:	4314                	lw	a3,0(a4)
    15f6:	defd                	beqz	a3,15f4 <main+0x77e>

remote_command_t* modiSLER_rx_handler() {
	// The chip stores the incoming frame in LLE_BUF, defined in extralibs/iSLER.h
	uint8_t *frame = (uint8_t*)LLE_BUF;
	iSLER_frame_t* rx_frame = (iSLER_frame_t*)(frame + 2);
	uint8_t target_mac[] = { 0x11, 0x22, 0x33, 0x44, 0x55, 0x66 };
    15f8:	44332737          	lui	a4,0x44332
    15fc:	21170713          	addi	a4,a4,529 # 44332211 <_eusrstack+0x2432a211>
    1600:	d43a                	sw	a4,40(sp)
    1602:	6719                	lui	a4,0x6
    1604:	65570713          	addi	a4,a4,1621 # 6655 <iSLER_mess.c.0d7236ba+0x358c>

	if (memcmp(rx_frame->mac, target_mac, 6) == 0) {
    1608:	4619                	li	a2,6
    160a:	102c                	addi	a1,sp,40
    160c:	00298513          	addi	a0,s3,2
	uint8_t target_mac[] = { 0x11, 0x22, 0x33, 0x44, 0x55, 0x66 };
    1610:	02e11623          	sh	a4,44(sp)
	if (memcmp(rx_frame->mac, target_mac, 6) == 0) {
    1614:	f7cff0ef          	jal	ra,d90 <memcmp>
    1618:	0e051563          	bnez	a0,1702 <main+0x88c>
		blink(1);
    161c:	4505                	li	a0,1
    161e:	98aff0ef          	jal	ra,7a8 <blink>
		switch (cmd->command) {
    1622:	0339c683          	lbu	a3,51(s3)
    1626:	0f100613          	li	a2,241
    162a:	40001737          	lui	a4,0x40001
    162e:	10c68663          	beq	a3,a2,173a <main+0x8c4>
    1632:	0f200613          	li	a2,242
    1636:	14c68c63          	beq	a3,a2,178e <main+0x918>
    163a:	0bb00613          	li	a2,187
    163e:	0cc69263          	bne	a3,a2,1702 <main+0x88c>
	return funDigitalRead(INPUT1_PIN);
    1642:	0a472703          	lw	a4,164(a4) # 400010a4 <_eusrstack+0x1fff90a4>
    1646:	40077713          	andi	a4,a4,1024
				if (is_slave_device() > 0) {
    164a:	cf45                	beqz	a4,1702 <main+0x88c>
					Neo_loadCommand(cmd->value1);
    164c:	0349a703          	lw	a4,52(s3)
    printf("Neo_loadCommand: %02X\n", cmd);
    1650:	6509                	lui	a0,0x2
    1652:	a3050513          	addi	a0,a0,-1488 # 1a30 <LLE_IRQHandler+0x10a>
    1656:	0ff77593          	andi	a1,a4,255
    165a:	c63a                	sw	a4,12(sp)
    165c:	cfeff0ef          	jal	ra,b5a <printf>
    1660:	4732                	lw	a4,12(sp)
    1662:	cae18a23          	sb	a4,-844(gp) # 200000b0 <Neo_LedCmd>
    leds_frame.ref_time = millis();
    1666:	4018                	lw	a4,0(s0)
    leds_frame.is_enabled = 1;
    1668:	4685                	li	a3,1
    ARRAY_SET_VALUE(led_arr, 0);
    166a:	4661                	li	a2,24
    leds_frame.ref_time = millis();
    166c:	00eb2823          	sw	a4,16(s6)
    ARRAY_SET_VALUE(led_arr, 0);
    1670:	4581                	li	a1,0
    1672:	18c18513          	addi	a0,gp,396 # 20000588 <led_arr>
    leds_frame.is_enabled = 1;
    1676:	00db05a3          	sb	a3,11(s6)
    leds_frame.ref_index = 0;
    167a:	000b0723          	sb	zero,14(s6)
    color_ani.ref_index = 0;
    167e:	ca018ea3          	sb	zero,-835(gp) # 200000b9 <color_ani+0x5>
    ARRAY_SET_VALUE(led_arr, 0);
    1682:	d00ff0ef          	jal	ra,b82 <memset>
	uint32_t result; __ASM volatile( ADD_ARCH_ZICSR "csrr %0," "mstatus": "=r"(result) );
    1686:	30002773          	csrr	a4,mstatus
	result &= ~0x88; __ASM volatile( ADD_ARCH_ZICSR "csrw mstatus, %0" : : "r" (result) );
    168a:	f7777713          	andi	a4,a4,-137
    168e:	30071073          	csrw	mstatus,a4
	WS2812BLEDInUse = 1;
    1692:	4685                	li	a3,1
    1694:	ccd1a423          	sw	a3,-824(gp) # 200000c4 <WS2812BLEDInUse>
	R8_SPI0_INTER_EN &= ~RB_SPI_IE_DMA_END;
    1698:	40004737          	lui	a4,0x40004
    169c:	00274683          	lbu	a3,2(a4) # 40004002 <_eusrstack+0x1fffc002>
    16a0:	0f76f693          	andi	a3,a3,247
    16a4:	00d70123          	sb	a3,2(a4)
	R8_SPI0_CTRL_CFG &= ~RB_SPI_DMA_ENABLE;
    16a8:	00174683          	lbu	a3,1(a4)
    16ac:	0fe6f693          	andi	a3,a3,254
    16b0:	00d700a3          	sb	a3,1(a4)
	R16_SPI0_TOTAL_CNT = 0;
    16b4:	00071623          	sh	zero,12(a4)
	uint32_t result; __ASM volatile( ADD_ARCH_ZICSR "csrr %0," "mstatus": "=r"(result) );
    16b8:	300026f3          	csrr	a3,mstatus
	result |= 0x88;  __ASM volatile( ADD_ARCH_ZICSR "csrw mstatus, %0" : : "r" (result) );
    16bc:	0886e693          	ori	a3,a3,136
    16c0:	30069073          	csrw	mstatus,a3
	WS2812LEDs = leds;
    16c4:	4619                	li	a2,6
    16c6:	ccc1a823          	sw	a2,-816(gp) # 200000cc <WS2812LEDs>
	WS2812FillBuffSec( WS2812dmabuff, DMA_BUFFER_LEN, 0 );
    16ca:	4501                	li	a0,0
	WS2812LEDPlace = -WS2812B_RESET_PERIOD;
    16cc:	5679                	li	a2,-2
    16ce:	ccc1a623          	sw	a2,-820(gp) # 200000c8 <WS2812LEDPlace>
	WS2812FillBuffSec( WS2812dmabuff, DMA_BUFFER_LEN, 0 );
    16d2:	cabfe0ef          	jal	ra,37c <WS2812FillBuffSec.constprop.0>
	R16_SPI0_TOTAL_CNT = DMA_BUFFER_LEN * 2;
    16d6:	40004737          	lui	a4,0x40004
    16da:	06000693          	li	a3,96
    16de:	00d71623          	sh	a3,12(a4) # 4000400c <_eusrstack+0x1fffc00c>
	R16_SPI0_DMA_BEG = (uint32_t)WS2812dmabuff;
    16e2:	01571c23          	sh	s5,24(a4)
	R8_SPI0_INT_FLAG = RB_SPI_IF_CNT_END | RB_SPI_IF_DMA_END;
    16e6:	46a5                	li	a3,9
    16e8:	00d70323          	sb	a3,6(a4)
	R8_SPI0_INTER_EN = RB_SPI_IE_DMA_END;
    16ec:	46a1                	li	a3,8
    16ee:	00d70123          	sb	a3,2(a4)
	R8_SPI0_CTRL_CFG |= RB_SPI_DMA_ENABLE;
    16f2:	00174683          	lbu	a3,1(a4)
    16f6:	0ff6f693          	andi	a3,a3,255
    16fa:	0016e693          	ori	a3,a3,1
    16fe:	00d700a3          	sb	a3,1(a4)
}

void button_task(Button_t *model, void (*handler)(Button_Event_e, uint32_t)) {
   if (model->pin == 0xFF) return;
   
   uint32_t now = millis();
    1702:	4018                	lw	a4,0(s0)
   uint8_t read = funDigitalRead(model->pin);
    1704:	400016b7          	lui	a3,0x40001
    1708:	0a46a683          	lw	a3,164(a3) # 400010a4 <_eusrstack+0x1fff90a4>

   // Debounce check
   if (now - model->debounce_time < TICK_DEBOUNCE_DUR) return;
    170c:	418705b3          	sub	a1,a4,s8
    1710:	464d                	li	a2,19
    1712:	02b67163          	bgeu	a2,a1,1734 <main+0x8be>
   model->debounce_time = now;

   switch (model->btn_state) {
    1716:	4609                	li	a2,2
   uint8_t read = funDigitalRead(model->pin);
    1718:	8ac1                	andi	a3,a3,16
   switch (model->btn_state) {
    171a:	12c90a63          	beq	s2,a2,184e <main+0x9d8>
    171e:	460d                	li	a2,3
    1720:	08c90663          	beq	s2,a2,17ac <main+0x936>
    1724:	0a091c63          	bnez	s2,17dc <main+0x966>
            _reset_timers(BTN_DOWN, model);      // First Press  
         }
         break;

      case BTN_DOWN:
         if (read > 0) {
    1728:	cad1                	beqz	a3,17bc <main+0x946>
   model->debounce_time = millis();
    172a:	4018                	lw	a4,0(s0)
   model->btn_state = newState;
    172c:	4905                	li	s2,1
   model->release_time = millis();
    172e:	00042a03          	lw	s4,0(s0)
    1732:	a011                	j	1736 <main+0x8c0>
   if (now - model->debounce_time < TICK_DEBOUNCE_DUR) return;
    1734:	8762                	mv	a4,s8

         if (read < 1 && release_duration < TICK_CLICK_DUR) {
            // Second Press in less than TICK_CLICK_DUR
            _reset_timers(BTN_DOWN2, model);

         } else if (release_duration > TICK_CLICK_DUR) {
    1736:	8c3a                	mv	s8,a4
    1738:	b1d5                	j	141c <main+0x5a6>
	return funDigitalRead(INPUT1_PIN);
    173a:	0a472703          	lw	a4,164(a4)
    173e:	40077713          	andi	a4,a4,1024
				if (is_slave_device() > 0) {
    1742:	d361                	beqz	a4,1702 <main+0x88c>
					ping_cmd.command = 0xF2;
    1744:	5749                	li	a4,-14
    1746:	00ec8023          	sb	a4,0(s9)
					ping_cmd.value1 = cmd->value1;
    174a:	0349a703          	lw	a4,52(s3)
    174e:	00875693          	srli	a3,a4,0x8
    1752:	00ec80a3          	sb	a4,1(s9)
    1756:	00dc8123          	sb	a3,2(s9)
    175a:	01075693          	srli	a3,a4,0x10
    175e:	8361                	srli	a4,a4,0x18
    1760:	00ec8223          	sb	a4,4(s9)
					ping_cmd.value2 = cmd->value2;
    1764:	0389a703          	lw	a4,56(s3)
					ping_cmd.value1 = cmd->value1;
    1768:	00dc81a3          	sb	a3,3(s9)
					ping_cmd.value2 = cmd->value2;
    176c:	00875693          	srli	a3,a4,0x8
    1770:	00ec82a3          	sb	a4,5(s9)
    1774:	00dc8323          	sb	a3,6(s9)
    1778:	01075693          	srli	a3,a4,0x10
    177c:	8361                	srli	a4,a4,0x18
    177e:	00ec8423          	sb	a4,8(s9)
					delay_send = millis();
    1782:	4018                	lw	a4,0(s0)
					ping_cmd.value2 = cmd->value2;
    1784:	00dc83a3          	sb	a3,7(s9)
					delay_send = millis();
    1788:	cce1ac23          	sw	a4,-808(gp) # 200000d4 <delay_send>
    178c:	bf9d                	j	1702 <main+0x88c>
	return funDigitalRead(INPUT1_PIN);
    178e:	0a472703          	lw	a4,164(a4)
    1792:	40077713          	andi	a4,a4,1024
				if (is_slave_device() == 0) {
    1796:	f735                	bnez	a4,1702 <main+0x88c>
					printf("time_diff: %d\n", time - cmd->value2);
    1798:	0389a583          	lw	a1,56(s3)
    179c:	6509                	lui	a0,0x2
    179e:	a4850513          	addi	a0,a0,-1464 # 1a48 <LLE_IRQHandler+0x122>
    17a2:	40bd05b3          	sub	a1,s10,a1
    17a6:	bb4ff0ef          	jal	ra,b5a <printf>
    17aa:	bfa1                	j	1702 <main+0x88c>
         if (read < 1) {
    17ac:	f6c9                	bnez	a3,1736 <main+0x8c0>
   model->debounce_time = millis();
    17ae:	4014                	lw	a3,0(s0)
            model->press_time = now;
    17b0:	c23a                	sw	a4,4(sp)
   model->release_time = millis();
    17b2:	00042a03          	lw	s4,0(s0)
   model->debounce_time = millis();
    17b6:	8736                	mv	a4,a3
   model->btn_state = newState;
    17b8:	4901                	li	s2,0
    17ba:	bfb5                	j	1736 <main+0x8c0>
            uint32_t press_duration = now - model->press_time;
    17bc:	4792                	lw	a5,4(sp)
            if (press_duration > TICK_LONG_PRESS_DUR) {
    17be:	6685                	lui	a3,0x1
    17c0:	fa068693          	addi	a3,a3,-96 # fa0 <main+0x12a>
            uint32_t press_duration = now - model->press_time;
    17c4:	40f70633          	sub	a2,a4,a5
            if (press_duration > TICK_LONG_PRESS_DUR) {
    17c8:	f6c6f7e3          	bgeu	a3,a2,1736 <main+0x8c0>
			printf("Long Press\n"); break;
    17cc:	6509                	lui	a0,0x2
    17ce:	a5850513          	addi	a0,a0,-1448 # 1a58 <LLE_IRQHandler+0x132>
    17d2:	c63a                	sw	a4,12(sp)
    17d4:	de2ff0ef          	jal	ra,db6 <puts>
    17d8:	4732                	lw	a4,12(sp)
    17da:	bfb1                	j	1736 <main+0x8c0>
         uint32_t release_duration = now - model->release_time;
    17dc:	41470633          	sub	a2,a4,s4
         if (read < 1 && release_duration < TICK_CLICK_DUR) {
    17e0:	ea91                	bnez	a3,17f4 <main+0x97e>
    17e2:	09f00693          	li	a3,159
    17e6:	00c6e763          	bltu	a3,a2,17f4 <main+0x97e>
   model->debounce_time = millis();
    17ea:	4018                	lw	a4,0(s0)
   model->btn_state = newState;
    17ec:	4909                	li	s2,2
   model->release_time = millis();
    17ee:	00042a03          	lw	s4,0(s0)
    17f2:	b791                	j	1736 <main+0x8c0>
         } else if (release_duration > TICK_CLICK_DUR) {
    17f4:	0a000693          	li	a3,160
    17f8:	4905                	li	s2,1
    17fa:	f2c6fee3          	bgeu	a3,a2,1736 <main+0x8c0>
			printf("Single Click\n");
    17fe:	6509                	lui	a0,0x2
	remote_command_t button_cmd = {
    1800:	020106a3          	sb	zero,45(sp)
    1804:	02010723          	sb	zero,46(sp)
    1808:	020107a3          	sb	zero,47(sp)
    180c:	02010823          	sb	zero,48(sp)
			printf("Single Click\n");
    1810:	a6450513          	addi	a0,a0,-1436 # 1a64 <LLE_IRQHandler+0x13e>
			printf("Double Click\n");
    1814:	da2ff0ef          	jal	ra,db6 <puts>
	dataFrame->data_len = data_len;
    1818:	4725                	li	a4,9
    181a:	00e486a3          	sb	a4,13(s1)
	memcpy(dataFrame->payload, cmd, data_len);
    181e:	4625                	li	a2,9
    1820:	faa00713          	li	a4,-86
    1824:	102c                	addi	a1,sp,40
    1826:	855e                	mv	a0,s7
    1828:	02e10423          	sb	a4,40(sp)
    182c:	032104a3          	sb	s2,41(sp)
    1830:	02010523          	sb	zero,42(sp)
    1834:	020105a3          	sb	zero,43(sp)
    1838:	02010623          	sb	zero,44(sp)
    183c:	b58ff0ef          	jal	ra,b94 <memcpy>
			modiSLER_adv_data(&dataFrame);
    1840:	b70ff0ef          	jal	ra,bb0 <modiSLER_adv_data.constprop.0>
   model->debounce_time = millis();
    1844:	4018                	lw	a4,0(s0)
   model->btn_state = newState;
    1846:	490d                	li	s2,3
   model->release_time = millis();
    1848:	00042a03          	lw	s4,0(s0)
    184c:	b5ed                	j	1736 <main+0x8c0>
         break;
      }

      case BTN_DOWN2:
         // Second release
         if (read > 0) {
    184e:	ee0684e3          	beqz	a3,1736 <main+0x8c0>
			printf("Double Click\n");
    1852:	6509                	lui	a0,0x2
	remote_command_t button_cmd = {
    1854:	020106a3          	sb	zero,45(sp)
    1858:	02010723          	sb	zero,46(sp)
    185c:	020107a3          	sb	zero,47(sp)
    1860:	02010823          	sb	zero,48(sp)
			printf("Double Click\n");
    1864:	a7450513          	addi	a0,a0,-1420 # 1a74 <LLE_IRQHandler+0x14e>
    1868:	b775                	j	1814 <main+0x99e>

0000186a <SysTick_Handler>:
{
    186a:	1101                	addi	sp,sp,-32
    186c:	c63a                	sw	a4,12(sp)
	SysTick->CMP += SYSTICK_ONE_MILLISECOND;
    186e:	e000f737          	lui	a4,0xe000f
{
    1872:	c242                	sw	a6,4(sp)
	SysTick->CMP += SYSTICK_ONE_MILLISECOND;
    1874:	01072803          	lw	a6,16(a4) # e000f010 <_eusrstack+0xc0007010>
{
    1878:	c43e                	sw	a5,8(sp)
	SysTick->CMP += SYSTICK_ONE_MILLISECOND;
    187a:	67bd                	lui	a5,0xf
{
    187c:	c046                	sw	a7,0(sp)
	SysTick->CMP += SYSTICK_ONE_MILLISECOND;
    187e:	a6078793          	addi	a5,a5,-1440 # ea60 <iSLER_mess.c.0d7236ba+0xb997>
    1882:	01472883          	lw	a7,20(a4)
    1886:	97c2                	add	a5,a5,a6
{
    1888:	ce2a                	sw	a0,28(sp)
    188a:	c836                	sw	a3,16(sp)
    188c:	cc2e                	sw	a1,24(sp)
    188e:	ca32                	sw	a2,20(sp)
	SysTick->CMP += SYSTICK_ONE_MILLISECOND;
    1890:	0107b533          	sltu	a0,a5,a6
    1894:	cb1c                	sw	a5,16(a4)
    1896:	011506b3          	add	a3,a0,a7
    189a:	cb54                	sw	a3,20(a4)
	SysTick->SR = 0x00000000;
    189c:	00072223          	sw	zero,4(a4)
	systick_millis++;
    18a0:	ce018793          	addi	a5,gp,-800 # 200000dc <systick_millis>
    18a4:	4398                	lw	a4,0(a5)
}
    18a6:	4572                	lw	a0,28(sp)
    18a8:	45e2                	lw	a1,24(sp)
	systick_millis++;
    18aa:	0705                	addi	a4,a4,1
    18ac:	c398                	sw	a4,0(a5)
}
    18ae:	4652                	lw	a2,20(sp)
    18b0:	46c2                	lw	a3,16(sp)
    18b2:	4732                	lw	a4,12(sp)
    18b4:	47a2                	lw	a5,8(sp)
    18b6:	4812                	lw	a6,4(sp)
    18b8:	4882                	lw	a7,0(sp)
    18ba:	6105                	addi	sp,sp,32
    18bc:	30200073          	mret

000018c0 <SPI0_IRQHandler>:
{
    18c0:	715d                	addi	sp,sp,-80
    18c2:	de22                	sw	s0,60(sp)
    18c4:	c686                	sw	ra,76(sp)
    18c6:	c496                	sw	t0,72(sp)
    18c8:	c29a                	sw	t1,68(sp)
    18ca:	c09e                	sw	t2,64(sp)
    18cc:	dc2a                	sw	a0,56(sp)
    18ce:	da2e                	sw	a1,52(sp)
    18d0:	d832                	sw	a2,48(sp)
    18d2:	d636                	sw	a3,44(sp)
    18d4:	d43a                	sw	a4,40(sp)
    18d6:	d23e                	sw	a5,36(sp)
    18d8:	d042                	sw	a6,32(sp)
    18da:	ce46                	sw	a7,28(sp)
    18dc:	cc72                	sw	t3,24(sp)
    18de:	ca76                	sw	t4,20(sp)
    18e0:	c87a                	sw	t5,16(sp)
    18e2:	c67e                	sw	t6,12(sp)
	uint8_t intf = R8_SPI0_INT_FLAG;
    18e4:	40004437          	lui	s0,0x40004
    18e8:	00644783          	lbu	a5,6(s0) # 40004006 <_eusrstack+0x1fffc006>
	if( (intf & RB_SPI_IF_DMA_END) )
    18ec:	8ba1                	andi	a5,a5,8
    18ee:	cb81                	beqz	a5,18fe <SPI0_IRQHandler+0x3e>
		WS2812FillBuffSec( WS2812dmabuff, DMA_BUFFER_LEN, 1 );
    18f0:	4505                	li	a0,1
    18f2:	a8bfe0ef          	jal	ra,37c <WS2812FillBuffSec.constprop.0>
		R16_SPI0_TOTAL_CNT = DMA_BUFFER_LEN * 2;
    18f6:	06000793          	li	a5,96
    18fa:	00f41623          	sh	a5,12(s0)
}
    18fe:	5472                	lw	s0,60(sp)
    1900:	40b6                	lw	ra,76(sp)
    1902:	42a6                	lw	t0,72(sp)
    1904:	4316                	lw	t1,68(sp)
    1906:	4386                	lw	t2,64(sp)
    1908:	5562                	lw	a0,56(sp)
    190a:	55d2                	lw	a1,52(sp)
    190c:	5642                	lw	a2,48(sp)
    190e:	56b2                	lw	a3,44(sp)
    1910:	5722                	lw	a4,40(sp)
    1912:	5792                	lw	a5,36(sp)
    1914:	5802                	lw	a6,32(sp)
    1916:	48f2                	lw	a7,28(sp)
    1918:	4e62                	lw	t3,24(sp)
    191a:	4ed2                	lw	t4,20(sp)
    191c:	4f42                	lw	t5,16(sp)
    191e:	4fb2                	lw	t6,12(sp)
    1920:	6161                	addi	sp,sp,80
    1922:	30200073          	mret

00001926 <LLE_IRQHandler>:
void LLE_IRQHandler() {
    1926:	7139                	addi	sp,sp,-64
    1928:	cc3e                	sw	a5,24(sp)
	if((LL->STATUS & (1<<14)) && (LL->INT_EN & (1<<14))) {
    192a:	4000c7b7          	lui	a5,0x4000c
    192e:	20078793          	addi	a5,a5,512 # 4000c200 <_eusrstack+0x20004200>
void LLE_IRQHandler() {
    1932:	d036                	sw	a3,32(sp)
	if((LL->STATUS & (1<<14)) && (LL->INT_EN & (1<<14))) {
    1934:	4794                	lw	a3,8(a5)
void LLE_IRQHandler() {
    1936:	ce3a                	sw	a4,28(sp)
	if((LL->STATUS & (1<<14)) && (LL->INT_EN & (1<<14))) {
    1938:	6711                	lui	a4,0x4
void LLE_IRQHandler() {
    193a:	de06                	sw	ra,60(sp)
    193c:	dc16                	sw	t0,56(sp)
    193e:	da1a                	sw	t1,52(sp)
    1940:	d81e                	sw	t2,48(sp)
    1942:	d62a                	sw	a0,44(sp)
    1944:	d42e                	sw	a1,40(sp)
    1946:	d232                	sw	a2,36(sp)
    1948:	ca42                	sw	a6,20(sp)
    194a:	c846                	sw	a7,16(sp)
    194c:	c672                	sw	t3,12(sp)
    194e:	c476                	sw	t4,8(sp)
    1950:	c27a                	sw	t5,4(sp)
    1952:	c07e                	sw	t6,0(sp)
	if((LL->STATUS & (1<<14)) && (LL->INT_EN & (1<<14))) {
    1954:	8ef9                	and	a3,a3,a4
    1956:	cea9                	beqz	a3,19b0 <LLE_IRQHandler+0x8a>
    1958:	47d4                	lw	a3,12(a5)
    195a:	8ef9                	and	a3,a3,a4
    195c:	cab1                	beqz	a3,19b0 <LLE_IRQHandler+0x8a>
		LL->LL26 = 0xffffffff;
    195e:	56fd                	li	a3,-1
    1960:	d7b4                	sw	a3,104(a5)
		LL->STATUS = 0x4000;
    1962:	c798                	sw	a4,8(a5)
	DevSetMode(0);
    1964:	4501                	li	a0,0
    1966:	855fe0ef          	jal	ra,1ba <DevSetMode>
	LL->CTRL_MOD &= CTRL_MOD_RFSTOP;
    196a:	4000c7b7          	lui	a5,0x4000c
    196e:	20078693          	addi	a3,a5,512 # 4000c200 <_eusrstack+0x20004200>
    1972:	4ab8                	lw	a4,80(a3)
}
    1974:	50f2                	lw	ra,60(sp)
    1976:	52e2                	lw	t0,56(sp)
	LL->CTRL_MOD &= CTRL_MOD_RFSTOP;
    1978:	9b61                	andi	a4,a4,-8
    197a:	cab8                	sw	a4,80(a3)
	LL->LL0 |= 0x08;
    197c:	2007a703          	lw	a4,512(a5)
}
    1980:	5352                	lw	t1,52(sp)
    1982:	53c2                	lw	t2,48(sp)
	LL->LL0 |= 0x08;
    1984:	00876713          	ori	a4,a4,8
    1988:	20e7a023          	sw	a4,512(a5)
	rx_ready = 1;
    198c:	4705                	li	a4,1
    198e:	cce1ae23          	sw	a4,-804(gp) # 200000d8 <rx_ready>
}
    1992:	5532                	lw	a0,44(sp)
    1994:	55a2                	lw	a1,40(sp)
    1996:	5612                	lw	a2,36(sp)
    1998:	5682                	lw	a3,32(sp)
    199a:	4772                	lw	a4,28(sp)
    199c:	47e2                	lw	a5,24(sp)
    199e:	4852                	lw	a6,20(sp)
    19a0:	48c2                	lw	a7,16(sp)
    19a2:	4e32                	lw	t3,12(sp)
    19a4:	4ea2                	lw	t4,8(sp)
    19a6:	4f12                	lw	t5,4(sp)
    19a8:	4f82                	lw	t6,0(sp)
    19aa:	6121                	addi	sp,sp,64
    19ac:	30200073          	mret
		LL->STATUS &= LL->INT_EN;
    19b0:	4000c7b7          	lui	a5,0x4000c
    19b4:	20078713          	addi	a4,a5,512 # 4000c200 <_eusrstack+0x20004200>
    19b8:	4750                	lw	a2,12(a4)
    19ba:	4714                	lw	a3,8(a4)
		BB->CTRL_TX = (BB->CTRL_TX & 0xfffffffc) | 1;
    19bc:	10078793          	addi	a5,a5,256
		LL->STATUS &= LL->INT_EN;
    19c0:	8ef1                	and	a3,a3,a2
    19c2:	c714                	sw	a3,8(a4)
		BB->CTRL_TX = (BB->CTRL_TX & 0xfffffffc) | 1;
    19c4:	57d8                	lw	a4,44(a5)
    19c6:	9b71                	andi	a4,a4,-4
    19c8:	00176713          	ori	a4,a4,1
    19cc:	d7d8                	sw	a4,44(a5)
    19ce:	bf59                	j	1964 <LLE_IRQHandler+0x3e>
    19d0:	6562                	flw	fa0,24(sp)
    19d2:	2d65                	jal	208a <_data_lma+0x4be>
    19d4:	3535                	jal	1800 <main+0x98a>
    19d6:	0035                	c.nop	13
	...
    19e4:	047a                	slli	s0,s0,0x1e
    19e6:	0000                	unimp
    19e8:	0542                	slli	a0,a0,0x10
    19ea:	0000                	unimp
    19ec:	05b0                	addi	a2,sp,712
    19ee:	0000                	unimp
    19f0:	06a2                	slli	a3,a3,0x8
    19f2:	0000                	unimp
    19f4:	0766                	slli	a4,a4,0x19
    19f6:	0000                	unimp
    19f8:	000a                	c.slli	zero,0x2
    19fa:	0000                	unimp
    19fc:	7e2e                	flw	ft8,232(sp)
    19fe:	6320                	flw	fs0,64(a4)
    1a00:	3368                	fld	fa0,224(a4)
    1a02:	6632                	flw	fa2,12(sp)
    1a04:	6e75                	lui	t3,0x1d
    1a06:	6920                	flw	fs0,80(a0)
    1a08:	52454c53          	0x52454c53
    1a0c:	7e20                	flw	fs0,120(a2)
    1a0e:	002e                	c.slli	zero,0xb
    1a10:	646e6553          	0x646e6553
    1a14:	6e69                	lui	t3,0x1a
    1a16:	61762067          	0x61762067
    1a1a:	756c                	flw	fa1,108(a0)
    1a1c:	3165                	jal	16c4 <main+0x84e>
    1a1e:	203a                	fld	ft0,392(sp)
    1a20:	7525                	lui	a0,0xfffe9
    1a22:	202c                	fld	fa1,64(s0)
    1a24:	6176                	flw	ft2,92(sp)
    1a26:	756c                	flw	fa1,108(a0)
    1a28:	3265                	jal	13d0 <main+0x55a>
    1a2a:	203a                	fld	ft0,392(sp)
    1a2c:	7525                	lui	a0,0xfffe9
    1a2e:	000a                	c.slli	zero,0x2
    1a30:	654e                	flw	fa0,208(sp)
    1a32:	6f6c5f6f          	jal	t5,c7128 <iSLER_mess.c.0d7236ba+0xc405f>
    1a36:	6461                	lui	s0,0x18
    1a38:	6d6d6f43          	0x6d6d6f43
    1a3c:	6e61                	lui	t3,0x18
    1a3e:	3a64                	fld	fs1,240(a2)
    1a40:	2520                	fld	fs0,72(a0)
    1a42:	3230                	fld	fa2,96(a2)
    1a44:	0a58                	addi	a4,sp,276
    1a46:	0000                	unimp
    1a48:	6974                	flw	fa3,84(a0)
    1a4a:	656d                	lui	a0,0x1b
    1a4c:	645f 6669 3a66      	0x3a666669645f
    1a52:	2520                	fld	fs0,72(a0)
    1a54:	0a64                	addi	s1,sp,284
    1a56:	0000                	unimp
    1a58:	6f4c                	flw	fa1,28(a4)
    1a5a:	676e                	flw	fa4,216(sp)
    1a5c:	5020                	lw	s0,96(s0)
    1a5e:	6572                	flw	fa0,28(sp)
    1a60:	00007373          	csrrci	t1,ustatus,0
    1a64:	676e6953          	0x676e6953
    1a68:	656c                	flw	fa1,76(a0)
    1a6a:	4320                	lw	s0,64(a4)
    1a6c:	696c                	flw	fa1,84(a0)
    1a6e:	00006b63          	bltu	zero,zero,1a84 <SIN_LUT>
    1a72:	0000                	unimp
    1a74:	6f44                	flw	fs1,28(a4)
    1a76:	6275                	lui	tp,0x1d
    1a78:	656c                	flw	fa1,76(a0)
    1a7a:	4320                	lw	s0,64(a4)
    1a7c:	696c                	flw	fa1,84(a0)
    1a7e:	00006b63          	bltu	zero,zero,1a94 <SIN_LUT+0x10>
	...

00001a84 <SIN_LUT>:
    1a84:	01010100 02020101 05040403 09080706     ................
    1a94:	0e0d0b0a 14131110 1b1a1816 24211f1d     ..............!$
    1aa4:	2d2a2826 3634312f 413e3c39 4c494744     &(*-/1469<>ADGIL
    1ab4:	5855524f 64615e5b 706d6a67 7d797673     ORUX[^adgjmpsvy}
    1ac4:	89868380 95928f8c a29f9c99 adaba8a5     ................
    1ad4:	b9b6b3b0 c4c1bebc cecbc9c6 d7d5d3d0     ................
    1ae4:	e0dedcda e8e6e4e2 eeedebe9 f4f3f1f0     ................
    1af4:	f8f7f6f5 fcfbfaf9 fefefdfc fffffffe     ................
    1b04:	ffffffff fdfefefe fafbfcfc f6f7f8f9     ................
    1b14:	f1f3f4f5 ebedeef0 e4e6e8e9 dcdee0e2     ................
    1b24:	d3d5d7da c9cbced0 bec1c4c6 b3b6b9bc     ................
    1b34:	a8abadb0 9c9fa2a5 8f929599 8386898c     ................
    1b44:	76797d80 6a6d7073 5e616467 5255585b     .}yvspmjgda^[XUR
    1b54:	47494c4f 3c3e4144 31343639 282a2d2f     OLIGDA><9641/-*(
    1b64:	1f212426 181a1b1d 11131416 0b0d0e10     &$!.............
    1b74:	0708090a 04040506 01020203 01010101     ................

00001b84 <bitquartets.0>:
    1b84:	71111111 77111711 71711171 77711771     ...q...wq.qqq.qw
    1b94:	71171117 77171717 71771177 77771777     ...q...ww.wqw.ww

00001ba4 <channel_map>:
    1ba4:	04030201 08070605 0d0c0a09 11100f0e     ................
    1bb4:	15141312 19181716 1d1c1b1a 21201f1e     .............. !
    1bc4:	25242322 270b0026                       "#$%&..'
