Archive member included to satisfy reference by file (symbol)

../ch32fun/ch32fun//../misc\libgcc.a(muldi3.o)
                              C:\Users\uni\AppData\Local\Temp\ch32-mess.elf.cpk3MF.ltrans0.ltrans.o (__mulsi3)
../ch32fun/ch32fun//../misc\libgcc.a(div.o)
                              C:\Users\uni\AppData\Local\Temp\ch32-mess.elf.cpk3MF.ltrans0.ltrans.o (__divsi3)

Discarded input sections

 .text          0x0000000000000000        0x0 C:\Users\uni\AppData\Local\Temp\ch32-mess.elf.cpk3MF.ltrans0.ltrans.o
 .data          0x0000000000000000        0x0 C:\Users\uni\AppData\Local\Temp\ch32-mess.elf.cpk3MF.ltrans0.ltrans.o
 .bss           0x0000000000000000        0x0 C:\Users\uni\AppData\Local\Temp\ch32-mess.elf.cpk3MF.ltrans0.ltrans.o
 .text._puts    0x0000000000000000       0x42 C:\Users\uni\AppData\Local\Temp\ch32-mess.elf.cpk3MF.ltrans0.ltrans.o
 .text.vprintf  0x0000000000000000       0x16 C:\Users\uni\AppData\Local\Temp\ch32-mess.elf.cpk3MF.ltrans0.ltrans.o
 .text.mini_vsnprintf
                0x0000000000000000       0x3a C:\Users\uni\AppData\Local\Temp\ch32-mess.elf.cpk3MF.ltrans0.ltrans.o
 .text.snprintf
                0x0000000000000000       0x1c C:\Users\uni\AppData\Local\Temp\ch32-mess.elf.cpk3MF.ltrans0.ltrans.o
 .text.sprintf  0x0000000000000000       0x28 C:\Users\uni\AppData\Local\Temp\ch32-mess.elf.cpk3MF.ltrans0.ltrans.o
 .text.strcpy   0x0000000000000000       0x14 C:\Users\uni\AppData\Local\Temp\ch32-mess.elf.cpk3MF.ltrans0.ltrans.o
 .text.strncpy  0x0000000000000000       0x1c C:\Users\uni\AppData\Local\Temp\ch32-mess.elf.cpk3MF.ltrans0.ltrans.o
 .text.strcmp   0x0000000000000000       0x1a C:\Users\uni\AppData\Local\Temp\ch32-mess.elf.cpk3MF.ltrans0.ltrans.o
 .text.strncmp  0x0000000000000000       0x2e C:\Users\uni\AppData\Local\Temp\ch32-mess.elf.cpk3MF.ltrans0.ltrans.o
 .text.strchr   0x0000000000000000       0x16 C:\Users\uni\AppData\Local\Temp\ch32-mess.elf.cpk3MF.ltrans0.ltrans.o
 .text.strrchr  0x0000000000000000       0x3c C:\Users\uni\AppData\Local\Temp\ch32-mess.elf.cpk3MF.ltrans0.ltrans.o
 .text.memcmp   0x0000000000000000       0x26 C:\Users\uni\AppData\Local\Temp\ch32-mess.elf.cpk3MF.ltrans0.ltrans.o
 .text.memmove  0x0000000000000000       0x5e C:\Users\uni\AppData\Local\Temp\ch32-mess.elf.cpk3MF.ltrans0.ltrans.o
 .text.memchr   0x0000000000000000       0x1c C:\Users\uni\AppData\Local\Temp\ch32-mess.elf.cpk3MF.ltrans0.ltrans.o
 .text.strnlen  0x0000000000000000       0x2a C:\Users\uni\AppData\Local\Temp\ch32-mess.elf.cpk3MF.ltrans0.ltrans.o
 .text.twoway_strstr
                0x0000000000000000      0x236 C:\Users\uni\AppData\Local\Temp\ch32-mess.elf.cpk3MF.ltrans0.ltrans.o
 .text.strstr   0x0000000000000000      0x140 C:\Users\uni\AppData\Local\Temp\ch32-mess.elf.cpk3MF.ltrans0.ltrans.o
 .rodata.puts.str1.4
                0x0000000000000000        0x2 C:\Users\uni\AppData\Local\Temp\ch32-mess.elf.cpk3MF.ltrans0.ltrans.o
 .text.puts     0x0000000000000000       0x40 C:\Users\uni\AppData\Local\Temp\ch32-mess.elf.cpk3MF.ltrans0.ltrans.o
 .text.putchar  0x0000000000000000       0x72 C:\Users\uni\AppData\Local\Temp\ch32-mess.elf.cpk3MF.ltrans0.ltrans.o
 .text.EHSVtoHEX
                0x0000000000000000      0x1e0 C:\Users\uni\AppData\Local\Temp\ch32-mess.elf.cpk3MF.ltrans0.ltrans.o
 .data.ADCPrescTable.lto_priv.0
                0x0000000000000000       0x14 C:\Users\uni\AppData\Local\Temp\ch32-mess.elf.cpk3MF.ltrans0.ltrans.o
 .data.ADCPrescTable.lto_priv.1
                0x0000000000000000       0x14 C:\Users\uni\AppData\Local\Temp\ch32-mess.elf.cpk3MF.ltrans0.ltrans.o
 .data.ADCPrescTable.lto_priv.2
                0x0000000000000000       0x14 C:\Users\uni\AppData\Local\Temp\ch32-mess.elf.cpk3MF.ltrans0.ltrans.o
 .data.ADCPrescTable.lto_priv.3
                0x0000000000000000       0x14 C:\Users\uni\AppData\Local\Temp\ch32-mess.elf.cpk3MF.ltrans0.ltrans.o
 .data.APBAHBPrescTable.lto_priv.0
                0x0000000000000000       0x10 C:\Users\uni\AppData\Local\Temp\ch32-mess.elf.cpk3MF.ltrans0.ltrans.o
 .data.APBAHBPrescTable.lto_priv.1
                0x0000000000000000       0x10 C:\Users\uni\AppData\Local\Temp\ch32-mess.elf.cpk3MF.ltrans0.ltrans.o
 .data.APBAHBPrescTable.lto_priv.2
                0x0000000000000000       0x10 C:\Users\uni\AppData\Local\Temp\ch32-mess.elf.cpk3MF.ltrans0.ltrans.o
 .data.APBAHBPrescTable.lto_priv.3
                0x0000000000000000       0x10 C:\Users\uni\AppData\Local\Temp\ch32-mess.elf.cpk3MF.ltrans0.ltrans.o
 .data.i2c_registers
                0x0000000000000000       0x20 C:\Users\uni\AppData\Local\Temp\ch32-mess.elf.cpk3MF.ltrans0.ltrans.o
 .sbss.adc_buffer
                0x0000000000000000        0x4 C:\Users\uni\AppData\Local\Temp\ch32-mess.elf.cpk3MF.ltrans0.ltrans.o
 .comment       0x0000000000000000       0x13 C:\Users\uni\AppData\Local\Temp\ch32-mess.elf.cpk3MF.ltrans0.ltrans.o
 .comment       0x0000000000000000       0x13 C:\Users\uni\AppData\Local\Temp\ccaeBfEL.debug.temp.o
 .comment       0x0000000000000000       0x13 C:\Users\uni\AppData\Local\Temp\ccsJx7Il.debug.temp.o
 .comment       0x0000000000000000       0x13 C:\Users\uni\AppData\Local\Temp\ccaUmASV.debug.temp.o
 .debug_info    0x0000000000000000      0x56f C:\Users\uni\AppData\Local\Temp\ccWoZPev.debug.temp.o
 .debug_abbrev  0x0000000000000000      0x13d C:\Users\uni\AppData\Local\Temp\ccWoZPev.debug.temp.o
 .debug_line    0x0000000000000000       0xb9 C:\Users\uni\AppData\Local\Temp\ccWoZPev.debug.temp.o
 .debug_str     0x0000000000000000      0x637 C:\Users\uni\AppData\Local\Temp\ccWoZPev.debug.temp.o
 .comment       0x0000000000000000       0x13 C:\Users\uni\AppData\Local\Temp\ccWoZPev.debug.temp.o
 .comment       0x0000000000000000       0x13 C:\Users\uni\AppData\Local\Temp\cc0moFF4.debug.temp.o
 .text          0x0000000000000000       0x18 ../ch32fun/ch32fun//../misc\libgcc.a(muldi3.o)
 .data          0x0000000000000000        0x0 ../ch32fun/ch32fun//../misc\libgcc.a(muldi3.o)
 .bss           0x0000000000000000        0x0 ../ch32fun/ch32fun//../misc\libgcc.a(muldi3.o)
 .debug_line    0x0000000000000000       0x7a ../ch32fun/ch32fun//../misc\libgcc.a(muldi3.o)
 .debug_line_str
                0x0000000000000000       0x95 ../ch32fun/ch32fun//../misc\libgcc.a(muldi3.o)
 .debug_info    0x0000000000000000       0x31 ../ch32fun/ch32fun//../misc\libgcc.a(muldi3.o)
 .debug_abbrev  0x0000000000000000       0x28 ../ch32fun/ch32fun//../misc\libgcc.a(muldi3.o)
 .debug_aranges
                0x0000000000000000       0x20 ../ch32fun/ch32fun//../misc\libgcc.a(muldi3.o)
 .debug_str     0x0000000000000000       0xac ../ch32fun/ch32fun//../misc\libgcc.a(muldi3.o)
 .riscv.attributes
                0x0000000000000000       0x1f ../ch32fun/ch32fun//../misc\libgcc.a(muldi3.o)
 .data          0x0000000000000000        0x0 ../ch32fun/ch32fun//../misc\libgcc.a(div.o)
 .bss           0x0000000000000000        0x0 ../ch32fun/ch32fun//../misc\libgcc.a(div.o)

Memory Configuration

Name             Origin             Length             Attributes
FLASH            0x0000000000000000 0x0000000000004000 xr
RAM              0x0000000020000000 0x0000000000000800 xrw
*default*        0x0000000000000000 0xffffffffffffffff

Linker script and memory map

LOAD C:\Users\uni\AppData\Local\Temp\ccOjaqgE.o
LOAD C:\Users\uni\AppData\Local\Temp\ch32-mess.elf.cpk3MF.ltrans0.ltrans.o
LOAD C:\Users\uni\AppData\Local\Temp\ccaeBfEL.debug.temp.o
LOAD C:\Users\uni\AppData\Local\Temp\ccsJx7Il.debug.temp.o
LOAD C:\Users\uni\AppData\Local\Temp\ccaUmASV.debug.temp.o
LOAD C:\Users\uni\AppData\Local\Temp\ccWoZPev.debug.temp.o
LOAD C:\Users\uni\AppData\Local\Temp\cc0moFF4.debug.temp.o
LOAD C:\Users\uni\AppData\Local\Temp\ccL2AIeB.o
LOAD C:\Users\uni\AppData\Local\Temp\ccNldazM.o
LOAD C:\Users\uni\AppData\Local\Temp\ccRncCF0.o
LOAD C:\Users\uni\AppData\Local\Temp\ccb6eBMo.o
LOAD ../ch32fun/ch32fun//../misc\libgcc.a
LOAD ../ch32fun/ch32fun//../misc\libgcc.a

.init           0x0000000000000000       0xa0
                0x0000000000000000                _sinit = .
                0x0000000000000000                . = ALIGN (0x4)
 *(SORT_NONE(.init))
 .init          0x0000000000000000       0x9e C:\Users\uni\AppData\Local\Temp\ch32-mess.elf.cpk3MF.ltrans0.ltrans.o
                0x0000000000000000                InterruptVector
                0x00000000000000a0                . = ALIGN (0x4)
 *fill*         0x000000000000009e        0x2 
                0x00000000000000a0                _einit = .

.text           0x00000000000000a0      0xebc
                0x00000000000000a0                . = ALIGN (0x4)
 *(.text)
 .text          0x00000000000000a0       0x7e ../ch32fun/ch32fun//../misc\libgcc.a(div.o)
                0x00000000000000a0                __divsi3
                0x00000000000000a8                __udivsi3
                0x00000000000000a8                __hidden___udivsi3
                0x00000000000000d4                __umodsi3
                0x00000000000000f8                __modsi3
 *(.text.*)
 .text.mini_pad
                0x000000000000011e       0x9a C:\Users\uni\AppData\Local\Temp\ch32-mess.elf.cpk3MF.ltrans0.ltrans.o
 .text.PrintHex
                0x00000000000001b8       0x58 C:\Users\uni\AppData\Local\Temp\ch32-mess.elf.cpk3MF.ltrans0.ltrans.o
 .text.mini_itoa.part.0
                0x0000000000000210       0xbe C:\Users\uni\AppData\Local\Temp\ch32-mess.elf.cpk3MF.ltrans0.ltrans.o
 .text.fun_t1pwm_reload
                0x00000000000002ce      0x156 C:\Users\uni\AppData\Local\Temp\ch32-mess.elf.cpk3MF.ltrans0.ltrans.o
 .text.fun_t1pwm_task
                0x0000000000000424       0x80 C:\Users\uni\AppData\Local\Temp\ch32-mess.elf.cpk3MF.ltrans0.ltrans.o
 .text.internal_handle_input.constprop.0
                0x00000000000004a4        0xa C:\Users\uni\AppData\Local\Temp\ch32-mess.elf.cpk3MF.ltrans0.ltrans.o
 .text._write.constprop.0
                0x00000000000004ae       0xf2 C:\Users\uni\AppData\Local\Temp\ch32-mess.elf.cpk3MF.ltrans0.ltrans.o
 .text.__puts_uart
                0x00000000000005a0       0x14 C:\Users\uni\AppData\Local\Temp\ch32-mess.elf.cpk3MF.ltrans0.ltrans.o
 .text.handle_reset
                0x00000000000005b4       0x76 C:\Users\uni\AppData\Local\Temp\ch32-mess.elf.cpk3MF.ltrans0.ltrans.o
                0x00000000000005b4                handle_reset
 .text.vector_handler
                0x000000000000062a       0x5e C:\Users\uni\AppData\Local\Temp\ch32-mess.elf.cpk3MF.ltrans0.ltrans.o
                0x000000000000062a                EXTI2_IRQHandler
                0x000000000000062a                TIM8_TRG_COM_IRQHandler
                0x000000000000062a                TIM8_CC_IRQHandler
                0x000000000000062a                UART8_IRQHandler
                0x000000000000062a                TIM1_CC_IRQHandler
                0x000000000000062a                HardFault_Handler
                0x000000000000062a                GPIOB_IRQHandler
                0x000000000000062a                USBPD_IRQHandler
                0x000000000000062a                TIM6_IRQHandler
                0x000000000000062a                GPIOA_IRQHandler
                0x000000000000062a                PVD_IRQHandler
                0x000000000000062a                SDIO_IRQHandler
                0x000000000000062a                TIM9_BRK_IRQHandler
                0x000000000000062a                DMA2_Channel8_IRQHandler
                0x000000000000062a                USBWakeUp_IRQHandler
                0x000000000000062a                CAN2_RX1_IRQHandler
                0x000000000000062a                EXTI3_IRQHandler
                0x000000000000062a                UART1_IRQHandler
                0x000000000000062a                USBHS_IRQHandler
                0x000000000000062a                DMA2_Channel9_IRQHandler
                0x000000000000062a                TIM10_CC_IRQHandler
                0x000000000000062a                EXTI25_16_IRQHandler
                0x000000000000062a                USBFS_IRQHandler
                0x000000000000062a                UART0_IRQHandler
                0x000000000000062a                EXTI0_IRQHandler
                0x000000000000062a                I2C2_EV_IRQHandler
                0x000000000000062a                TIM10_TRG_COM_IRQHandler
                0x000000000000062a                CAN2_SCE_IRQHandler
                0x000000000000062a                ADC1_2_IRQHandler
                0x000000000000062a                BB_IRQHandler
                0x000000000000062a                Break_Point_Handler
                0x000000000000062a                TIM2_CC_IRQHandler
                0x000000000000062a                SPI1_IRQHandler
                0x000000000000062a                TAMPER_IRQHandler
                0x000000000000062a                TMR0_IRQHandler
                0x000000000000062a                AWU_IRQHandler
                0x000000000000062a                EXTI7_0_IRQHandler
                0x000000000000062a                CAN2_RX0_IRQHandler
                0x000000000000062a                OSCWakeUp_IRQHandler
                0x000000000000062a                TIM8_UP_IRQHandler
                0x000000000000062a                Ecall_M_Mode_Handler
                0x000000000000062a                DMA2_Channel2_IRQHandler
                0x000000000000062a                ADC1_IRQHandler
                0x000000000000062a                TIM2_BRK_IRQHandler
                0x000000000000062a                TIM9_UP_IRQHandler
                0x000000000000062a                USART3_IRQHandler
                0x000000000000062a                RTC_IRQHandler
                0x000000000000062a                DMA1_Channel7_IRQHandler
                0x000000000000062a                CAN1_RX1_IRQHandler
                0x000000000000062a                DVP_IRQHandler
                0x000000000000062a                UART5_IRQHandler
                0x000000000000062a                EXTI15_8_IRQHandler
                0x000000000000062a                TIM4_IRQHandler
                0x000000000000062a                DMA2_Channel1_IRQHandler
                0x000000000000062a                USBPD_WKUP_IRQHandler
                0x000000000000062a                UART2_IRQHandler
                0x000000000000062a                USART4_IRQHandler
                0x000000000000062a                PWMX_IRQHandler
                0x000000000000062a                DMA1_Channel6_IRQHandler
                0x000000000000062a                UART4_IRQHandler
                0x000000000000062a                DMA2_Channel4_IRQHandler
                0x000000000000062a                TIM3_IRQHandler
                0x000000000000062a                RCC_IRQHandler
                0x000000000000062a                TIM1_TRG_COM_IRQHandler
                0x000000000000062a                DMA1_Channel1_IRQHandler
                0x000000000000062a                DMA2_Channel7_IRQHandler
                0x000000000000062a                EXTI15_10_IRQHandler
                0x000000000000062a                ADC_IRQHandler
                0x000000000000062a                DMA1_Channel8_IRQHandler
                0x000000000000062a                TMR2_IRQHandler
                0x000000000000062a                DefaultIRQHandler
                0x000000000000062a                TIM7_IRQHandler
                0x000000000000062a                CAN2_TX_IRQHandler
                0x000000000000062a                TIM5_IRQHandler
                0x000000000000062a                TMR1_IRQHandler
                0x000000000000062a                USB_IRQHandler
                0x000000000000062a                EXTI9_5_IRQHandler
                0x000000000000062a                PIOC_IRQHandler
                0x000000000000062a                SPI2_IRQHandler
                0x000000000000062a                OSC32KCal_IRQHandler
                0x000000000000062a                I2C_IRQHandler
                0x000000000000062a                TIM10_BRK_IRQHandler
                0x000000000000062a                TIM9_CC_IRQHandler
                0x000000000000062a                DMA2_Channel5_IRQHandler
                0x000000000000062a                USB2_IRQHandler
                0x000000000000062a                USBHSWakeUp_IRQHandler
                0x000000000000062a                DMA1_Channel5_IRQHandler
                0x000000000000062a                EXTI4_IRQHandler
                0x000000000000062a                USB_LP_CAN1_RX0_IRQHandler
                0x000000000000062a                RNG_IRQHandler
                0x000000000000062a                USB_HP_CAN1_TX_IRQHandler
                0x000000000000062a                LLE_IRQHandler
                0x000000000000062a                FSMC_IRQHandler
                0x000000000000062a                ETH_IRQHandler
                0x000000000000062a                TIM1_UP_IRQHandler
                0x000000000000062a                WWDG_IRQHandler
                0x000000000000062a                DMA2_Channel11_IRQHandler
                0x000000000000062a                WDOG_BAT_IRQHandler
                0x000000000000062a                Ecall_U_Mode_Handler
                0x000000000000062a                TMR3_IRQHandler
                0x000000000000062a                DMA2_Channel6_IRQHandler
                0x000000000000062a                TIM2_IRQHandler
                0x000000000000062a                SW_Handler
                0x000000000000062a                TIM1_BRK_IRQHandler
                0x000000000000062a                OPA_IRQHandler
                0x000000000000062a                DMA2_Channel10_IRQHandler
                0x000000000000062a                EXTI1_IRQHandler
                0x000000000000062a                SPI0_IRQHandler
                0x000000000000062a                RTCAlarm_IRQHandler
                0x000000000000062a                TIM10_UP_IRQHandler
                0x000000000000062a                TIM9_TRG_COM_IRQHandler
                0x000000000000062a                UART7_IRQHandler
                0x000000000000062a                USART2_IRQHandler
                0x000000000000062a                UART6_IRQHandler
                0x000000000000062a                ETHWakeUp_IRQHandler
                0x000000000000062a                I2C2_ER_IRQHandler
                0x000000000000062a                DMA1_Channel2_IRQHandler
                0x000000000000062a                TIM8_BRK_IRQHandler
                0x000000000000062a                TIM2_TRG_IRQHandler
                0x000000000000062a                CAN1_SCE_IRQHandler
                0x000000000000062a                FLASH_IRQHandler
                0x000000000000062a                USBFSWakeUp_IRQHandler
                0x000000000000062a                USART1_IRQHandler
                0x000000000000062a                OTG_FS_IRQHandler
                0x000000000000062a                SPI3_IRQHandler
                0x000000000000062a                USBFS_WakeUp_IRQHandler
                0x000000000000062a                UART3_IRQHandler
                0x000000000000062a                DMA2_Channel3_IRQHandler
                0x000000000000067a                NMI_Handler
                0x000000000000067a                NMI_RCC_CSS_IRQHandler
 .text.strlen   0x0000000000000688       0x12 C:\Users\uni\AppData\Local\Temp\ch32-mess.elf.cpk3MF.ltrans0.ltrans.o
                0x0000000000000688                strlen
 .text.mini_vpprintf
                0x000000000000069a      0x1ae C:\Users\uni\AppData\Local\Temp\ch32-mess.elf.cpk3MF.ltrans0.ltrans.o
 .text.printf   0x0000000000000848       0x26 C:\Users\uni\AppData\Local\Temp\ch32-mess.elf.cpk3MF.ltrans0.ltrans.o
                0x0000000000000848                printf
 .text.memset   0x000000000000086e       0x12 C:\Users\uni\AppData\Local\Temp\ch32-mess.elf.cpk3MF.ltrans0.ltrans.o
                0x000000000000086e                memset
 .text.memcpy   0x0000000000000880       0x1c C:\Users\uni\AppData\Local\Temp\ch32-mess.elf.cpk3MF.ltrans0.ltrans.o
                0x0000000000000880                memcpy
 .text.SystemInit
                0x000000000000089c       0x58 C:\Users\uni\AppData\Local\Temp\ch32-mess.elf.cpk3MF.ltrans0.ltrans.o
                0x000000000000089c                SystemInit
 .text.startup.main
                0x00000000000008f4      0x176 C:\Users\uni\AppData\Local\Temp\ch32-mess.elf.cpk3MF.ltrans0.ltrans.o
                0x00000000000008f4                main
 .text.TweenHexColors
                0x0000000000000a6a       0xdc C:\Users\uni\AppData\Local\Temp\ch32-mess.elf.cpk3MF.ltrans0.ltrans.o
 .text.WS2812FillBuffSec.constprop.0
                0x0000000000000b46      0x120 C:\Users\uni\AppData\Local\Temp\ch32-mess.elf.cpk3MF.ltrans0.ltrans.o
 .text.DMA1_Channel3_IRQHandler
                0x0000000000000c66       0x7a C:\Users\uni\AppData\Local\Temp\ch32-mess.elf.cpk3MF.ltrans0.ltrans.o
 .text.SysTick_Handler
                0x0000000000000ce0       0x32 C:\Users\uni\AppData\Local\Temp\ch32-mess.elf.cpk3MF.ltrans0.ltrans.o
 .text.I2C1_EV_IRQHandler
                0x0000000000000d12      0x1a0 C:\Users\uni\AppData\Local\Temp\ch32-mess.elf.cpk3MF.ltrans0.ltrans.o
 .text.I2C1_ER_IRQHandler
                0x0000000000000eb2       0x7c C:\Users\uni\AppData\Local\Temp\ch32-mess.elf.cpk3MF.ltrans0.ltrans.o
 *(.rodata)
 *(.rodata*)
 *fill*         0x0000000000000f2e        0x2 
 .rodata.main.str1.4
                0x0000000000000f30        0xa C:\Users\uni\AppData\Local\Temp\ch32-mess.elf.cpk3MF.ltrans0.ltrans.o
 *fill*         0x0000000000000f3a        0x2 
 .rodata.bitquartets.9
                0x0000000000000f3c       0x20 C:\Users\uni\AppData\Local\Temp\ch32-mess.elf.cpk3MF.ltrans0.ltrans.o
 *(.gnu.linkonce.t.*)
                0x0000000000000f5c                . = ALIGN (0x4)

.rela.dyn       0x0000000000000f5c        0x0
 .rela.text.mini_pad
                0x0000000000000f5c        0x0 C:\Users\uni\AppData\Local\Temp\ch32-mess.elf.cpk3MF.ltrans0.ltrans.o
 .rela.text._write.constprop.0
                0x0000000000000f5c        0x0 C:\Users\uni\AppData\Local\Temp\ch32-mess.elf.cpk3MF.ltrans0.ltrans.o
 .rela.text.handle_reset
                0x0000000000000f5c        0x0 C:\Users\uni\AppData\Local\Temp\ch32-mess.elf.cpk3MF.ltrans0.ltrans.o
 .rela.text.mini_vpprintf
                0x0000000000000f5c        0x0 C:\Users\uni\AppData\Local\Temp\ch32-mess.elf.cpk3MF.ltrans0.ltrans.o
 .rela.text.startup.main
                0x0000000000000f5c        0x0 C:\Users\uni\AppData\Local\Temp\ch32-mess.elf.cpk3MF.ltrans0.ltrans.o
 .rela.text.WS2812FillBuffSec.constprop.0
                0x0000000000000f5c        0x0 C:\Users\uni\AppData\Local\Temp\ch32-mess.elf.cpk3MF.ltrans0.ltrans.o

.fini           0x0000000000000f5c        0x0
 *(SORT_NONE(.fini))
                0x0000000000000f5c                . = ALIGN (0x4)
                [!provide]                        PROVIDE (_etext = .)
                [!provide]                        PROVIDE (_eitcm = .)

.preinit_array  0x0000000000000f5c        0x0
                [!provide]                        PROVIDE (__preinit_array_start = .)
 *(.preinit_array)
                [!provide]                        PROVIDE (__preinit_array_end = .)

.init_array     0x0000000000000f5c        0x0
                [!provide]                        PROVIDE (__init_array_start = .)
 *(SORT_BY_INIT_PRIORITY(.init_array.*) SORT_BY_INIT_PRIORITY(.ctors.*))
 *(.init_array EXCLUDE_FILE(*crtend?.o *crtend.o *crtbegin?.o *crtbegin.o) .ctors)
                [!provide]                        PROVIDE (__init_array_end = .)

.fini_array     0x0000000000000f5c        0x0
                [!provide]                        PROVIDE (__fini_array_start = .)
 *(SORT_BY_INIT_PRIORITY(.fini_array.*) SORT_BY_INIT_PRIORITY(.dtors.*))
 *(.fini_array EXCLUDE_FILE(*crtend?.o *crtend.o *crtbegin?.o *crtbegin.o) .dtors)
                [!provide]                        PROVIDE (__fini_array_end = .)

.ctors
 *crtbegin.o(.ctors)
 *crtbegin?.o(.ctors)
 *(EXCLUDE_FILE(*crtend?.o *crtend.o) .ctors)
 *(SORT_BY_NAME(.ctors.*))
 *(.ctors)

.dtors
 *crtbegin.o(.dtors)
 *crtbegin?.o(.dtors)
 *(EXCLUDE_FILE(*crtend?.o *crtend.o) .dtors)
 *(SORT_BY_NAME(.dtors.*))
 *(.dtors)

.dalign         0x0000000020000000        0x0 load address 0x0000000000000f5c
                0x0000000020000000                . = ALIGN (0x4)
                0x0000000020000000                PROVIDE (_data_vma = .)

.dlalign        0x0000000000000f5c        0x0
                0x0000000000000f5c                . = ALIGN (0x4)
                0x0000000000000f5c                PROVIDE (_data_lma = .)

.data           0x0000000020000000       0x4c load address 0x0000000000000f5c
                0x0000000020000000                . = ALIGN (0x4)
                0x00000000200003fc                __global_pointer$ = (. + 0x3fc)
 *(.gnu.linkonce.r.*)
 *(.data .data.*)
 *(.gnu.linkonce.d.*)
                0x0000000020000000                . = ALIGN (0x8)
 *(.sdata .sdata.*)
 .sdata.tween   0x0000000020000000        0x4 C:\Users\uni\AppData\Local\Temp\ch32-mess.elf.cpk3MF.ltrans0.ltrans.o
 *(.sdata2*)
 *(.gnu.linkonce.s.*)
                0x0000000020000008                . = ALIGN (0x8)
 *fill*         0x0000000020000004        0x4 
 *(.srodata.cst16)
 *(.srodata.cst8)
 *(.srodata.cst4)
 *(.srodata.cst2)
 *(.srodata .srodata.*)
 .srodata       0x0000000020000008       0x44 C:\Users\uni\AppData\Local\Temp\ch32-mess.elf.cpk3MF.ltrans0.ltrans.o
                0x000000002000004c                . = ALIGN (0x4)
                0x000000002000004c                PROVIDE (_edata = .)

.bss            0x000000002000004c       0x9c load address 0x0000000000000fa8
                0x000000002000004c                . = ALIGN (0x4)
                0x000000002000004c                PROVIDE (_sbss = .)
 *(.sbss*)
 .sbss.WS2812BLEDInUse
                0x000000002000004c        0x4 C:\Users\uni\AppData\Local\Temp\ch32-mess.elf.cpk3MF.ltrans0.ltrans.o
 .sbss.WS2812LEDPlace
                0x0000000020000050        0x4 C:\Users\uni\AppData\Local\Temp\ch32-mess.elf.cpk3MF.ltrans0.ltrans.o
 .sbss.WS2812LEDs
                0x0000000020000054        0x4 C:\Users\uni\AppData\Local\Temp\ch32-mess.elf.cpk3MF.ltrans0.ltrans.o
 .sbss.systick_millis
                0x0000000020000058        0x4 C:\Users\uni\AppData\Local\Temp\ch32-mess.elf.cpk3MF.ltrans0.ltrans.o
 *(.gnu.linkonce.sb.*)
 *(.bss*)
 .bss.WS2812dmabuff
                0x000000002000005c       0x60 C:\Users\uni\AppData\Local\Temp\ch32-mess.elf.cpk3MF.ltrans0.ltrans.o
 .bss.i2c_slave_state
                0x00000000200000bc       0x2c C:\Users\uni\AppData\Local\Temp\ch32-mess.elf.cpk3MF.ltrans0.ltrans.o
 *(.gnu.linkonce.b.*)
 *(COMMON*)
                0x00000000200000e8                . = ALIGN (0x4)
                0x00000000200000e8                PROVIDE (_ebss = .)
                [!provide]                        PROVIDE (_end = _ebss)
                [!provide]                        PROVIDE (end = .)
                0x0000000020000800                PROVIDE (_eusrstack = (ORIGIN (RAM) + LENGTH (RAM)))

/DISCARD/
 *(.note .note.*)
 *(.eh_frame .eh_frame.*)
 *(.comment .comment.*)
 *(.ARM.extab* .gnu.linkonce.armextab.*)
 *(.ARM.exidx*)
OUTPUT(ch32-mess.elf elf32-littleriscv)

.riscv.attributes
                0x0000000000000000       0x21
 .riscv.attributes
                0x0000000000000000       0x21 C:\Users\uni\AppData\Local\Temp\ch32-mess.elf.cpk3MF.ltrans0.ltrans.o
 .riscv.attributes
                0x0000000000000021       0x1f ../ch32fun/ch32fun//../misc\libgcc.a(div.o)

.debug_info     0x0000000000000000     0x829e
 .debug_info    0x0000000000000000     0x16d4 C:\Users\uni\AppData\Local\Temp\ch32-mess.elf.cpk3MF.ltrans0.ltrans.o
 .debug_info    0x00000000000016d4     0x1188 C:\Users\uni\AppData\Local\Temp\ccaeBfEL.debug.temp.o
                0x00000000000016d4                ch32fun.c.963ac852
 .debug_info    0x000000000000285c     0x4d9d C:\Users\uni\AppData\Local\Temp\ccsJx7Il.debug.temp.o
                0x000000000000285c                ch32_mess.c.bfdd0885
 .debug_info    0x00000000000075f9      0x47c C:\Users\uni\AppData\Local\Temp\ccaUmASV.debug.temp.o
                0x00000000000075f9                nrf24l01_low_level.c.429e1874
 .debug_info    0x0000000000007a75      0x7cc C:\Users\uni\AppData\Local\Temp\cc0moFF4.debug.temp.o
                0x0000000000007a75                lib_i2c.c.d894f163
 .debug_info    0x0000000000008241       0x5d ../ch32fun/ch32fun//../misc\libgcc.a(div.o)

.debug_abbrev   0x0000000000000000      0xbb3
 .debug_abbrev  0x0000000000000000      0x1dc C:\Users\uni\AppData\Local\Temp\ch32-mess.elf.cpk3MF.ltrans0.ltrans.o
 .debug_abbrev  0x00000000000001dc      0x233 C:\Users\uni\AppData\Local\Temp\ccaeBfEL.debug.temp.o
 .debug_abbrev  0x000000000000040f      0x418 C:\Users\uni\AppData\Local\Temp\ccsJx7Il.debug.temp.o
 .debug_abbrev  0x0000000000000827      0x171 C:\Users\uni\AppData\Local\Temp\ccaUmASV.debug.temp.o
 .debug_abbrev  0x0000000000000998      0x1f3 C:\Users\uni\AppData\Local\Temp\cc0moFF4.debug.temp.o
 .debug_abbrev  0x0000000000000b8b       0x28 ../ch32fun/ch32fun//../misc\libgcc.a(div.o)

.debug_loc      0x0000000000000000     0x2dd3
 .debug_loc     0x0000000000000000     0x2dd3 C:\Users\uni\AppData\Local\Temp\ch32-mess.elf.cpk3MF.ltrans0.ltrans.o

.debug_aranges  0x0000000000000000      0x1b0
 .debug_aranges
                0x0000000000000000      0x190 C:\Users\uni\AppData\Local\Temp\ch32-mess.elf.cpk3MF.ltrans0.ltrans.o
 .debug_aranges
                0x0000000000000190       0x20 ../ch32fun/ch32fun//../misc\libgcc.a(div.o)

.debug_ranges   0x0000000000000000      0x438
 .debug_ranges  0x0000000000000000      0x438 C:\Users\uni\AppData\Local\Temp\ch32-mess.elf.cpk3MF.ltrans0.ltrans.o

.debug_line     0x0000000000000000     0x438e
 .debug_line    0x0000000000000000     0x3b17 C:\Users\uni\AppData\Local\Temp\ch32-mess.elf.cpk3MF.ltrans0.ltrans.o
 .debug_line    0x0000000000003b17      0x18e C:\Users\uni\AppData\Local\Temp\ccaeBfEL.debug.temp.o
 .debug_line    0x0000000000003ca5      0x34e C:\Users\uni\AppData\Local\Temp\ccsJx7Il.debug.temp.o
 .debug_line    0x0000000000003ff3      0x10d C:\Users\uni\AppData\Local\Temp\ccaUmASV.debug.temp.o
 .debug_line    0x0000000000004100      0x13b C:\Users\uni\AppData\Local\Temp\cc0moFF4.debug.temp.o
 .debug_line    0x000000000000423b      0x153 ../ch32fun/ch32fun//../misc\libgcc.a(div.o)

.debug_str      0x0000000000000000     0x2948
 .debug_str     0x0000000000000000      0x183 C:\Users\uni\AppData\Local\Temp\ch32-mess.elf.cpk3MF.ltrans0.ltrans.o
                                        0x19b (size before relaxing)
 .debug_str     0x0000000000000183      0x5e0 C:\Users\uni\AppData\Local\Temp\ccaeBfEL.debug.temp.o
                                        0x70c (size before relaxing)
 .debug_str     0x0000000000000763     0x1f58 C:\Users\uni\AppData\Local\Temp\ccsJx7Il.debug.temp.o
                                       0x23bc (size before relaxing)
 .debug_str     0x00000000000026bb       0xb1 C:\Users\uni\AppData\Local\Temp\ccaUmASV.debug.temp.o
                                        0x43f (size before relaxing)
 .debug_str     0x000000000000276c      0x120 C:\Users\uni\AppData\Local\Temp\cc0moFF4.debug.temp.o
                                        0x519 (size before relaxing)
 .debug_str     0x000000000000288c       0xbc ../ch32fun/ch32fun//../misc\libgcc.a(div.o)
                                         0xd9 (size before relaxing)

.debug_frame    0x0000000000000000      0x548
 .debug_frame   0x0000000000000000      0x548 C:\Users\uni\AppData\Local\Temp\ch32-mess.elf.cpk3MF.ltrans0.ltrans.o

.debug_line_str
                0x0000000000000000       0x92
 .debug_line_str
                0x0000000000000000       0x92 ../ch32fun/ch32fun//../misc\libgcc.a(div.o)
