
ch32-mess.elf:     file format elf32-littleriscv


Disassembly of section .init:

00000000 <InterruptVector>:
	void InterruptVector()         __attribute__((naked)) __attribute((section(".init"))) __attribute((weak,alias("InterruptVectorDefault"))) __attribute((naked));
	void InterruptVectorDefault()  __attribute__((naked)) __attribute((section(".init"))) __attribute((naked));
	void InterruptVectorDefault( void )
	{
		#if !defined(FUNCONF_TINYVECTOR) || !FUNCONF_TINYVECTOR
			asm volatile( DEFAULT_INTERRUPT_VECTOR_CONTENTS );
   0:	4a10006f          	j	ca0 <handle_reset>
   4:	0000                	unimp
   6:	0000                	unimp
   8:	0d6e                	slli	s10,s10,0x1b
   a:	0000                	unimp
   c:	0d16                	slli	s10,s10,0x5
	...
  2e:	0000                	unimp
  30:	2150                	fld	fa2,128(a0)
  32:	0000                	unimp
  34:	0000                	unimp
  36:	0000                	unimp
  38:	0d16                	slli	s10,s10,0x5
  3a:	0000                	unimp
  3c:	0000                	unimp
  3e:	0000                	unimp
  40:	0d16                	slli	s10,s10,0x5
  42:	0000                	unimp
  44:	0d16                	slli	s10,s10,0x5
  46:	0000                	unimp
  48:	0d16                	slli	s10,s10,0x5
  4a:	0000                	unimp
  4c:	0d16                	slli	s10,s10,0x5
  4e:	0000                	unimp
  50:	0d16                	slli	s10,s10,0x5
  52:	0000                	unimp
  54:	0d16                	slli	s10,s10,0x5
  56:	0000                	unimp
  58:	0d16                	slli	s10,s10,0x5
  5a:	0000                	unimp
  5c:	0d16                	slli	s10,s10,0x5
  5e:	0000                	unimp
  60:	20d6                	fld	ft1,336(sp)
  62:	0000                	unimp
  64:	005c                	addi	a5,sp,4
  66:	2000                	fld	fs0,0(s0)
  68:	0d16                	slli	s10,s10,0x5
  6a:	0000                	unimp
  6c:	0d16                	slli	s10,s10,0x5
  6e:	0000                	unimp
  70:	0d16                	slli	s10,s10,0x5
  72:	0000                	unimp
  74:	0d16                	slli	s10,s10,0x5
  76:	0000                	unimp
  78:	2182                	fld	ft3,0(sp)
  7a:	0000                	unimp
  7c:	2322                	fld	ft6,8(sp)
  7e:	0000                	unimp
  80:	0d16                	slli	s10,s10,0x5
  82:	0000                	unimp
  84:	0d16                	slli	s10,s10,0x5
  86:	0000                	unimp
  88:	0d16                	slli	s10,s10,0x5
  8a:	0000                	unimp
  8c:	0d16                	slli	s10,s10,0x5
  8e:	0000                	unimp
  90:	0d16                	slli	s10,s10,0x5
  92:	0000                	unimp
  94:	0d16                	slli	s10,s10,0x5
  96:	0000                	unimp
  98:	0d16                	slli	s10,s10,0x5
  9a:	0000                	unimp
  9c:	0000                	unimp
	...

Disassembly of section .text:

000000a0 <__divsi3>:
      a0:	02054e63          	bltz	a0,dc <__umodsi3+0x8>
      a4:	0405c363          	bltz	a1,ea <__umodsi3+0x16>

000000a8 <__hidden___udivsi3>:
      a8:	862e                	mv	a2,a1
      aa:	85aa                	mv	a1,a0
      ac:	557d                	li	a0,-1
      ae:	c215                	beqz	a2,d2 <__hidden___udivsi3+0x2a>
      b0:	4685                	li	a3,1
      b2:	00b67863          	bgeu	a2,a1,c2 <__hidden___udivsi3+0x1a>
      b6:	00c05663          	blez	a2,c2 <__hidden___udivsi3+0x1a>
      ba:	0606                	slli	a2,a2,0x1
      bc:	0686                	slli	a3,a3,0x1
      be:	feb66ce3          	bltu	a2,a1,b6 <__hidden___udivsi3+0xe>
      c2:	4501                	li	a0,0
      c4:	00c5e463          	bltu	a1,a2,cc <__hidden___udivsi3+0x24>
      c8:	8d91                	sub	a1,a1,a2
      ca:	8d55                	or	a0,a0,a3
      cc:	8285                	srli	a3,a3,0x1
      ce:	8205                	srli	a2,a2,0x1
      d0:	faf5                	bnez	a3,c4 <__hidden___udivsi3+0x1c>
      d2:	8082                	ret

000000d4 <__umodsi3>:
      d4:	8286                	mv	t0,ra
      d6:	3fc9                	jal	a8 <__hidden___udivsi3>
      d8:	852e                	mv	a0,a1
      da:	8282                	jr	t0
      dc:	40a00533          	neg	a0,a0
      e0:	00b04763          	bgtz	a1,ee <__umodsi3+0x1a>
      e4:	40b005b3          	neg	a1,a1
      e8:	b7c1                	j	a8 <__hidden___udivsi3>
      ea:	40b005b3          	neg	a1,a1
      ee:	8286                	mv	t0,ra
      f0:	3f65                	jal	a8 <__hidden___udivsi3>
      f2:	40a00533          	neg	a0,a0
      f6:	8282                	jr	t0

000000f8 <__modsi3>:
      f8:	8286                	mv	t0,ra
      fa:	0005c763          	bltz	a1,108 <__modsi3+0x10>
      fe:	00054963          	bltz	a0,110 <__modsi3+0x18>
     102:	375d                	jal	a8 <__hidden___udivsi3>
     104:	852e                	mv	a0,a1
     106:	8282                	jr	t0
     108:	40b005b3          	neg	a1,a1
     10c:	fe055be3          	bgez	a0,102 <__modsi3+0xa>
     110:	40a00533          	neg	a0,a0
     114:	3f51                	jal	a8 <__hidden___udivsi3>
     116:	40b00533          	neg	a0,a1
     11a:	8282                	jr	t0
	...

0000011e <mini_pad>:
{
     11e:	1131                	addi	sp,sp,-20
     120:	c426                	sw	s1,8(sp)
     122:	c806                	sw	ra,16(sp)
     124:	c622                	sw	s0,12(sp)
     126:	84ae                	mv	s1,a1
     128:	87aa                	mv	a5,a0
     12a:	85b2                	mv	a1,a2
	int overflow = 0;
     12c:	4301                	li	t1,0
	if(pad_to == 0) pad_to = len;
     12e:	cab5                	beqz	a3,1a2 <mini_pad+0x84>
	if(len > pad_to) {
     130:	0096d463          	bge	a3,s1,138 <mini_pad+0x1a>
     134:	84b6                	mv	s1,a3
		overflow = 1;
     136:	4305                	li	t1,1
	for(i = pad_to - len; i > 0; i --) {
     138:	40968433          	sub	s0,a3,s1
		*(pbuffer++) = pad_char;
     13c:	00045363          	bgez	s0,142 <mini_pad+0x24>
     140:	4401                	li	s0,0
     142:	8622                	mv	a2,s0
     144:	853a                	mv	a0,a4
     146:	c23e                	sw	a5,4(sp)
     148:	c01a                	sw	t1,0(sp)
     14a:	683000ef          	jal	ra,fcc <memset>
     14e:	4302                	lw	t1,0(sp)
     150:	4792                	lw	a5,4(sp)
     152:	872a                	mv	a4,a0
     154:	008506b3          	add	a3,a0,s0
     158:	4601                	li	a2,0
	for(i = len; i > 0; i --) {
     15a:	40c485b3          	sub	a1,s1,a2
     15e:	04b04463          	bgtz	a1,1a6 <mini_pad+0x88>
     162:	0004d363          	bgez	s1,168 <mini_pad+0x4a>
     166:	4481                	li	s1,0
     168:	00968633          	add	a2,a3,s1
	len = pbuffer - buffer;
     16c:	40e60533          	sub	a0,a2,a4
	if(overflow) {
     170:	02030463          	beqz	t1,198 <mini_pad+0x7a>
		for (i = 0; i < 3 && pbuffer > buffer; i ++) {
     174:	02c77263          	bgeu	a4,a2,198 <mini_pad+0x7a>
			*(pbuffer-- - 1) = '*';
     178:	02a00793          	li	a5,42
     17c:	fef60fa3          	sb	a5,-1(a2)
     180:	fff60693          	addi	a3,a2,-1
		for (i = 0; i < 3 && pbuffer > buffer; i ++) {
     184:	00d77a63          	bgeu	a4,a3,198 <mini_pad+0x7a>
			*(pbuffer-- - 1) = '*';
     188:	fef60f23          	sb	a5,-2(a2)
     18c:	ffe60693          	addi	a3,a2,-2
		for (i = 0; i < 3 && pbuffer > buffer; i ++) {
     190:	00d77463          	bgeu	a4,a3,198 <mini_pad+0x7a>
			*(pbuffer-- - 1) = '*';
     194:	fef60ea3          	sb	a5,-3(a2)
}
     198:	40c2                	lw	ra,16(sp)
     19a:	4432                	lw	s0,12(sp)
     19c:	44a2                	lw	s1,8(sp)
     19e:	0151                	addi	sp,sp,20
     1a0:	8082                	ret
	if(pad_to == 0) pad_to = len;
     1a2:	86a6                	mv	a3,s1
     1a4:	bf51                	j	138 <mini_pad+0x1a>
		*(pbuffer++) = *(ptr++);
     1a6:	00c785b3          	add	a1,a5,a2
     1aa:	0005c503          	lbu	a0,0(a1)
     1ae:	00c685b3          	add	a1,a3,a2
     1b2:	0605                	addi	a2,a2,1
     1b4:	00a58023          	sb	a0,0(a1)
	for(i = len; i > 0; i --) {
     1b8:	b74d                	j	15a <mini_pad+0x3c>

000001ba <_puts>:
{
     1ba:	832a                	mv	t1,a0
     1bc:	852e                	mv	a0,a1
	if(!buf) return len;
     1be:	ce01                	beqz	a2,1d6 <_puts+0x1c>
	char * p0 = b->buffer;
     1c0:	00062283          	lw	t0,0(a2)
	for (i = 0; i < len; i++) {
     1c4:	4701                	li	a4,0
		if(b->pbuffer == b->buffer + b->buffer_len - 1) {
     1c6:	425c                	lw	a5,4(a2)
	for (i = 0; i < len; i++) {
     1c8:	00a74863          	blt	a4,a0,1d8 <_puts+0x1e>
	*(b->pbuffer) = 0;
     1cc:	00078023          	sb	zero,0(a5)
	return b->pbuffer - p0;
     1d0:	4248                	lw	a0,4(a2)
     1d2:	40550533          	sub	a0,a0,t0
}
     1d6:	8082                	ret
		if(b->pbuffer == b->buffer + b->buffer_len - 1) {
     1d8:	4614                	lw	a3,8(a2)
     1da:	fff68593          	addi	a1,a3,-1
     1de:	4214                	lw	a3,0(a2)
     1e0:	96ae                	add	a3,a3,a1
     1e2:	fed785e3          	beq	a5,a3,1cc <_puts+0x12>
		*(b->pbuffer ++) = s[i];
     1e6:	00178693          	addi	a3,a5,1
     1ea:	c254                	sw	a3,4(a2)
     1ec:	00e306b3          	add	a3,t1,a4
     1f0:	0006c683          	lbu	a3,0(a3)
	for (i = 0; i < len; i++) {
     1f4:	0705                	addi	a4,a4,1
		*(b->pbuffer ++) = s[i];
     1f6:	00d78023          	sb	a3,0(a5)
	for (i = 0; i < len; i++) {
     1fa:	b7f1                	j	1c6 <_puts+0xc>

000001fc <PrintHex>:
	while( (*DMDATA0) & 0x80 );
     1fc:	e0000737          	lui	a4,0xe0000
     200:	0f472783          	lw	a5,244(a4) # e00000f4 <_eusrstack+0xbffff8f4>
     204:	0f470693          	addi	a3,a4,244
     208:	0807f793          	andi	a5,a5,128
     20c:	fbf5                	bnez	a5,200 <PrintHex+0x4>
	*DMDATA0 = 0x78302088; //" 0x"
     20e:	783027b7          	lui	a5,0x78302
     212:	08878793          	addi	a5,a5,136 # 78302088 <_eusrstack+0x58301888>
     216:	c29c                	sw	a5,0(a3)
	for( shift = 28; shift >= 0; shift -= 4 )
     218:	4771                	li	a4,28
		while( (*DMDATA0) & 0x80 );
     21a:	e0000637          	lui	a2,0xe0000
		s += ( s < 10 ) ? '0' : ('a' - 10);
     21e:	4325                	li	t1,9
	for( shift = 28; shift >= 0; shift -= 4 )
     220:	55f1                	li	a1,-4
		while( (*DMDATA0) & 0x80 );
     222:	0f462783          	lw	a5,244(a2) # e00000f4 <_eusrstack+0xbffff8f4>
     226:	0807f793          	andi	a5,a5,128
     22a:	ffe5                	bnez	a5,222 <PrintHex+0x26>
		int s = (n>>shift) & 0xf;
     22c:	00e557b3          	srl	a5,a0,a4
     230:	00f7f693          	andi	a3,a5,15
		s += ( s < 10 ) ? '0' : ('a' - 10);
     234:	03000793          	li	a5,48
     238:	00d35463          	bge	t1,a3,240 <PrintHex+0x44>
     23c:	05700793          	li	a5,87
     240:	97b6                	add	a5,a5,a3
		*DMDATA0 = 0x85 | (s<<8); //" 0x"
     242:	07a2                	slli	a5,a5,0x8
     244:	0857e793          	ori	a5,a5,133
     248:	0ef62a23          	sw	a5,244(a2)
	for( shift = 28; shift >= 0; shift -= 4 )
     24c:	1771                	addi	a4,a4,-4
     24e:	fcb71ae3          	bne	a4,a1,222 <PrintHex+0x26>
}
     252:	8082                	ret

00000254 <DelaySysTick>:
#endif

void DelaySysTick( uint32_t n )
{
#if defined(CH32V003) || defined(CH32V00x)
	uint32_t targend = SysTick->CNT + n;
     254:	e000f7b7          	lui	a5,0xe000f
     258:	479c                	lw	a5,8(a5)
	while( ((int32_t)( SysTick->CNT - targend )) < 0 );
     25a:	e000f737          	lui	a4,0xe000f
	uint32_t targend = SysTick->CNT + n;
     25e:	953e                	add	a0,a0,a5
	while( ((int32_t)( SysTick->CNT - targend )) < 0 );
     260:	471c                	lw	a5,8(a4)
     262:	8f89                	sub	a5,a5,a0
     264:	fe07cee3          	bltz	a5,260 <DelaySysTick+0xc>
	uint64_t targend = SysTick->CNT - n;
	while( ((int64_t)( SysTick->CNT - targend )) > 0 );
#else
	#error DelaySysTick not defined.
#endif
}
     268:	8082                	ret

0000026a <mini_itoa.part.0>:
int mini_itoa(long value, unsigned int radix, int uppercase, int unsig, char *buffer)
     26a:	1101                	addi	sp,sp,-32
     26c:	ce06                	sw	ra,28(sp)
     26e:	cc22                	sw	s0,24(sp)
     270:	ca26                	sw	s1,20(sp)
	int	negative = 0;
     272:	c002                	sw	zero,0(sp)
int mini_itoa(long value, unsigned int radix, int uppercase, int unsig, char *buffer)
     274:	832a                	mv	t1,a0
	if (value < 0 && !unsig) {
     276:	00055763          	bgez	a0,284 <mini_itoa.part.0+0x1a>
     27a:	e689                	bnez	a3,284 <mini_itoa.part.0+0x1a>
		negative = 1;
     27c:	4785                	li	a5,1
		value = -value;
     27e:	40a00333          	neg	t1,a0
		negative = 1;
     282:	c03e                	sw	a5,0(sp)
     284:	06100413          	li	s0,97
     288:	c219                	beqz	a2,28e <mini_itoa.part.0+0x24>
     28a:	04100413          	li	s0,65
	int	negative = 0;
     28e:	84ba                	mv	s1,a4
		*(pbuffer++) = (digit < 10 ? '0' + digit : (uppercase ? 'A' : 'a') + digit - 10);
     290:	1459                	addi	s0,s0,-10
		int digit = value % radix;
     292:	851a                	mv	a0,t1
     294:	c83a                	sw	a4,16(sp)
     296:	c21a                	sw	t1,4(sp)
     298:	c62e                	sw	a1,12(sp)
     29a:	c41a                	sw	t1,8(sp)
     29c:	3d25                	jal	d4 <__umodsi3>
		*(pbuffer++) = (digit < 10 ? '0' + digit : (uppercase ? 'A' : 'a') + digit - 10);
     29e:	47a5                	li	a5,9
     2a0:	4322                	lw	t1,8(sp)
     2a2:	45b2                	lw	a1,12(sp)
     2a4:	4742                	lw	a4,16(sp)
     2a6:	0ff57693          	andi	a3,a0,255
     2aa:	06a7e163          	bltu	a5,a0,30c <mini_itoa.part.0+0xa2>
     2ae:	03068693          	addi	a3,a3,48
     2b2:	0ff6f693          	andi	a3,a3,255
     2b6:	00148793          	addi	a5,s1,1
     2ba:	00d48023          	sb	a3,0(s1)
		value /= radix;
     2be:	851a                	mv	a0,t1
     2c0:	c83a                	sw	a4,16(sp)
		*(pbuffer++) = (digit < 10 ? '0' + digit : (uppercase ? 'A' : 'a') + digit - 10);
     2c2:	c63e                	sw	a5,12(sp)
		value /= radix;
     2c4:	c42e                	sw	a1,8(sp)
     2c6:	33cd                	jal	a8 <__hidden___udivsi3>
	} while (value > 0);
     2c8:	4692                	lw	a3,4(sp)
     2ca:	45a2                	lw	a1,8(sp)
     2cc:	47b2                	lw	a5,12(sp)
     2ce:	4742                	lw	a4,16(sp)
		value /= radix;
     2d0:	832a                	mv	t1,a0
	} while (value > 0);
     2d2:	02b6fb63          	bgeu	a3,a1,308 <mini_itoa.part.0+0x9e>
	if (negative)
     2d6:	4682                	lw	a3,0(sp)
     2d8:	c699                	beqz	a3,2e6 <mini_itoa.part.0+0x7c>
		*(pbuffer++) = '-';
     2da:	02d00693          	li	a3,45
     2de:	00d78023          	sb	a3,0(a5) # e000f000 <_eusrstack+0xc000e800>
     2e2:	00248793          	addi	a5,s1,2
	len = (pbuffer - buffer);
     2e6:	40e78533          	sub	a0,a5,a4
	for (i = 0; i < len / 2; i++) {
     2ea:	01f55693          	srli	a3,a0,0x1f
     2ee:	96aa                	add	a3,a3,a0
	*(pbuffer) = '\0';
     2f0:	00078023          	sb	zero,0(a5)
	for (i = 0; i < len / 2; i++) {
     2f4:	8685                	srai	a3,a3,0x1
     2f6:	4601                	li	a2,0
     2f8:	17fd                	addi	a5,a5,-1
     2fa:	00d64b63          	blt	a2,a3,310 <mini_itoa.part.0+0xa6>
}
     2fe:	40f2                	lw	ra,28(sp)
     300:	4462                	lw	s0,24(sp)
     302:	44d2                	lw	s1,20(sp)
     304:	6105                	addi	sp,sp,32
     306:	8082                	ret
	} while (value > 0);
     308:	84be                	mv	s1,a5
     30a:	b761                	j	292 <mini_itoa.part.0+0x28>
		*(pbuffer++) = (digit < 10 ? '0' + digit : (uppercase ? 'A' : 'a') + digit - 10);
     30c:	96a2                	add	a3,a3,s0
     30e:	b755                	j	2b2 <mini_itoa.part.0+0x48>
		char j = buffer[i];
     310:	00c705b3          	add	a1,a4,a2
		buffer[i] = buffer[len-i-1];
     314:	0007c283          	lbu	t0,0(a5)
		char j = buffer[i];
     318:	0005c303          	lbu	t1,0(a1)
	for (i = 0; i < len / 2; i++) {
     31c:	0605                	addi	a2,a2,1
		buffer[i] = buffer[len-i-1];
     31e:	00558023          	sb	t0,0(a1)
		buffer[len-i-1] = j;
     322:	00678023          	sb	t1,0(a5)
	for (i = 0; i < len / 2; i++) {
     326:	bfc9                	j	2f8 <mini_itoa.part.0+0x8e>

00000328 <rand8>:
 */
uint8_t rand8(void) {
    uint8_t bit;
    uint32_t new_data;

    for(bit=0;bit<NOISE_BITS;bit++) {
     328:	c3c1a503          	lw	a0,-964(gp) # 20000038 <lfsr>
uint8_t rand8(void) {
     32c:	46a1                	li	a3,8
     32e:	c3c18713          	addi	a4,gp,-964 # 20000038 <lfsr>
        new_data = ((lfsr>>NOISE_POLY_TAP0) ^
                                (lfsr>>NOISE_POLY_TAP1) ^
     332:	01555613          	srli	a2,a0,0x15
        new_data = ((lfsr>>NOISE_POLY_TAP0) ^
     336:	01f55793          	srli	a5,a0,0x1f
     33a:	8fb1                	xor	a5,a5,a2
     33c:	8fa9                	xor	a5,a5,a0
                                (lfsr>>NOISE_POLY_TAP2) ^
     33e:	00155613          	srli	a2,a0,0x1
        new_data = ((lfsr>>NOISE_POLY_TAP0) ^
     342:	8fb1                	xor	a5,a5,a2
                                (lfsr>>NOISE_POLY_TAP3));
        lfsr = (lfsr<<1) | (new_data&1);
     344:	8b85                	andi	a5,a5,1
     346:	0506                	slli	a0,a0,0x1
     348:	8d5d                	or	a0,a0,a5
    for(bit=0;bit<NOISE_BITS;bit++) {
     34a:	fff68793          	addi	a5,a3,-1
     34e:	0ff7f693          	andi	a3,a5,255
     352:	f2e5                	bnez	a3,332 <rand8+0xa>
     354:	c308                	sw	a0,0(a4)
    }

    return lfsr&NOISE_MASK;
}
     356:	0ff57513          	andi	a0,a0,255
     35a:	8082                	ret

0000035c <SPI_send>:
    DMA1_Channel3->CFGR &= ~DMA_CFGR1_EN;  // Turn off channel
}

static void SPI_send(uint8_t data) {
    // Send byte
    SPI1->DATAR = data;
     35c:	400137b7          	lui	a5,0x40013
     360:	00a79623          	sh	a0,12(a5) # 4001300c <_eusrstack+0x2001280c>

    // Waiting for transmission complete
    while (!(SPI1->STATR & SPI_STATR_TXE)) ;
     364:	40013737          	lui	a4,0x40013
     368:	00875783          	lhu	a5,8(a4) # 40013008 <_eusrstack+0x20012808>
     36c:	8b89                	andi	a5,a5,2
     36e:	dfed                	beqz	a5,368 <SPI_send+0xc>
}
     370:	8082                	ret

00000372 <write_command_8>:

static void write_command_8(uint8_t dc_pin, uint8_t cmd) {
    funDigitalWrite(dc_pin, 0);     // Command Mode
     372:	00455713          	srli	a4,a0,0x4
     376:	400116b7          	lui	a3,0x40011
     37a:	80068693          	addi	a3,a3,-2048 # 40010800 <_eusrstack+0x20010000>
     37e:	00f57793          	andi	a5,a0,15
     382:	072a                	slli	a4,a4,0xa
     384:	9736                	add	a4,a4,a3
     386:	07c1                	addi	a5,a5,16
     388:	4685                	li	a3,1
     38a:	00f697b3          	sll	a5,a3,a5
     38e:	cb1c                	sw	a5,16(a4)
    SPI_send(cmd);
     390:	852e                	mv	a0,a1
     392:	b7e9                	j	35c <SPI_send>

00000394 <write_data_16>:
    funDigitalWrite(dc_pin, 1);     // Data Mode
    SPI_send(data);
}

static void write_data_16(uint8_t dc_pin, uint16_t data) {
    funDigitalWrite(dc_pin, 1);     // Data Mode
     394:	00455793          	srli	a5,a0,0x4
     398:	40011737          	lui	a4,0x40011
     39c:	80070713          	addi	a4,a4,-2048 # 40010800 <_eusrstack+0x20010000>
     3a0:	07aa                	slli	a5,a5,0xa
static void write_data_16(uint8_t dc_pin, uint16_t data) {
     3a2:	1151                	addi	sp,sp,-12
    funDigitalWrite(dc_pin, 1);     // Data Mode
     3a4:	97ba                	add	a5,a5,a4
     3a6:	893d                	andi	a0,a0,15
     3a8:	4705                	li	a4,1
static void write_data_16(uint8_t dc_pin, uint16_t data) {
     3aa:	c222                	sw	s0,4(sp)
     3ac:	c406                	sw	ra,8(sp)
    funDigitalWrite(dc_pin, 1);     // Data Mode
     3ae:	00a71533          	sll	a0,a4,a0
     3b2:	cb88                	sw	a0,16(a5)
    SPI_send(data >> 8);
     3b4:	0085d513          	srli	a0,a1,0x8
static void write_data_16(uint8_t dc_pin, uint16_t data) {
     3b8:	842e                	mv	s0,a1
    SPI_send(data >> 8);
     3ba:	374d                	jal	35c <SPI_send>
    SPI_send(data);
     3bc:	0ff47513          	andi	a0,s0,255
}
     3c0:	4412                	lw	s0,4(sp)
     3c2:	40a2                	lw	ra,8(sp)
     3c4:	0131                	addi	sp,sp,12
    SPI_send(data);
     3c6:	bf59                	j	35c <SPI_send>

000003c8 <INTF_TFT_SEND_BUFF>:
#define ST7735_COLMOD_16_BPP 0x05  // 101 - 16-bit/pixel

static uint8_t DC_PIN2;

void INTF_TFT_SEND_BUFF(const uint8_t* buffer, uint16_t size, uint16_t repeat) {
    SPI_send_DMA(DC_PIN2, buffer, size, repeat);
     3c8:	c901c703          	lbu	a4,-880(gp) # 2000008c <DC_PIN2>
    funDigitalWrite(dc_pin, 1);     // Data Mode
     3cc:	400116b7          	lui	a3,0x40011
     3d0:	80068693          	addi	a3,a3,-2048 # 40010800 <_eusrstack+0x20010000>
     3d4:	00475793          	srli	a5,a4,0x4
     3d8:	07aa                	slli	a5,a5,0xa
     3da:	97b6                	add	a5,a5,a3
     3dc:	8b3d                	andi	a4,a4,15
     3de:	4685                	li	a3,1
     3e0:	00e69733          	sll	a4,a3,a4
     3e4:	cb98                	sw	a4,16(a5)
    DMA1_Channel3->MADDR = (uint32_t)buffer;
     3e6:	400207b7          	lui	a5,0x40020
     3ea:	dfc8                	sw	a0,60(a5)
    DMA1_Channel3->CNTR  = size;
     3ec:	dbcc                	sw	a1,52(a5)
    DMA1_Channel3->CFGR |= DMA_CFGR1_EN;  // Turn on channel
     3ee:	5b98                	lw	a4,48(a5)
        DMA1->INTFCR = DMA1_FLAG_TC3;
     3f0:	400206b7          	lui	a3,0x40020
     3f4:	20000593          	li	a1,512
    DMA1_Channel3->CFGR |= DMA_CFGR1_EN;  // Turn on channel
     3f8:	00176713          	ori	a4,a4,1
     3fc:	db98                	sw	a4,48(a5)
    while (repeat--) {
     3fe:	67c1                	lui	a5,0x10
     400:	17fd                	addi	a5,a5,-1
     402:	167d                	addi	a2,a2,-1
     404:	0642                	slli	a2,a2,0x10
     406:	8241                	srli	a2,a2,0x10
     408:	00f61863          	bne	a2,a5,418 <INTF_TFT_SEND_BUFF+0x50>
    DMA1_Channel3->CFGR &= ~DMA_CFGR1_EN;  // Turn off channel
     40c:	40020737          	lui	a4,0x40020
     410:	5b1c                	lw	a5,48(a4)
     412:	9bf9                	andi	a5,a5,-2
     414:	db1c                	sw	a5,48(a4)
}
     416:	8082                	ret
        DMA1->INTFCR = DMA1_FLAG_TC3;
     418:	c2cc                	sw	a1,4(a3)
        while (!(DMA1->INTFR & DMA1_FLAG_TC3))
     41a:	4298                	lw	a4,0(a3)
     41c:	20077713          	andi	a4,a4,512
     420:	df6d                	beqz	a4,41a <INTF_TFT_SEND_BUFF+0x52>
     422:	b7c5                	j	402 <INTF_TFT_SEND_BUFF+0x3a>

00000424 <INTF_TFT_SET_WINDOW>:

void INTF_TFT_SET_WINDOW(uint16_t x0, uint16_t y0, uint16_t x1, uint16_t y1) {
     424:	1121                	addi	sp,sp,-24
     426:	c626                	sw	s1,12(sp)
     428:	84b6                	mv	s1,a3
     42a:	c822                	sw	s0,16(sp)
    write_command_8(DC_PIN2, ST7735_CASET);
     42c:	c901c403          	lbu	s0,-880(gp) # 2000008c <DC_PIN2>
void INTF_TFT_SET_WINDOW(uint16_t x0, uint16_t y0, uint16_t x1, uint16_t y1) {
     430:	c42a                	sw	a0,8(sp)
     432:	c22e                	sw	a1,4(sp)
    write_command_8(DC_PIN2, ST7735_CASET);
     434:	8522                	mv	a0,s0
     436:	02a00593          	li	a1,42
void INTF_TFT_SET_WINDOW(uint16_t x0, uint16_t y0, uint16_t x1, uint16_t y1) {
     43a:	ca06                	sw	ra,20(sp)
     43c:	c032                	sw	a2,0(sp)
    write_command_8(DC_PIN2, ST7735_CASET);
     43e:	3f15                	jal	372 <write_command_8>
    write_data_16(DC_PIN2, x0);
     440:	4722                	lw	a4,8(sp)
     442:	8522                	mv	a0,s0
     444:	85ba                	mv	a1,a4
     446:	37b9                	jal	394 <write_data_16>
    write_data_16(DC_PIN2, x1);
     448:	4602                	lw	a2,0(sp)
     44a:	8522                	mv	a0,s0
     44c:	85b2                	mv	a1,a2
     44e:	3799                	jal	394 <write_data_16>
    write_command_8(DC_PIN2, ST7735_RASET);
     450:	8522                	mv	a0,s0
     452:	02b00593          	li	a1,43
     456:	3f31                	jal	372 <write_command_8>
    write_data_16(DC_PIN2, y0);
     458:	4792                	lw	a5,4(sp)
     45a:	8522                	mv	a0,s0
     45c:	85be                	mv	a1,a5
     45e:	3f1d                	jal	394 <write_data_16>
    write_data_16(DC_PIN2, y1);
     460:	85a6                	mv	a1,s1
     462:	8522                	mv	a0,s0
     464:	3f05                	jal	394 <write_data_16>
    write_command_8(DC_PIN2, ST7735_RAMWR);
     466:	8522                	mv	a0,s0
}
     468:	4442                	lw	s0,16(sp)
     46a:	40d2                	lw	ra,20(sp)
     46c:	44b2                	lw	s1,12(sp)
    write_command_8(DC_PIN2, ST7735_RAMWR);
     46e:	02c00593          	li	a1,44
}
     472:	0161                	addi	sp,sp,24
    write_command_8(DC_PIN2, ST7735_RAMWR);
     474:	bdfd                	j	372 <write_command_8>

00000476 <tft_print>:
    INTF_TFT_SET_WINDOW(_cursor_x, _cursor_y, _cursor_x + width - 1, _cursor_y + height - 1);
    INTF_TFT_SEND_BUFF(_frame_buffer, sz, 1);
    END_WRITE();
}

void tft_print(const char* str) {
     476:	1131                	addi	sp,sp,-20
     478:	c622                	sw	s0,12(sp)
     47a:	c806                	sw	ra,16(sp)
     47c:	c426                	sw	s1,8(sp)
     47e:	842a                	mv	s0,a0
    uint8_t font_width = 5; // Assuming a fixed width for the font

    while (*str) {
     480:	00044783          	lbu	a5,0(s0)
     484:	e791                	bnez	a5,490 <tft_print+0x1a>
        tft_print_char(*str++, 7, font_width, 0xFFFF, 0x0000); // 7x5 font size
        _cursor_x += font_width + 1;
    }
}
     486:	40c2                	lw	ra,16(sp)
     488:	4432                	lw	s0,12(sp)
     48a:	44a2                	lw	s1,8(sp)
     48c:	0151                	addi	sp,sp,20
     48e:	8082                	ret
    const unsigned char* start = &font[c + (c << 2)];
     490:	00279713          	slli	a4,a5,0x2
     494:	97ba                	add	a5,a5,a4
        tft_print_char(*str++, 7, font_width, 0xFFFF, 0x0000); // 7x5 font size
     496:	0405                	addi	s0,s0,1
    const unsigned char* start = &font[c + (c << 2)];
     498:	c03e                	sw	a5,0(sp)
     49a:	4301                	li	t1,0
    uint16_t sz = 0;
     49c:	4681                	li	a3,0
     49e:	e5818513          	addi	a0,gp,-424 # 20000254 <_frame_buffer>
                _frame_buffer[sz++] = color >> 8;
     4a2:	53fd                	li	t2,-1
     4a4:	4785                	li	a5,1
     4a6:	006797b3          	sll	a5,a5,t1
     4aa:	c23e                	sw	a5,4(sp)
            if ((*(start + j)) & (0x01 << i)) {
     4ac:	8636                	mv	a2,a3
     4ae:	4581                	li	a1,0
     4b0:	4282                	lw	t0,0(sp)
     4b2:	6089                	lui	ra,0x2
     4b4:	6ec08093          	addi	ra,ra,1772 # 26ec <font>
     4b8:	92ae                	add	t0,t0,a1
     4ba:	9286                	add	t0,t0,ra
     4bc:	0002c283          	lbu	t0,0(t0)
     4c0:	4092                	lw	ra,4(sp)
     4c2:	00160793          	addi	a5,a2,1
                _frame_buffer[sz++] = color >> 8;
     4c6:	8732                	mv	a4,a2
                _frame_buffer[sz++] = color;
     4c8:	0609                	addi	a2,a2,2
     4ca:	07c2                	slli	a5,a5,0x10
     4cc:	0642                	slli	a2,a2,0x10
            if ((*(start + j)) & (0x01 << i)) {
     4ce:	0012f2b3          	and	t0,t0,ra
     4d2:	83c1                	srli	a5,a5,0x10
                _frame_buffer[sz++] = color;
     4d4:	8241                	srli	a2,a2,0x10
                _frame_buffer[sz++] = color >> 8;
     4d6:	972a                	add	a4,a4,a0
            if ((*(start + j)) & (0x01 << i)) {
     4d8:	06028163          	beqz	t0,53a <tft_print+0xc4>
                _frame_buffer[sz++] = color >> 8;
     4dc:	00770023          	sb	t2,0(a4) # 40020000 <_eusrstack+0x2001f800>
                _frame_buffer[sz++] = color;
     4e0:	97aa                	add	a5,a5,a0
     4e2:	00778023          	sb	t2,0(a5) # 10000 <lib_i2c.c.d894f163+0x5f2c>
        for (uint8_t j = 0; j < width; j++) {
     4e6:	0585                	addi	a1,a1,1
     4e8:	4795                	li	a5,5
     4ea:	fcf593e3          	bne	a1,a5,4b0 <tft_print+0x3a>
                _frame_buffer[sz++] = color;
     4ee:	06a9                	addi	a3,a3,10
     4f0:	06c2                	slli	a3,a3,0x10
     4f2:	82c1                	srli	a3,a3,0x10
    for (uint8_t i = 0; i < height; i++) {
     4f4:	04600793          	li	a5,70
     4f8:	0305                	addi	t1,t1,1
     4fa:	faf695e3          	bne	a3,a5,4a4 <tft_print+0x2e>
    INTF_TFT_SET_WINDOW(_cursor_x, _cursor_y, _cursor_x + width - 1, _cursor_y + height - 1);
     4fe:	ca018713          	addi	a4,gp,-864 # 2000009c <_cursor_x>
     502:	00075783          	lhu	a5,0(a4)
     506:	ca21d583          	lhu	a1,-862(gp) # 2000009e <_cursor_y>
     50a:	00478613          	addi	a2,a5,4
     50e:	00658693          	addi	a3,a1,6
     512:	06c2                	slli	a3,a3,0x10
     514:	0642                	slli	a2,a2,0x10
     516:	853e                	mv	a0,a5
     518:	82c1                	srli	a3,a3,0x10
     51a:	8241                	srli	a2,a2,0x10
     51c:	c03e                	sw	a5,0(sp)
     51e:	3719                	jal	424 <INTF_TFT_SET_WINDOW>
    INTF_TFT_SEND_BUFF(_frame_buffer, sz, 1);
     520:	4605                	li	a2,1
     522:	04600593          	li	a1,70
     526:	e5818513          	addi	a0,gp,-424 # 20000254 <_frame_buffer>
     52a:	3d79                	jal	3c8 <INTF_TFT_SEND_BUFF>
        _cursor_x += font_width + 1;
     52c:	4782                	lw	a5,0(sp)
     52e:	ca018713          	addi	a4,gp,-864 # 2000009c <_cursor_x>
     532:	0799                	addi	a5,a5,6
     534:	00f71023          	sh	a5,0(a4)
     538:	b7a1                	j	480 <tft_print+0xa>
                _frame_buffer[sz++] = bg_color >> 8;
     53a:	00070023          	sb	zero,0(a4)
                _frame_buffer[sz++] = bg_color;
     53e:	97aa                	add	a5,a5,a0
     540:	00078023          	sb	zero,0(a5)
     544:	b74d                	j	4e6 <tft_print+0x70>

00000546 <tft_fill_rect>:

void tft_fill_rect(
    uint16_t x, uint16_t y,
    uint16_t width, uint16_t height, uint16_t color
) {
    x += TFT_X_OFFSET;
     546:	0505                	addi	a0,a0,1
    y += TFT_Y_OFFSET;
     548:	05e9                	addi	a1,a1,26
) {
     54a:	1151                	addi	sp,sp,-12
    x += TFT_X_OFFSET;
     54c:	0542                	slli	a0,a0,0x10
    y += TFT_Y_OFFSET;
     54e:	05c2                	slli	a1,a1,0x10
) {
     550:	c222                	sw	s0,4(sp)
     552:	c026                	sw	s1,0(sp)
     554:	c406                	sw	ra,8(sp)
     556:	84b6                	mv	s1,a3
     558:	8432                	mv	s0,a2
    x += TFT_X_OFFSET;
     55a:	8141                	srli	a0,a0,0x10
    y += TFT_Y_OFFSET;
     55c:	81c1                	srli	a1,a1,0x10

    uint16_t sz = 0;
    for (uint16_t x = 0; x < width; x++) {
        _buffer[sz++] = color >> 8;
     55e:	00875293          	srli	t0,a4,0x8
     562:	d1818313          	addi	t1,gp,-744 # 20000114 <_buffer>
    for (uint16_t x = 0; x < width; x++) {
     566:	4681                	li	a3,0
        _buffer[sz++] = color >> 8;
     568:	8636                	mv	a2,a3
    for (uint16_t x = 0; x < width; x++) {
     56a:	0685                	addi	a3,a3,1
     56c:	06c2                	slli	a3,a3,0x10
        _buffer[sz++] = color >> 8;
     56e:	00530023          	sb	t0,0(t1)
        _buffer[sz++] = color;
     572:	00e300a3          	sb	a4,1(t1)
    for (uint16_t x = 0; x < width; x++) {
     576:	82c1                	srli	a3,a3,0x10
     578:	0309                	addi	t1,t1,2
     57a:	fed417e3          	bne	s0,a3,568 <tft_fill_rect+0x22>
    }

    START_WRITE();
    INTF_TFT_SET_WINDOW(x, y, x + width - 1, y + height - 1);
     57e:	fff48693          	addi	a3,s1,-1
     582:	96ae                	add	a3,a3,a1
     584:	962a                	add	a2,a2,a0
     586:	06c2                	slli	a3,a3,0x10
     588:	0642                	slli	a2,a2,0x10
     58a:	8241                	srli	a2,a2,0x10
     58c:	82c1                	srli	a3,a3,0x10
     58e:	3d59                	jal	424 <INTF_TFT_SET_WINDOW>
        _buffer[sz++] = color;
     590:	00141593          	slli	a1,s0,0x1
    INTF_TFT_SEND_BUFF(_buffer, sz, height);
    END_WRITE();
}
     594:	4412                	lw	s0,4(sp)
     596:	40a2                	lw	ra,8(sp)
    INTF_TFT_SEND_BUFF(_buffer, sz, height);
     598:	8626                	mv	a2,s1
}
     59a:	4482                	lw	s1,0(sp)
    INTF_TFT_SEND_BUFF(_buffer, sz, height);
     59c:	05c2                	slli	a1,a1,0x10
     59e:	81c1                	srli	a1,a1,0x10
     5a0:	d1818513          	addi	a0,gp,-744 # 20000114 <_buffer>
}
     5a4:	0131                	addi	sp,sp,12
    INTF_TFT_SEND_BUFF(_buffer, sz, height);
     5a6:	b50d                	j	3c8 <INTF_TFT_SEND_BUFF>

000005a8 <tft_draw_pixel>:
                            }

//! draw pixel
void tft_draw_pixel(
    uint16_t x, uint16_t y, uint16_t color
) {
     5a8:	1151                	addi	sp,sp,-12
    x += TFT_X_OFFSET;
     5aa:	0505                	addi	a0,a0,1
    y += TFT_Y_OFFSET;
     5ac:	01a58693          	addi	a3,a1,26
) {
     5b0:	c222                	sw	s0,4(sp)
    y += TFT_Y_OFFSET;
     5b2:	06c2                	slli	a3,a3,0x10
) {
     5b4:	8432                	mv	s0,a2
    x += TFT_X_OFFSET;
     5b6:	01051613          	slli	a2,a0,0x10
     5ba:	8241                	srli	a2,a2,0x10
    y += TFT_Y_OFFSET;
     5bc:	82c1                	srli	a3,a3,0x10
    START_WRITE();
    INTF_TFT_SET_WINDOW(x, y, x, y);
     5be:	85b6                	mv	a1,a3
     5c0:	8532                	mv	a0,a2
) {
     5c2:	c406                	sw	ra,8(sp)
    INTF_TFT_SET_WINDOW(x, y, x, y);
     5c4:	3585                	jal	424 <INTF_TFT_SET_WINDOW>

void INTF_TFT_SEND_COLOR(uint16_t color) {
    write_data_16(DC_PIN2, color);
     5c6:	85a2                	mv	a1,s0
    INTF_TFT_SEND_COLOR(color);
    END_WRITE();
}
     5c8:	4412                	lw	s0,4(sp)
     5ca:	40a2                	lw	ra,8(sp)
     5cc:	c901c503          	lbu	a0,-880(gp) # 2000008c <DC_PIN2>
     5d0:	0131                	addi	sp,sp,12
     5d2:	b3c9                	j	394 <write_data_16>

000005d4 <_draw_fast_vLine>:

//! private
static void _draw_fast_vLine(
    int16_t x, int16_t y, int16_t h, uint16_t color
) {
     5d4:	1151                	addi	sp,sp,-12
     5d6:	c222                	sw	s0,4(sp)
    x += TFT_X_OFFSET;
    y += TFT_Y_OFFSET;
     5d8:	05e9                	addi	a1,a1,26
) {
     5da:	8432                	mv	s0,a2
    x += TFT_X_OFFSET;
     5dc:	00150613          	addi	a2,a0,1
) {
     5e0:	c026                	sw	s1,0(sp)
    x += TFT_X_OFFSET;
     5e2:	0642                	slli	a2,a2,0x10
    y += TFT_Y_OFFSET;
     5e4:	05c2                	slli	a1,a1,0x10
) {
     5e6:	c406                	sw	ra,8(sp)
    x += TFT_X_OFFSET;
     5e8:	8241                	srli	a2,a2,0x10
    y += TFT_Y_OFFSET;
     5ea:	81c1                	srli	a1,a1,0x10

    uint16_t sz = 0;
    for (int16_t j = 0; j < h; j++) {
        _buffer[sz++] = color >> 8;
     5ec:	0086d513          	srli	a0,a3,0x8
     5f0:	d1818713          	addi	a4,gp,-744 # 20000114 <_buffer>
    for (int16_t j = 0; j < h; j++) {
     5f4:	4781                	li	a5,0
     5f6:	0287c863          	blt	a5,s0,626 <_draw_fast_vLine+0x52>
        _buffer[sz++] = color;
    }

    START_WRITE();
    INTF_TFT_SET_WINDOW(x, y, x, y + h - 1);
     5fa:	fff40693          	addi	a3,s0,-1
     5fe:	96ae                	add	a3,a3,a1
     600:	06c2                	slli	a3,a3,0x10
     602:	82c1                	srli	a3,a3,0x10
     604:	8532                	mv	a0,a2
     606:	3d39                	jal	424 <INTF_TFT_SET_WINDOW>
    INTF_TFT_SEND_BUFF(_buffer, sz, 1);
     608:	85a2                	mv	a1,s0
     60a:	00045363          	bgez	s0,610 <_draw_fast_vLine+0x3c>
     60e:	4581                	li	a1,0
    END_WRITE();
}
     610:	4412                	lw	s0,4(sp)
     612:	40a2                	lw	ra,8(sp)
    INTF_TFT_SEND_BUFF(_buffer, sz, 1);
     614:	0586                	slli	a1,a1,0x1
     616:	d1818513          	addi	a0,gp,-744 # 20000114 <_buffer>
}
     61a:	4482                	lw	s1,0(sp)
    INTF_TFT_SEND_BUFF(_buffer, sz, 1);
     61c:	05c2                	slli	a1,a1,0x10
     61e:	81c1                	srli	a1,a1,0x10
     620:	4605                	li	a2,1
}
     622:	0131                	addi	sp,sp,12
    INTF_TFT_SEND_BUFF(_buffer, sz, 1);
     624:	b355                	j	3c8 <INTF_TFT_SEND_BUFF>
        _buffer[sz++] = color >> 8;
     626:	0785                	addi	a5,a5,1
     628:	07c2                	slli	a5,a5,0x10
     62a:	00a70023          	sb	a0,0(a4)
        _buffer[sz++] = color;
     62e:	00d700a3          	sb	a3,1(a4)
    for (int16_t j = 0; j < h; j++) {
     632:	87c1                	srai	a5,a5,0x10
     634:	0709                	addi	a4,a4,2
     636:	b7c1                	j	5f6 <_draw_fast_vLine+0x22>

00000638 <_draw_fast_hLine>:


//! private
static void _draw_fast_hLine(
    int16_t x, int16_t y, int16_t w, uint16_t color
) {
     638:	1151                	addi	sp,sp,-12
    x += TFT_X_OFFSET;
    y += TFT_Y_OFFSET;
     63a:	05e9                	addi	a1,a1,26
    x += TFT_X_OFFSET;
     63c:	0505                	addi	a0,a0,1
) {
     63e:	c222                	sw	s0,4(sp)
     640:	c026                	sw	s1,0(sp)
     642:	8432                	mv	s0,a2
    x += TFT_X_OFFSET;
     644:	0542                	slli	a0,a0,0x10
) {
     646:	8636                	mv	a2,a3
    y += TFT_Y_OFFSET;
     648:	01059693          	slli	a3,a1,0x10
) {
     64c:	c406                	sw	ra,8(sp)
    x += TFT_X_OFFSET;
     64e:	8141                	srli	a0,a0,0x10
    y += TFT_Y_OFFSET;
     650:	82c1                	srli	a3,a3,0x10

    uint16_t sz = 0;
    for (int16_t j = 0; j < w; j++) {
        _buffer[sz++] = color >> 8;
     652:	00865593          	srli	a1,a2,0x8
     656:	d1818713          	addi	a4,gp,-744 # 20000114 <_buffer>
    for (int16_t j = 0; j < w; j++) {
     65a:	4781                	li	a5,0
     65c:	0287c863          	blt	a5,s0,68c <_draw_fast_hLine+0x54>
        _buffer[sz++] = color;
    }

    START_WRITE();
    INTF_TFT_SET_WINDOW(x, y, x + w - 1, y);
     660:	fff40613          	addi	a2,s0,-1
     664:	962a                	add	a2,a2,a0
     666:	0642                	slli	a2,a2,0x10
     668:	85b6                	mv	a1,a3
     66a:	8241                	srli	a2,a2,0x10
     66c:	3b65                	jal	424 <INTF_TFT_SET_WINDOW>
    INTF_TFT_SEND_BUFF(_buffer, sz, 1);
     66e:	85a2                	mv	a1,s0
     670:	00045363          	bgez	s0,676 <_draw_fast_hLine+0x3e>
     674:	4581                	li	a1,0
    END_WRITE();
}
     676:	4412                	lw	s0,4(sp)
     678:	40a2                	lw	ra,8(sp)
    INTF_TFT_SEND_BUFF(_buffer, sz, 1);
     67a:	0586                	slli	a1,a1,0x1
     67c:	d1818513          	addi	a0,gp,-744 # 20000114 <_buffer>
}
     680:	4482                	lw	s1,0(sp)
    INTF_TFT_SEND_BUFF(_buffer, sz, 1);
     682:	05c2                	slli	a1,a1,0x10
     684:	81c1                	srli	a1,a1,0x10
     686:	4605                	li	a2,1
}
     688:	0131                	addi	sp,sp,12
    INTF_TFT_SEND_BUFF(_buffer, sz, 1);
     68a:	bb3d                	j	3c8 <INTF_TFT_SEND_BUFF>
        _buffer[sz++] = color >> 8;
     68c:	0785                	addi	a5,a5,1
     68e:	07c2                	slli	a5,a5,0x10
     690:	00b70023          	sb	a1,0(a4)
        _buffer[sz++] = color;
     694:	00c700a3          	sb	a2,1(a4)
    for (int16_t j = 0; j < w; j++) {
     698:	87c1                	srai	a5,a5,0x10
     69a:	0709                	addi	a4,a4,2
     69c:	b7c1                	j	65c <_draw_fast_hLine+0x24>

0000069e <tft_draw_line>:

//! draw line
void tft_draw_line(
    int16_t x0, int16_t y0,
    int16_t x1, int16_t y1, uint16_t color, uint8_t width
) {
     69e:	82b2                	mv	t0,a2
     6a0:	832a                	mv	t1,a0
     6a2:	8636                	mv	a2,a3
     6a4:	86ba                	mv	a3,a4
    if (x0 == x1) {
     6a6:	00551d63          	bne	a0,t0,6c0 <tft_draw_line+0x22>
        if (y0 > y1) _swap_int16(y0, y1);
     6aa:	00b65563          	bge	a2,a1,6b4 <tft_draw_line+0x16>
     6ae:	87ae                	mv	a5,a1
     6b0:	85b2                	mv	a1,a2
     6b2:	863e                	mv	a2,a5
        _draw_fast_vLine(x0, y0, y1 - y0 + 1, color);
     6b4:	0605                	addi	a2,a2,1
     6b6:	8e0d                	sub	a2,a2,a1
     6b8:	0642                	slli	a2,a2,0x10
     6ba:	8641                	srai	a2,a2,0x10
     6bc:	851a                	mv	a0,t1
     6be:	bf19                	j	5d4 <_draw_fast_vLine>
    }
    else if (y0 == y1) {
     6c0:	00c59e63          	bne	a1,a2,6dc <tft_draw_line+0x3e>
        if (x0 > x1) _swap_int16(x0, x1);
     6c4:	00a2d463          	bge	t0,a0,6cc <tft_draw_line+0x2e>
     6c8:	8316                	mv	t1,t0
     6ca:	82aa                	mv	t0,a0
        _draw_fast_hLine(x0, y0, x1 - x0 + 1, color);
     6cc:	00128613          	addi	a2,t0,1
     6d0:	40660633          	sub	a2,a2,t1
     6d4:	0642                	slli	a2,a2,0x10
     6d6:	8641                	srai	a2,a2,0x10
     6d8:	851a                	mv	a0,t1
     6da:	bfb9                	j	638 <_draw_fast_hLine>
) {
     6dc:	fc410113          	addi	sp,sp,-60
     6e0:	dc06                	sw	ra,56(sp)
     6e2:	da22                	sw	s0,52(sp)
     6e4:	d826                	sw	s1,48(sp)
     6e6:	853e                	mv	a0,a5
    uint8_t steep = _diff(y1, y0) > _diff(x1, x0);
     6e8:	40c587b3          	sub	a5,a1,a2
     6ec:	00c5d463          	bge	a1,a2,6f4 <tft_draw_line+0x56>
     6f0:	40b607b3          	sub	a5,a2,a1
     6f4:	06535763          	bge	t1,t0,762 <tft_draw_line+0xc4>
     6f8:	40628733          	sub	a4,t0,t1
    if (steep) {
     6fc:	06f74d63          	blt	a4,a5,776 <tft_draw_line+0xd8>
     700:	83ae                	mv	t2,a1
     702:	859a                	mv	a1,t1
     704:	831e                	mv	t1,t2
    int16_t dx   = x1 - x0;
     706:	40b283b3          	sub	t2,t0,a1
     70a:	01039413          	slli	s0,t2,0x10
     70e:	8041                	srli	s0,s0,0x10
     710:	c622                	sw	s0,12(sp)
     712:	03c2                	slli	t2,t2,0x10
    int16_t dy   = _diff(y1, y0);
     714:	01031413          	slli	s0,t1,0x10
     718:	01061493          	slli	s1,a2,0x10
    int16_t dx   = x1 - x0;
     71c:	4103d393          	srai	t2,t2,0x10
    int16_t dy   = _diff(y1, y0);
     720:	8041                	srli	s0,s0,0x10
     722:	80c1                	srli	s1,s1,0x10
     724:	06c35563          	bge	t1,a2,78e <tft_draw_line+0xf0>
     728:	40848433          	sub	s0,s1,s0
     72c:	0442                	slli	s0,s0,0x10
     72e:	8441                	srai	s0,s0,0x10
     730:	c222                	sw	s0,4(sp)
    int16_t step = (y0 < y1) ? 1 : -1;
     732:	4405                	li	s0,1
     734:	c422                	sw	s0,8(sp)
    int16_t err  = dx >> 1;
     736:	4013d393          	srai	t2,t2,0x1
    int16_t step = (y0 < y1) ? 1 : -1;
     73a:	00c34463          	blt	t1,a2,742 <tft_draw_line+0xa4>
     73e:	567d                	li	a2,-1
     740:	c432                	sw	a2,8(sp)
        for (int16_t w = -(width / 2); w <= width / 2; w++) {
     742:	00155613          	srli	a2,a0,0x1
     746:	c032                	sw	a2,0(sp)
     748:	40c00633          	neg	a2,a2
     74c:	0642                	slli	a2,a2,0x10
     74e:	8641                	srai	a2,a2,0x10
     750:	c832                	sw	a2,16(sp)
    for (; x0 <= x1; x0++) {
     752:	04b2d063          	bge	t0,a1,792 <tft_draw_line+0xf4>
    }
    else {
        _draw_line_bresenham(x0, y0, x1, y1, color, width);
    }
}
     756:	50e2                	lw	ra,56(sp)
     758:	5452                	lw	s0,52(sp)
     75a:	54c2                	lw	s1,48(sp)
     75c:	03c10113          	addi	sp,sp,60
     760:	8082                	ret
    uint8_t steep = _diff(y1, y0) > _diff(x1, x0);
     762:	40530733          	sub	a4,t1,t0
    if (steep) {
     766:	00f74863          	blt	a4,a5,776 <tft_draw_line+0xd8>
     76a:	83b2                	mv	t2,a2
     76c:	8616                	mv	a2,t0
     76e:	829e                	mv	t0,t2
     770:	83ae                	mv	t2,a1
     772:	859a                	mv	a1,t1
     774:	831e                	mv	t1,t2
    if (x0 > x1) {
     776:	00b65863          	bge	a2,a1,786 <tft_draw_line+0xe8>
     77a:	83ae                	mv	t2,a1
     77c:	85b2                	mv	a1,a2
     77e:	861a                	mv	a2,t1
     780:	8316                	mv	t1,t0
     782:	829e                	mv	t0,t2
     784:	b749                	j	706 <tft_draw_line+0x68>
     786:	8396                	mv	t2,t0
     788:	82b2                	mv	t0,a2
     78a:	861e                	mv	a2,t2
     78c:	bfad                	j	706 <tft_draw_line+0x68>
    int16_t dy   = _diff(y1, y0);
     78e:	8c05                	sub	s0,s0,s1
     790:	bf71                	j	72c <tft_draw_line+0x8e>
        for (int16_t w = -(width / 2); w <= width / 2; w++) {
     792:	44c2                	lw	s1,16(sp)
     794:	01059413          	slli	s0,a1,0x10
     798:	8041                	srli	s0,s0,0x10
                tft_draw_pixel(y0 + w, x0, color); // Draw perpendicular pixels for width
     79a:	01031613          	slli	a2,t1,0x10
     79e:	04c2                	slli	s1,s1,0x10
     7a0:	8241                	srli	a2,a2,0x10
     7a2:	80c1                	srli	s1,s1,0x10
     7a4:	00960533          	add	a0,a2,s1
     7a8:	ca32                	sw	a2,20(sp)
     7aa:	0542                	slli	a0,a0,0x10
     7ac:	d616                	sw	t0,44(sp)
     7ae:	d41a                	sw	t1,40(sp)
     7b0:	d21e                	sw	t2,36(sp)
     7b2:	d03e                	sw	a5,32(sp)
     7b4:	ce3a                	sw	a4,28(sp)
     7b6:	cc36                	sw	a3,24(sp)
     7b8:	8141                	srli	a0,a0,0x10
     7ba:	8636                	mv	a2,a3
            if (steep) {
     7bc:	04f75d63          	bge	a4,a5,816 <tft_draw_line+0x178>
                tft_draw_pixel(y0 + w, x0, color); // Draw perpendicular pixels for width
     7c0:	85a2                	mv	a1,s0
     7c2:	33dd                	jal	5a8 <tft_draw_pixel>
     7c4:	46e2                	lw	a3,24(sp)
     7c6:	4772                	lw	a4,28(sp)
     7c8:	5782                	lw	a5,32(sp)
     7ca:	5392                	lw	t2,36(sp)
     7cc:	5322                	lw	t1,40(sp)
     7ce:	52b2                	lw	t0,44(sp)
        for (int16_t w = -(width / 2); w <= width / 2; w++) {
     7d0:	0485                	addi	s1,s1,1
     7d2:	4602                	lw	a2,0(sp)
     7d4:	04c2                	slli	s1,s1,0x10
     7d6:	84c1                	srai	s1,s1,0x10
     7d8:	fc9651e3          	bge	a2,s1,79a <tft_draw_line+0xfc>
        err -= dy;
     7dc:	4612                	lw	a2,4(sp)
     7de:	40c383b3          	sub	t2,t2,a2
     7e2:	01039613          	slli	a2,t2,0x10
     7e6:	03c2                	slli	t2,t2,0x10
     7e8:	4103d393          	srai	t2,t2,0x10
     7ec:	8241                	srli	a2,a2,0x10
        if (err < 0) {
     7ee:	0003df63          	bgez	t2,80c <tft_draw_line+0x16e>
            err += dx;
     7f2:	45b2                	lw	a1,12(sp)
     7f4:	00c583b3          	add	t2,a1,a2
            y0 += step;
     7f8:	4652                	lw	a2,20(sp)
     7fa:	45a2                	lw	a1,8(sp)
            err += dx;
     7fc:	03c2                	slli	t2,t2,0x10
     7fe:	4103d393          	srai	t2,t2,0x10
            y0 += step;
     802:	00b60333          	add	t1,a2,a1
     806:	0342                	slli	t1,t1,0x10
     808:	41035313          	srai	t1,t1,0x10
    for (; x0 <= x1; x0++) {
     80c:	0405                	addi	s0,s0,1
     80e:	01041593          	slli	a1,s0,0x10
     812:	85c1                	srai	a1,a1,0x10
     814:	bf3d                	j	752 <tft_draw_line+0xb4>
                tft_draw_pixel(x0, y0 + w, color); // Draw perpendicular pixels for width
     816:	85aa                	mv	a1,a0
     818:	8522                	mv	a0,s0
     81a:	3379                	jal	5a8 <tft_draw_pixel>
     81c:	52b2                	lw	t0,44(sp)
     81e:	5322                	lw	t1,40(sp)
     820:	5392                	lw	t2,36(sp)
     822:	5782                	lw	a5,32(sp)
     824:	4772                	lw	a4,28(sp)
     826:	46e2                	lw	a3,24(sp)
     828:	b765                	j	7d0 <tft_draw_line+0x132>

0000082a <tft_draw_rect>:

//! draw rectangle
void tft_draw_rect(
    uint16_t x, uint16_t y,
    uint16_t width, uint16_t height, uint16_t color
) {
     82a:	fdc10113          	addi	sp,sp,-36
     82e:	ce22                	sw	s0,28(sp)
    _draw_fast_hLine(x, y, width, color);
     830:	01059413          	slli	s0,a1,0x10
) {
     834:	cc26                	sw	s1,24(sp)
     836:	87b2                	mv	a5,a2
    _draw_fast_hLine(x, y, width, color);
     838:	8441                	srai	s0,s0,0x10
) {
     83a:	84aa                	mv	s1,a0
    _draw_fast_hLine(x, y, width, color);
     83c:	0642                	slli	a2,a2,0x10
     83e:	0542                	slli	a0,a0,0x10
) {
     840:	c036                	sw	a3,0(sp)
    _draw_fast_hLine(x, y, width, color);
     842:	8541                	srai	a0,a0,0x10
) {
     844:	86ba                	mv	a3,a4
    _draw_fast_hLine(x, y, width, color);
     846:	ca2e                	sw	a1,20(sp)
     848:	8641                	srai	a2,a2,0x10
     84a:	85a2                	mv	a1,s0
) {
     84c:	d006                	sw	ra,32(sp)
    _draw_fast_hLine(x, y, width, color);
     84e:	c23a                	sw	a4,4(sp)
     850:	c83e                	sw	a5,16(sp)
     852:	c632                	sw	a2,12(sp)
     854:	c42a                	sw	a0,8(sp)
     856:	33cd                	jal	638 <_draw_fast_hLine>
    _draw_fast_hLine(x, y + height - 1, width, color);
     858:	4782                	lw	a5,0(sp)
     85a:	4352                	lw	t1,20(sp)
     85c:	4692                	lw	a3,4(sp)
     85e:	fff78593          	addi	a1,a5,-1
     862:	4632                	lw	a2,12(sp)
     864:	4522                	lw	a0,8(sp)
     866:	959a                	add	a1,a1,t1
     868:	05c2                	slli	a1,a1,0x10
     86a:	85c1                	srai	a1,a1,0x10
     86c:	33f1                	jal	638 <_draw_fast_hLine>
    _draw_fast_vLine(x, y, height, color);
     86e:	00011603          	lh	a2,0(sp)
     872:	4692                	lw	a3,4(sp)
     874:	4522                	lw	a0,8(sp)
     876:	85a2                	mv	a1,s0
     878:	c032                	sw	a2,0(sp)
     87a:	3ba9                	jal	5d4 <_draw_fast_vLine>
    _draw_fast_vLine(x + width - 1, y, height, color);
     87c:	47c2                	lw	a5,16(sp)
     87e:	85a2                	mv	a1,s0
}
     880:	4472                	lw	s0,28(sp)
    _draw_fast_vLine(x + width - 1, y, height, color);
     882:	fff78513          	addi	a0,a5,-1
     886:	4692                	lw	a3,4(sp)
     888:	4602                	lw	a2,0(sp)
}
     88a:	5082                	lw	ra,32(sp)
    _draw_fast_vLine(x + width - 1, y, height, color);
     88c:	9526                	add	a0,a0,s1
}
     88e:	44e2                	lw	s1,24(sp)
    _draw_fast_vLine(x + width - 1, y, height, color);
     890:	0542                	slli	a0,a0,0x10
     892:	8541                	srai	a0,a0,0x10
}
     894:	02410113          	addi	sp,sp,36
    _draw_fast_vLine(x + width - 1, y, height, color);
     898:	bb35                	j	5d4 <_draw_fast_vLine>

0000089a <i2c_error>:
/// the bit flags
/// @param none
/// @return i2c_err_t error value
static inline i2c_err_t i2c_error(void)
{
	if(I2C1->STAR1 & I2C_STAR1_BERR)  {I2C1->STAR1 &= ~I2C_STAR1_BERR;  return I2C_ERR_BERR;}
     89a:	400057b7          	lui	a5,0x40005
     89e:	4147d703          	lhu	a4,1044(a5) # 40005414 <_eusrstack+0x20004c14>
     8a2:	40078793          	addi	a5,a5,1024
     8a6:	10077713          	andi	a4,a4,256
     8aa:	cf09                	beqz	a4,8c4 <i2c_error+0x2a>
     8ac:	0147d703          	lhu	a4,20(a5)
     8b0:	4505                	li	a0,1
     8b2:	0742                	slli	a4,a4,0x10
     8b4:	8341                	srli	a4,a4,0x10
     8b6:	eff77713          	andi	a4,a4,-257
     8ba:	0742                	slli	a4,a4,0x10
     8bc:	8341                	srli	a4,a4,0x10
     8be:	00e79a23          	sh	a4,20(a5)
     8c2:	8082                	ret
	if(I2C1->STAR1 & I2C_STAR1_AF)    {I2C1->STAR1 &= ~I2C_STAR1_AF;    return I2C_ERR_NACK;}
     8c4:	0147d703          	lhu	a4,20(a5)
     8c8:	40077713          	andi	a4,a4,1024
     8cc:	cf09                	beqz	a4,8e6 <i2c_error+0x4c>
     8ce:	0147d703          	lhu	a4,20(a5)
     8d2:	4509                	li	a0,2
     8d4:	0742                	slli	a4,a4,0x10
     8d6:	8341                	srli	a4,a4,0x10
     8d8:	bff77713          	andi	a4,a4,-1025
     8dc:	0742                	slli	a4,a4,0x10
     8de:	8341                	srli	a4,a4,0x10
     8e0:	00e79a23          	sh	a4,20(a5)
     8e4:	8082                	ret
	if(I2C1->STAR1 & I2C_STAR1_ARLO)  {I2C1->STAR1 &= ~I2C_STAR1_ARLO;  return I2C_ERR_ARLO;}
     8e6:	0147d703          	lhu	a4,20(a5)
     8ea:	20077713          	andi	a4,a4,512
     8ee:	cf09                	beqz	a4,908 <i2c_error+0x6e>
     8f0:	0147d703          	lhu	a4,20(a5)
     8f4:	450d                	li	a0,3
     8f6:	0742                	slli	a4,a4,0x10
     8f8:	8341                	srli	a4,a4,0x10
     8fa:	dff77713          	andi	a4,a4,-513
     8fe:	0742                	slli	a4,a4,0x10
     900:	8341                	srli	a4,a4,0x10
     902:	00e79a23          	sh	a4,20(a5)
     906:	8082                	ret
	if(I2C1->STAR1 & I2C_STAR1_OVR)   {I2C1->STAR1 &= ~I2C_STAR1_OVR;   return I2C_ERR_OVR;}
     908:	0147d703          	lhu	a4,20(a5)

	return I2C_OK;
     90c:	4501                	li	a0,0
	if(I2C1->STAR1 & I2C_STAR1_OVR)   {I2C1->STAR1 &= ~I2C_STAR1_OVR;   return I2C_ERR_OVR;}
     90e:	832d                	srli	a4,a4,0xb
     910:	8b05                	andi	a4,a4,1
     912:	cf01                	beqz	a4,92a <i2c_error+0x90>
     914:	0147d703          	lhu	a4,20(a5)
     918:	76fd                	lui	a3,0xfffff
     91a:	7ff68693          	addi	a3,a3,2047 # fffff7ff <_eusrstack+0xdfffefff>
     91e:	0742                	slli	a4,a4,0x10
     920:	8341                	srli	a4,a4,0x10
     922:	8f75                	and	a4,a4,a3
     924:	00e79a23          	sh	a4,20(a5)
     928:	4511                	li	a0,4
}
     92a:	8082                	ret

0000092c <i2c_send_addr_write>:
/// @return i2c_err_r error status. I2C_OK on success
static inline i2c_err_t i2c_send_addr_write(const i2c_device_t *dev)
{
	i2c_err_t i2c_ret = I2C_OK;
	
	if(dev->type == I2C_ADDR_7BIT)
     92c:	415c                	lw	a5,4(a0)
     92e:	e7b1                	bnez	a5,97a <i2c_send_addr_write+0x4e>
	{
		// Send the Address and wait for it to finish transmitting
		I2C1->DATAR = (dev->addr << 1) & 0xFE;
     930:	00855783          	lhu	a5,8(a0)
     934:	40005737          	lui	a4,0x40005
     938:	0786                	slli	a5,a5,0x1
     93a:	0fe7f793          	andi	a5,a5,254
     93e:	40f71823          	sh	a5,1040(a4) # 40005410 <_eusrstack+0x20004c10>
		I2C_TIMEOUT_WAIT_FOR(!i2c_status(I2C_EVENT_MASTER_TRANSMITTER_MODE_SELECTED), i2c_ret);
     942:	6789                	lui	a5,0x2
     944:	71078793          	addi	a5,a5,1808 # 2710 <font+0x24>
	return (status & status_mask) == status_mask; 
     948:	00070637          	lui	a2,0x70
		I2C_TIMEOUT_WAIT_FOR(!i2c_status(I2C_EVENT_MASTER_TRANSMITTER_MODE_SELECTED), i2c_ret);
     94c:	caf1a223          	sw	a5,-860(gp) # 200000a0 <_i2c_timeout>
     950:	4501                	li	a0,0
     952:	ca418693          	addi	a3,gp,-860 # 200000a0 <_i2c_timeout>
	uint32_t status = (uint32_t)I2C1->STAR1 | (uint32_t)(I2C1->STAR2 << 16);
     956:	40005337          	lui	t1,0x40005
	return (status & status_mask) == status_mask; 
     95a:	08260613          	addi	a2,a2,130 # 70082 <lib_i2c.c.d894f163+0x65fae>
	uint32_t status = (uint32_t)I2C1->STAR1 | (uint32_t)(I2C1->STAR2 << 16);
     95e:	41435703          	lhu	a4,1044(t1) # 40005414 <_eusrstack+0x20004c14>
     962:	01071593          	slli	a1,a4,0x10
     966:	41835703          	lhu	a4,1048(t1)
     96a:	81c1                	srli	a1,a1,0x10
     96c:	0742                	slli	a4,a4,0x10
     96e:	8f4d                	or	a4,a4,a1
	return (status & status_mask) == status_mask; 
     970:	8f71                	and	a4,a4,a2
		I2C_TIMEOUT_WAIT_FOR(!i2c_status(I2C_EVENT_MASTER_TRANSMITTER_MODE_SELECTED), i2c_ret);
     972:	00c71663          	bne	a4,a2,97e <i2c_send_addr_write+0x52>
     976:	c111                	beqz	a0,97a <i2c_send_addr_write+0x4e>
     978:	c29c                	sw	a5,0(a3)
	i2c_err_t i2c_ret = I2C_OK;
     97a:	4501                	li	a0,0
		uint8_t upper = 0xF0 | ((dev->addr & 0x0300) >> 7);
		uint8_t lower = dev->addr & 0xFF;
	}
*/
	return i2c_ret;
}
     97c:	8082                	ret
		I2C_TIMEOUT_WAIT_FOR(!i2c_status(I2C_EVENT_MASTER_TRANSMITTER_MODE_SELECTED), i2c_ret);
     97e:	17fd                	addi	a5,a5,-1
     980:	4505                	li	a0,1
     982:	fff1                	bnez	a5,95e <i2c_send_addr_write+0x32>
{
     984:	1151                	addi	sp,sp,-12
     986:	c406                	sw	ra,8(sp)
     988:	0006a023          	sw	zero,0(a3)
	i2c_err_t i2c_err = i2c_error();
     98c:	3739                	jal	89a <i2c_error>
	if(i2c_err == I2C_OK) i2c_err = I2C_ERR_BUSY;
     98e:	e111                	bnez	a0,992 <i2c_send_addr_write+0x66>
     990:	4515                	li	a0,5
}
     992:	40a2                	lw	ra,8(sp)
     994:	0131                	addi	sp,sp,12
     996:	8082                	ret

00000998 <i2c_ping>:
	return i2c_error();
}


i2c_err_t i2c_ping(const uint8_t addr)
{
     998:	1121                	addi	sp,sp,-24
	I2C_TIMEOUT_WAIT_FOR((I2C1->STAR2 & I2C_STAR2_BUSY), i2c_ret);
     99a:	6789                	lui	a5,0x2
	// Create a temporary i2c device using passed addr
	i2c_device_t tmp_dev = {.type = I2C_ADDR_7BIT, .addr = addr};
     99c:	c402                	sw	zero,8(sp)
	I2C_TIMEOUT_WAIT_FOR((I2C1->STAR2 & I2C_STAR2_BUSY), i2c_ret);
     99e:	71078793          	addi	a5,a5,1808 # 2710 <font+0x24>
     9a2:	caf1a223          	sw	a5,-860(gp) # 200000a0 <_i2c_timeout>
{
     9a6:	ca06                	sw	ra,20(sp)
	i2c_device_t tmp_dev = {.type = I2C_ADDR_7BIT, .addr = addr};
     9a8:	c002                	sw	zero,0(sp)
     9aa:	c202                	sw	zero,4(sp)
     9ac:	00a11423          	sh	a0,8(sp)
	I2C_TIMEOUT_WAIT_FOR((I2C1->STAR2 & I2C_STAR2_BUSY), i2c_ret);
     9b0:	4601                	li	a2,0
     9b2:	ca418713          	addi	a4,gp,-860 # 200000a0 <_i2c_timeout>
     9b6:	400055b7          	lui	a1,0x40005
     9ba:	4185d683          	lhu	a3,1048(a1) # 40005418 <_eusrstack+0x20004c18>
     9be:	8a89                	andi	a3,a3,2
     9c0:	e689                	bnez	a3,9ca <i2c_ping+0x32>
     9c2:	c211                	beqz	a2,9c6 <i2c_ping+0x2e>
     9c4:	c31c                	sw	a5,0(a4)
	i2c_err_t i2c_ret = I2C_OK;
     9c6:	4501                	li	a0,0
     9c8:	a809                	j	9da <i2c_ping+0x42>
	I2C_TIMEOUT_WAIT_FOR((I2C1->STAR2 & I2C_STAR2_BUSY), i2c_ret);
     9ca:	17fd                	addi	a5,a5,-1
     9cc:	4605                	li	a2,1
     9ce:	f7f5                	bnez	a5,9ba <i2c_ping+0x22>
     9d0:	00072023          	sw	zero,0(a4)
	i2c_err_t i2c_err = i2c_error();
     9d4:	35d9                	jal	89a <i2c_error>
	if(i2c_err == I2C_OK) i2c_err = I2C_ERR_BUSY;
     9d6:	e111                	bnez	a0,9da <i2c_ping+0x42>
     9d8:	4515                	li	a0,5
	I2C1->CTLR1 |= I2C_CTLR1_START;
     9da:	40005737          	lui	a4,0x40005
     9de:	40075783          	lhu	a5,1024(a4) # 40005400 <_eusrstack+0x20004c00>
	uint32_t status = (uint32_t)I2C1->STAR1 | (uint32_t)(I2C1->STAR2 << 16);
     9e2:	400055b7          	lui	a1,0x40005
	I2C1->CTLR1 |= I2C_CTLR1_START;
     9e6:	07c2                	slli	a5,a5,0x10
     9e8:	83c1                	srli	a5,a5,0x10
     9ea:	1007e793          	ori	a5,a5,256
     9ee:	40f71023          	sh	a5,1024(a4)
	return (status & status_mask) == status_mask; 
     9f2:	00030737          	lui	a4,0x30
     9f6:	0705                	addi	a4,a4,1
	uint32_t status = (uint32_t)I2C1->STAR1 | (uint32_t)(I2C1->STAR2 << 16);
     9f8:	4145d783          	lhu	a5,1044(a1) # 40005414 <_eusrstack+0x20004c14>
     9fc:	01079693          	slli	a3,a5,0x10
     a00:	4185d783          	lhu	a5,1048(a1)
     a04:	82c1                	srli	a3,a3,0x10
     a06:	07c2                	slli	a5,a5,0x10
     a08:	8fd5                	or	a5,a5,a3
	return (status & status_mask) == status_mask; 
     a0a:	8ff9                	and	a5,a5,a4
	while(!i2c_status(I2C_EVENT_MASTER_MODE_SELECT));
     a0c:	fee796e3          	bne	a5,a4,9f8 <i2c_ping+0x60>
	// Wait for the bus to become free
	i2c_err_t i2c_ret = i2c_wait();

	// Send the address and get the status
	i2c_start();
	if(i2c_ret == I2C_OK) i2c_ret = i2c_send_addr_write(&tmp_dev);
     a10:	e119                	bnez	a0,a16 <i2c_ping+0x7e>
     a12:	850a                	mv	a0,sp
     a14:	3f21                	jal	92c <i2c_send_addr_write>
	I2C1->CTLR1 |= I2C_CTLR1_STOP;
     a16:	40005737          	lui	a4,0x40005
     a1a:	40075783          	lhu	a5,1024(a4) # 40005400 <_eusrstack+0x20004c00>

	// Signal a STOP
	i2c_stop();

	return i2c_ret;
}
     a1e:	40d2                	lw	ra,20(sp)
	I2C1->CTLR1 |= I2C_CTLR1_STOP;
     a20:	07c2                	slli	a5,a5,0x10
     a22:	83c1                	srli	a5,a5,0x10
     a24:	2007e793          	ori	a5,a5,512
     a28:	40f71023          	sh	a5,1024(a4)
}
     a2c:	0161                	addi	sp,sp,24
     a2e:	8082                	ret

00000a30 <i2c_write_raw.constprop.0>:
	I2C_TIMEOUT_WAIT_FOR((I2C1->STAR2 & I2C_STAR2_BUSY), i2c_ret);
     a30:	6789                	lui	a5,0x2

	return i2c_ret;
}


i2c_err_t i2c_write_raw(const i2c_device_t *dev,    const uint8_t *buf,
     a32:	1121                	addi	sp,sp,-24
	I2C_TIMEOUT_WAIT_FOR((I2C1->STAR2 & I2C_STAR2_BUSY), i2c_ret);
     a34:	71078793          	addi	a5,a5,1808 # 2710 <font+0x24>
i2c_err_t i2c_write_raw(const i2c_device_t *dev,    const uint8_t *buf,
     a38:	c626                	sw	s1,12(sp)
     a3a:	c22e                	sw	a1,4(sp)
     a3c:	ca06                	sw	ra,20(sp)
     a3e:	c822                	sw	s0,16(sp)
     a40:	c02a                	sw	a0,0(sp)
	I2C_TIMEOUT_WAIT_FOR((I2C1->STAR2 & I2C_STAR2_BUSY), i2c_ret);
     a42:	caf1a223          	sw	a5,-860(gp) # 200000a0 <_i2c_timeout>
     a46:	4601                	li	a2,0
     a48:	ca418493          	addi	s1,gp,-860 # 200000a0 <_i2c_timeout>
     a4c:	400055b7          	lui	a1,0x40005
     a50:	4185d683          	lhu	a3,1048(a1) # 40005418 <_eusrstack+0x20004c18>
     a54:	8a89                	andi	a3,a3,2
     a56:	e6bd                	bnez	a3,ac4 <i2c_write_raw.constprop.0+0x94>
     a58:	c211                	beqz	a2,a5c <i2c_write_raw.constprop.0+0x2c>
     a5a:	c09c                	sw	a5,0(s1)
	I2C1->CTLR1 |= I2C_CTLR1_START;
     a5c:	400056b7          	lui	a3,0x40005
     a60:	4006d783          	lhu	a5,1024(a3) # 40005400 <_eusrstack+0x20004c00>
	uint32_t status = (uint32_t)I2C1->STAR1 | (uint32_t)(I2C1->STAR2 << 16);
     a64:	400055b7          	lui	a1,0x40005
	I2C1->CTLR1 |= I2C_CTLR1_START;
     a68:	07c2                	slli	a5,a5,0x10
     a6a:	83c1                	srli	a5,a5,0x10
     a6c:	1007e793          	ori	a5,a5,256
     a70:	40f69023          	sh	a5,1024(a3)
	return (status & status_mask) == status_mask; 
     a74:	000306b7          	lui	a3,0x30
     a78:	0685                	addi	a3,a3,1
	uint32_t status = (uint32_t)I2C1->STAR1 | (uint32_t)(I2C1->STAR2 << 16);
     a7a:	4145d783          	lhu	a5,1044(a1) # 40005414 <_eusrstack+0x20004c14>
     a7e:	01079613          	slli	a2,a5,0x10
     a82:	4185d783          	lhu	a5,1048(a1)
     a86:	8241                	srli	a2,a2,0x10
     a88:	07c2                	slli	a5,a5,0x10
     a8a:	8fd1                	or	a5,a5,a2
	return (status & status_mask) == status_mask; 
     a8c:	8ff5                	and	a5,a5,a3
	while(!i2c_status(I2C_EVENT_MASTER_MODE_SELECT));
     a8e:	fed796e3          	bne	a5,a3,a7a <i2c_write_raw.constprop.0+0x4a>
{
	// Wait for the I2C Bus the be Available
	i2c_err_t i2c_ret = i2c_wait();

	// Start the I2C Bus and send the Write Address byte
	if(i2c_ret == I2C_OK) { i2c_start(); i2c_ret = i2c_send_addr_write(dev); }
     a92:	c1018513          	addi	a0,gp,-1008 # 2000000c <dev_ssd1306>
     a96:	3d59                	jal	92c <i2c_send_addr_write>
     a98:	842a                	mv	s0,a0

	// Write the data
	if(i2c_ret == I2C_OK)
	{
		uint8_t cbyte = 0;
     a9a:	4601                	li	a2,0
	if(i2c_ret == I2C_OK)
     a9c:	e91d                	bnez	a0,ad2 <i2c_write_raw.constprop.0+0xa2>
		while(cbyte < len)
     a9e:	4792                	lw	a5,4(sp)
     aa0:	02f67963          	bgeu	a2,a5,ad2 <i2c_write_raw.constprop.0+0xa2>
		{
			// Write the byte and wait for it to finish transmitting
			I2C_TIMEOUT_WAIT_FOR(!(I2C1->STAR1 & I2C_STAR1_TXE), i2c_ret);
     aa4:	6689                	lui	a3,0x2
     aa6:	71068693          	addi	a3,a3,1808 # 2710 <font+0x24>
     aaa:	c094                	sw	a3,0(s1)
     aac:	4501                	li	a0,0
     aae:	40005337          	lui	t1,0x40005
     ab2:	41435583          	lhu	a1,1044(t1) # 40005414 <_eusrstack+0x20004c14>
     ab6:	0805f593          	andi	a1,a1,128
     aba:	c5b9                	beqz	a1,b08 <i2c_write_raw.constprop.0+0xd8>
     abc:	c111                	beqz	a0,ac0 <i2c_write_raw.constprop.0+0x90>
     abe:	c094                	sw	a3,0(s1)
     ac0:	4501                	li	a0,0
     ac2:	a8a9                	j	b1c <i2c_write_raw.constprop.0+0xec>
	I2C_TIMEOUT_WAIT_FOR((I2C1->STAR2 & I2C_STAR2_BUSY), i2c_ret);
     ac4:	17fd                	addi	a5,a5,-1
     ac6:	4605                	li	a2,1
     ac8:	f7c1                	bnez	a5,a50 <i2c_write_raw.constprop.0+0x20>
	i2c_err_t i2c_err = i2c_error();
     aca:	3bc1                	jal	89a <i2c_error>
     acc:	842a                	mv	s0,a0
	if(i2c_err == I2C_OK) i2c_err = I2C_ERR_BUSY;
     ace:	e111                	bnez	a0,ad2 <i2c_write_raw.constprop.0+0xa2>
     ad0:	4415                	li	s0,5
			if(i2c_ret != I2C_OK || (i2c_ret = i2c_error()) != I2C_OK) break;
		}
	}

	// Wait for the bus to finish transmitting
	I2C_TIMEOUT_WAIT_FOR(!i2c_status(I2C_EVENT_MASTER_BYTE_TRANSMITTED), i2c_ret);
     ad2:	6689                	lui	a3,0x2
     ad4:	71068693          	addi	a3,a3,1808 # 2710 <font+0x24>
	return (status & status_mask) == status_mask; 
     ad8:	000705b7          	lui	a1,0x70
	I2C_TIMEOUT_WAIT_FOR(!i2c_status(I2C_EVENT_MASTER_BYTE_TRANSMITTED), i2c_ret);
     adc:	c094                	sw	a3,0(s1)
     ade:	4301                	li	t1,0
	uint32_t status = (uint32_t)I2C1->STAR1 | (uint32_t)(I2C1->STAR2 << 16);
     ae0:	400052b7          	lui	t0,0x40005
	return (status & status_mask) == status_mask; 
     ae4:	08458593          	addi	a1,a1,132 # 70084 <lib_i2c.c.d894f163+0x65fb0>
	uint32_t status = (uint32_t)I2C1->STAR1 | (uint32_t)(I2C1->STAR2 << 16);
     ae8:	4142d603          	lhu	a2,1044(t0) # 40005414 <_eusrstack+0x20004c14>
     aec:	01061513          	slli	a0,a2,0x10
     af0:	4182d603          	lhu	a2,1048(t0)
     af4:	8141                	srli	a0,a0,0x10
     af6:	0642                	slli	a2,a2,0x10
     af8:	8e49                	or	a2,a2,a0
	return (status & status_mask) == status_mask; 
     afa:	8e6d                	and	a2,a2,a1
	I2C_TIMEOUT_WAIT_FOR(!i2c_status(I2C_EVENT_MASTER_BYTE_TRANSMITTED), i2c_ret);
     afc:	04b61363          	bne	a2,a1,b42 <i2c_write_raw.constprop.0+0x112>
     b00:	04030a63          	beqz	t1,b54 <i2c_write_raw.constprop.0+0x124>
     b04:	c094                	sw	a3,0(s1)
     b06:	a0b9                	j	b54 <i2c_write_raw.constprop.0+0x124>
			I2C_TIMEOUT_WAIT_FOR(!(I2C1->STAR1 & I2C_STAR1_TXE), i2c_ret);
     b08:	16fd                	addi	a3,a3,-1
     b0a:	4505                	li	a0,1
     b0c:	f2dd                	bnez	a3,ab2 <i2c_write_raw.constprop.0+0x82>
     b0e:	c432                	sw	a2,8(sp)
     b10:	0004a023          	sw	zero,0(s1)
	i2c_err_t i2c_err = i2c_error();
     b14:	3359                	jal	89a <i2c_error>
	if(i2c_err == I2C_OK) i2c_err = I2C_ERR_BUSY;
     b16:	4622                	lw	a2,8(sp)
     b18:	e111                	bnez	a0,b1c <i2c_write_raw.constprop.0+0xec>
     b1a:	4515                	li	a0,5
			I2C1->DATAR = buf[cbyte];
     b1c:	4782                	lw	a5,0(sp)
     b1e:	00c786b3          	add	a3,a5,a2
     b22:	0006c583          	lbu	a1,0(a3)
			++cbyte;
     b26:	0605                	addi	a2,a2,1
			I2C1->DATAR = buf[cbyte];
     b28:	400056b7          	lui	a3,0x40005
     b2c:	40b69823          	sh	a1,1040(a3) # 40005410 <_eusrstack+0x20004c10>
			++cbyte;
     b30:	0ff67613          	andi	a2,a2,255
     b34:	c432                	sw	a2,8(sp)
			if(i2c_ret != I2C_OK || (i2c_ret = i2c_error()) != I2C_OK) break;
     b36:	e501                	bnez	a0,b3e <i2c_write_raw.constprop.0+0x10e>
     b38:	338d                	jal	89a <i2c_error>
     b3a:	4622                	lw	a2,8(sp)
     b3c:	d12d                	beqz	a0,a9e <i2c_write_raw.constprop.0+0x6e>
     b3e:	842a                	mv	s0,a0
     b40:	bf49                	j	ad2 <i2c_write_raw.constprop.0+0xa2>
	I2C_TIMEOUT_WAIT_FOR(!i2c_status(I2C_EVENT_MASTER_BYTE_TRANSMITTED), i2c_ret);
     b42:	16fd                	addi	a3,a3,-1
     b44:	4305                	li	t1,1
     b46:	f2cd                	bnez	a3,ae8 <i2c_write_raw.constprop.0+0xb8>
     b48:	0004a023          	sw	zero,0(s1)
	i2c_err_t i2c_err = i2c_error();
     b4c:	33b9                	jal	89a <i2c_error>
     b4e:	842a                	mv	s0,a0
	if(i2c_err == I2C_OK) i2c_err = I2C_ERR_BUSY;
     b50:	e111                	bnez	a0,b54 <i2c_write_raw.constprop.0+0x124>
     b52:	4415                	li	s0,5
	I2C1->CTLR1 |= I2C_CTLR1_STOP;
     b54:	400056b7          	lui	a3,0x40005
     b58:	4006d703          	lhu	a4,1024(a3) # 40005400 <_eusrstack+0x20004c00>

	return i2c_ret;



}
     b5c:	40d2                	lw	ra,20(sp)
     b5e:	8522                	mv	a0,s0
	I2C1->CTLR1 |= I2C_CTLR1_STOP;
     b60:	0742                	slli	a4,a4,0x10
}
     b62:	4442                	lw	s0,16(sp)
	I2C1->CTLR1 |= I2C_CTLR1_STOP;
     b64:	8341                	srli	a4,a4,0x10
     b66:	20076713          	ori	a4,a4,512
     b6a:	40e69023          	sh	a4,1024(a3)
}
     b6e:	44b2                	lw	s1,12(sp)
     b70:	0161                	addi	sp,sp,24
     b72:	8082                	ret

00000b74 <ssd1306_cmd>:
	.addr = 0x3C,				// Default address for SSD1306
	.regb = 1,
};

/* send OLED command byte */
uint8_t ssd1306_cmd(uint8_t cmd) {
     b74:	1141                	addi	sp,sp,-16
	uint8_t pkt[2];
	pkt[0] = 0;
	pkt[1] = cmd;
     b76:	00a100a3          	sb	a0,1(sp)
	return i2c_write_raw(&dev_ssd1306, pkt, 2);
     b7a:	4589                	li	a1,2
     b7c:	850a                	mv	a0,sp
uint8_t ssd1306_cmd(uint8_t cmd) {
     b7e:	c606                	sw	ra,12(sp)
	pkt[0] = 0;
     b80:	00010023          	sb	zero,0(sp)
	return i2c_write_raw(&dev_ssd1306, pkt, 2);
     b84:	3575                	jal	a30 <i2c_write_raw.constprop.0>
}
     b86:	40b2                	lw	ra,12(sp)
     b88:	0ff57513          	andi	a0,a0,255
     b8c:	0141                	addi	sp,sp,16
     b8e:	8082                	ret

00000b90 <internal_handle_input.constprop.0>:
	uint32_t dmd0 = *dmdata0;
     b90:	e00007b7          	lui	a5,0xe0000
     b94:	0f47a783          	lw	a5,244(a5) # e00000f4 <_eusrstack+0xbffff8f4>
}
     b98:	8082                	ret

00000b9a <_write.constprop.0>:
	if( ( *DMDATA0 & 0xc0 ) == 0xc0 ) return 0;
     b9a:	e0000737          	lui	a4,0xe0000
     b9e:	0f472783          	lw	a5,244(a4) # e00000f4 <_eusrstack+0xbffff8f4>
WEAK int _write(int fd, const char *buf, int size)
     ba2:	1111                	addi	sp,sp,-28
     ba4:	cc06                	sw	ra,24(sp)
     ba6:	ca22                	sw	s0,20(sp)
     ba8:	c826                	sw	s1,16(sp)
     baa:	c02a                	sw	a0,0(sp)
	if( ( *DMDATA0 & 0xc0 ) == 0xc0 ) return 0;
     bac:	0c07f793          	andi	a5,a5,192
     bb0:	0c000693          	li	a3,192
     bb4:	0cd78863          	beq	a5,a3,c84 <_write.constprop.0+0xea>
	char buffer[4] = { 0 };
     bb8:	c602                	sw	zero,12(sp)
     bba:	842e                	mv	s0,a1
	if( size == 0 )
     bbc:	e5f1                	bnez	a1,c88 <_write.constprop.0+0xee>
		lastdmd = (*DMDATA0);
     bbe:	0f472783          	lw	a5,244(a4)
		if( lastdmd && !(lastdmd&0x80) ) internal_handle_input( (uint32_t*)DMDATA0 );
     bc2:	c789                	beqz	a5,bcc <_write.constprop.0+0x32>
     bc4:	0807f793          	andi	a5,a5,128
     bc8:	e391                	bnez	a5,bcc <_write.constprop.0+0x32>
     bca:	37d9                	jal	b90 <internal_handle_input.constprop.0>
}
     bcc:	40e2                	lw	ra,24(sp)
     bce:	8522                	mv	a0,s0
     bd0:	4452                	lw	s0,20(sp)
     bd2:	44c2                	lw	s1,16(sp)
     bd4:	0171                	addi	sp,sp,28
     bd6:	8082                	ret
		int tosend = size - place;
     bd8:	409405b3          	sub	a1,s0,s1
     bdc:	469d                	li	a3,7
     bde:	872e                	mv	a4,a1
     be0:	00b6d363          	bge	a3,a1,be6 <_write.constprop.0+0x4c>
     be4:	471d                	li	a4,7
     be6:	001006b7          	lui	a3,0x100
     bea:	0685                	addi	a3,a3,1
		while( ( lastdmd = (*DMDATA0) ) & 0x80 )
     bec:	e0000537          	lui	a0,0xe0000
     bf0:	0f452603          	lw	a2,244(a0) # e00000f4 <_eusrstack+0xbffff8f4>
     bf4:	0f450313          	addi	t1,a0,244
     bf8:	08067293          	andi	t0,a2,128
     bfc:	06029c63          	bnez	t0,c74 <_write.constprop.0+0xda>
		if( lastdmd ) internal_handle_input( (uint32_t*)DMDATA0 );
     c00:	c611                	beqz	a2,c0c <_write.constprop.0+0x72>
     c02:	c43a                	sw	a4,8(sp)
     c04:	c22e                	sw	a1,4(sp)
     c06:	3769                	jal	b90 <internal_handle_input.constprop.0>
     c08:	4722                	lw	a4,8(sp)
     c0a:	4592                	lw	a1,4(sp)
			buffer[t-3] = buf[t+place];
     c0c:	4689                	li	a3,2
     c0e:	4601                	li	a2,0
     c10:	00b6d463          	bge	a3,a1,c18 <_write.constprop.0+0x7e>
     c14:	ffd70613          	addi	a2,a4,-3
     c18:	4782                	lw	a5,0(sp)
     c1a:	00348593          	addi	a1,s1,3
     c1e:	0068                	addi	a0,sp,12
     c20:	95be                	add	a1,a1,a5
     c22:	c23a                	sw	a4,4(sp)
     c24:	26f9                	jal	ff2 <memcpy>
		*DMDATA1 = *(uint32_t*)&(buffer[0]);
     c26:	4632                	lw	a2,12(sp)
     c28:	4782                	lw	a5,0(sp)
		while( t < tosend && t < 3 )
     c2a:	4712                	lw	a4,4(sp)
		*DMDATA1 = *(uint32_t*)&(buffer[0]);
     c2c:	e00006b7          	lui	a3,0xe0000
     c30:	0ec6ac23          	sw	a2,248(a3) # e00000f8 <_eusrstack+0xbffff8f8>
		while( t < tosend && t < 3 )
     c34:	458d                	li	a1,3
     c36:	00978633          	add	a2,a5,s1
		t = 0;
     c3a:	4681                	li	a3,0
			buffer[t+1] = buf[t+place];
     c3c:	00064303          	lbu	t1,0(a2)
     c40:	0685                	addi	a3,a3,1
     c42:	007c                	addi	a5,sp,12
     c44:	00d78533          	add	a0,a5,a3
     c48:	00650023          	sb	t1,0(a0)
		while( t < tosend && t < 3 )
     c4c:	00d70563          	beq	a4,a3,c56 <_write.constprop.0+0xbc>
     c50:	0605                	addi	a2,a2,1
     c52:	feb695e3          	bne	a3,a1,c3c <_write.constprop.0+0xa2>
		buffer[0] = 0x80 | (tosend + 4);
     c56:	00470693          	addi	a3,a4,4
     c5a:	f806e693          	ori	a3,a3,-128
     c5e:	00d10623          	sb	a3,12(sp)
		*DMDATA0 = *(uint32_t*)&(buffer[0]);
     c62:	4632                	lw	a2,12(sp)
     c64:	e00006b7          	lui	a3,0xe0000
		place += tosend;
     c68:	94ba                	add	s1,s1,a4
		*DMDATA0 = *(uint32_t*)&(buffer[0]);
     c6a:	0ec6aa23          	sw	a2,244(a3) # e00000f4 <_eusrstack+0xbffff8f4>
	while( place < size )
     c6e:	f684c5e3          	blt	s1,s0,bd8 <_write.constprop.0+0x3e>
     c72:	bfa9                	j	bcc <_write.constprop.0+0x32>
			if( timeout-- == 0 )
     c74:	16fd                	addi	a3,a3,-1
     c76:	fead                	bnez	a3,bf0 <_write.constprop.0+0x56>
				*DMDATA0 |= 0xc0;
     c78:	00032783          	lw	a5,0(t1)
     c7c:	0c07e793          	ori	a5,a5,192
     c80:	00f32023          	sw	a5,0(t1)
	if( ( *DMDATA0 & 0xc0 ) == 0xc0 ) return 0;
     c84:	4401                	li	s0,0
     c86:	b799                	j	bcc <_write.constprop.0+0x32>
	if( size == 0 )
     c88:	4481                	li	s1,0
     c8a:	b7d5                	j	c6e <_write.constprop.0+0xd4>

00000c8c <__puts_uart>:
{
     c8c:	1151                	addi	sp,sp,-12
     c8e:	c222                	sw	s0,4(sp)
     c90:	c406                	sw	ra,8(sp)
     c92:	842e                	mv	s0,a1
	_write( 0, s, len );
     c94:	3719                	jal	b9a <_write.constprop.0>
}
     c96:	40a2                	lw	ra,8(sp)
     c98:	8522                	mv	a0,s0
     c9a:	4412                	lw	s0,4(sp)
     c9c:	0131                	addi	sp,sp,12
     c9e:	8082                	ret

00000ca0 <handle_reset>:
	asm volatile( "\n\
     ca0:	1ffff197          	auipc	gp,0x1ffff
     ca4:	75c18193          	addi	gp,gp,1884 # 200003fc <__global_pointer$>
     ca8:	40418113          	addi	sp,gp,1028 # 20000800 <_eusrstack>
     cac:	6509                	lui	a0,0x2
     cae:	88050513          	addi	a0,a0,-1920 # 1880 <main+0x6e2>
     cb2:	30051073          	csrw	mstatus,a0
     cb6:	468d                	li	a3,3
     cb8:	fffff517          	auipc	a0,0xfffff
     cbc:	34850513          	addi	a0,a0,840 # 0 <InterruptVector>
     cc0:	8d55                	or	a0,a0,a3
     cc2:	30551073          	csrw	mtvec,a0
asm volatile(
     cc6:	c9018513          	addi	a0,gp,-880 # 2000008c <DC_PIN2>
     cca:	3e418593          	addi	a1,gp,996 # 200007e0 <_ebss>
     cce:	4601                	li	a2,0
     cd0:	00b55663          	bge	a0,a1,cdc <handle_reset+0x3c>
     cd4:	c110                	sw	a2,0(a0)
     cd6:	0511                	addi	a0,a0,4
     cd8:	feb54ee3          	blt	a0,a1,cd4 <handle_reset+0x34>
     cdc:	00002517          	auipc	a0,0x2
     ce0:	f2c50513          	addi	a0,a0,-212 # 2c08 <_data_lma>
     ce4:	c0418593          	addi	a1,gp,-1020 # 20000000 <dev_aht21>
     ce8:	1ffff617          	auipc	a2,0x1ffff
     cec:	3a460613          	addi	a2,a2,932 # 2000008c <DC_PIN2>
     cf0:	00c58863          	beq	a1,a2,d00 <handle_reset+0x60>
     cf4:	4114                	lw	a3,0(a0)
     cf6:	c194                	sw	a3,0(a1)
     cf8:	0511                	addi	a0,a0,4
     cfa:	0591                	addi	a1,a1,4
     cfc:	fec59ae3          	bne	a1,a2,cf0 <handle_reset+0x50>
	SysTick->CTLR = 5;
     d00:	e000f7b7          	lui	a5,0xe000f
     d04:	4715                	li	a4,5
     d06:	c398                	sw	a4,0(a5)
asm volatile(
     d08:	6785                	lui	a5,0x1
     d0a:	19e78793          	addi	a5,a5,414 # 119e <main>
     d0e:	34179073          	csrw	mepc,a5
     d12:	30200073          	mret

00000d16 <ADC1_2_IRQHandler>:

// Return the Machine Exception Program Register (MEPC)
static inline uint32_t __get_MEPC(void)
{
	uint32_t result;
	__ASM volatile( ADD_ARCH_ZICSR "csrr %0," "mepc" : "=r"(result));
     d16:	34102573          	csrr	a0,mepc
	PrintHex( __get_MEPC() ); // "addr2line -e debugprintfdemo.elf 0x000007e6" ---> debugprintfdemo.c:45
     d1a:	ce2ff0ef          	jal	ra,1fc <PrintHex>
	__ASM volatile( ADD_ARCH_ZICSR "csrr %0, mstatus": "=r"(result) );
     d1e:	30002573          	csrr	a0,mstatus
	PrintHex( __get_MSTATUS() );
     d22:	cdaff0ef          	jal	ra,1fc <PrintHex>

// Return the Machine Trap Value Register (MTVAL)
static inline uint32_t __get_MTVAL(void)
{
	uint32_t result;
	__ASM volatile( ADD_ARCH_ZICSR "csrr %0," "mtval" : "=r" (result) );
     d26:	34302573          	csrr	a0,mtval
	PrintHex( __get_MTVAL() );
     d2a:	cd2ff0ef          	jal	ra,1fc <PrintHex>
	__ASM volatile( ADD_ARCH_ZICSR "csrr %0," "mcause": "=r"(result));
     d2e:	34202573          	csrr	a0,mcause
	PrintHex( __get_MCAUSE() );
     d32:	ccaff0ef          	jal	ra,1fc <PrintHex>
	while( (*DMDATA0) & 0x80 );
     d36:	e0000737          	lui	a4,0xe0000
     d3a:	0f472783          	lw	a5,244(a4) # e00000f4 <_eusrstack+0xbffff8f4>
     d3e:	0f470693          	addi	a3,a4,244
     d42:	0807f793          	andi	a5,a5,128
     d46:	fbf5                	bnez	a5,d3a <ADC1_2_IRQHandler+0x24>
	*DMDATA0 = 0x0a85;
     d48:	6785                	lui	a5,0x1
     d4a:	a8578793          	addi	a5,a5,-1403 # a85 <i2c_write_raw.constprop.0+0x55>
     d4e:	c29c                	sw	a5,0(a3)
	while( (*DMDATA0) & 0x80 );
     d50:	e0000737          	lui	a4,0xe0000
     d54:	0f472783          	lw	a5,244(a4) # e00000f4 <_eusrstack+0xbffff8f4>
     d58:	0f470693          	addi	a3,a4,244
     d5c:	0807f793          	andi	a5,a5,128
     d60:	fbf5                	bnez	a5,d54 <ADC1_2_IRQHandler+0x3e>
	*DMDATA0 = 0xaaaaaa83;
     d62:	aaaab7b7          	lui	a5,0xaaaab
     d66:	a8378793          	addi	a5,a5,-1405 # aaaaaa83 <_eusrstack+0x8aaaa283>
     d6a:	c29c                	sw	a5,0(a3)
	asm volatile( "1: j 1b" );
     d6c:	a001                	j	d6c <ADC1_2_IRQHandler+0x56>

00000d6e <NMI_Handler>:
	RCC->INTR |= RCC_CSSC;	// clear the clock security int flag
     d6e:	40021737          	lui	a4,0x40021
     d72:	471c                	lw	a5,8(a4)
     d74:	008006b7          	lui	a3,0x800
     d78:	8fd5                	or	a5,a5,a3
     d7a:	c71c                	sw	a5,8(a4)

00000d7c <strlen>:
{
     d7c:	87aa                	mv	a5,a0
	for (; *s; s++);
     d7e:	0007c703          	lbu	a4,0(a5)
     d82:	e701                	bnez	a4,d8a <strlen+0xe>
}
     d84:	40a78533          	sub	a0,a5,a0
     d88:	8082                	ret
	for (; *s; s++);
     d8a:	0785                	addi	a5,a5,1
     d8c:	bfcd                	j	d7e <strlen+0x2>

00000d8e <mini_vpprintf>:
{
     d8e:	fa410113          	addi	sp,sp,-92
     d92:	c8a6                	sw	s1,80(sp)
     d94:	cc86                	sw	ra,88(sp)
     d96:	caa2                	sw	s0,84(sp)
     d98:	c02a                	sw	a0,0(sp)
     d9a:	c22e                	sw	a1,4(sp)
     d9c:	84b2                	mv	s1,a2
     d9e:	87b6                	mv	a5,a3
	int n = 0;
     da0:	c802                	sw	zero,16(sp)
	while ((ch=*(fmt++))) {
     da2:	0004c703          	lbu	a4,0(s1)
     da6:	00148413          	addi	s0,s1,1
     daa:	00e10fa3          	sb	a4,31(sp)
     dae:	eb01                	bnez	a4,dbe <mini_vpprintf+0x30>
}
     db0:	40e6                	lw	ra,88(sp)
     db2:	4456                	lw	s0,84(sp)
     db4:	4542                	lw	a0,16(sp)
     db6:	44c6                	lw	s1,80(sp)
     db8:	05c10113          	addi	sp,sp,92
     dbc:	8082                	ret
		if (ch!='%') {
     dbe:	02500693          	li	a3,37
     dc2:	00d70f63          	beq	a4,a3,de0 <mini_vpprintf+0x52>
     dc6:	c43e                	sw	a5,8(sp)
			len = puts(&ch, len, buf);
     dc8:	4612                	lw	a2,4(sp)
     dca:	4782                	lw	a5,0(sp)
     dcc:	4585                	li	a1,1
     dce:	01f10513          	addi	a0,sp,31
     dd2:	9782                	jalr	a5
	while ((ch=*(fmt++))) {
     dd4:	84a2                	mv	s1,s0
		n = n + len;
     dd6:	47c2                	lw	a5,16(sp)
     dd8:	97aa                	add	a5,a5,a0
     dda:	c83e                	sw	a5,16(sp)
     ddc:	47a2                	lw	a5,8(sp)
     dde:	b7d1                	j	da2 <mini_vpprintf+0x14>
			ch=*(fmt++);
     de0:	0014c683          	lbu	a3,1(s1)
			if (ch == '0') pad_char = '0';
     de4:	03000613          	li	a2,48
			ch=*(fmt++);
     de8:	00248713          	addi	a4,s1,2
     dec:	00d10fa3          	sb	a3,31(sp)
			if (ch == '0') pad_char = '0';
     df0:	03000413          	li	s0,48
     df4:	08c69063          	bne	a3,a2,e74 <mini_vpprintf+0xe6>
				ch=*(fmt++);
     df8:	84ba                	mv	s1,a4
     dfa:	4601                	li	a2,0
     dfc:	4701                	li	a4,0
			while (ch >= '0' && ch <= '9') {
     dfe:	4525                	li	a0,9
     e00:	a811                	j	e14 <mini_vpprintf+0x86>
				pad_to = pad_to * 10 + (ch - '0');
     e02:	00271693          	slli	a3,a4,0x2
				ch=*(fmt++);
     e06:	0485                	addi	s1,s1,1
				pad_to = pad_to * 10 + (ch - '0');
     e08:	9736                	add	a4,a4,a3
				ch=*(fmt++);
     e0a:	fff4c683          	lbu	a3,-1(s1)
				pad_to = pad_to * 10 + (ch - '0');
     e0e:	0706                	slli	a4,a4,0x1
     e10:	972e                	add	a4,a4,a1
				ch=*(fmt++);
     e12:	4605                	li	a2,1
			while (ch >= '0' && ch <= '9') {
     e14:	fd068593          	addi	a1,a3,-48 # 7fffd0 <lib_i2c.c.d894f163+0x7f5efc>
     e18:	0ff5f313          	andi	t1,a1,255
     e1c:	fe6573e3          	bgeu	a0,t1,e02 <mini_vpprintf+0x74>
     e20:	c219                	beqz	a2,e26 <mini_vpprintf+0x98>
     e22:	00d10fa3          	sb	a3,31(sp)
			if(pad_to > (signed int) sizeof(bf)) {
     e26:	c63a                	sw	a4,12(sp)
     e28:	4661                	li	a2,24
     e2a:	00e65363          	bge	a2,a4,e30 <mini_vpprintf+0xa2>
     e2e:	c632                	sw	a2,12(sp)
			if (ch == 'l') {
     e30:	06c00593          	li	a1,108
			char l = 0;
     e34:	4601                	li	a2,0
			if (ch == 'l') {
     e36:	00b69863          	bne	a3,a1,e46 <mini_vpprintf+0xb8>
				ch=*(fmt++);
     e3a:	0004c683          	lbu	a3,0(s1)
				l = 1;
     e3e:	4605                	li	a2,1
				ch=*(fmt++);
     e40:	0485                	addi	s1,s1,1
     e42:	00d10fa3          	sb	a3,31(sp)
			switch (ch) {
     e46:	01f14683          	lbu	a3,31(sp)
     e4a:	06400593          	li	a1,100
     e4e:	06b68363          	beq	a3,a1,eb4 <mini_vpprintf+0x126>
     e52:	02d5e463          	bltu	a1,a3,e7a <mini_vpprintf+0xec>
     e56:	05800713          	li	a4,88
     e5a:	0ae68263          	beq	a3,a4,efe <mini_vpprintf+0x170>
     e5e:	06300713          	li	a4,99
     e62:	0ce68063          	beq	a3,a4,f22 <mini_vpprintf+0x194>
     e66:	d6a9                	beqz	a3,db0 <mini_vpprintf+0x22>
					len = puts(&ch, len, buf);
     e68:	4612                	lw	a2,4(sp)
     e6a:	c43e                	sw	a5,8(sp)
     e6c:	4585                	li	a1,1
     e6e:	01f10513          	addi	a0,sp,31
     e72:	a88d                	j	ee4 <mini_vpprintf+0x156>
			char pad_char = ' ';
     e74:	02000413          	li	s0,32
     e78:	b741                	j	df8 <mini_vpprintf+0x6a>
			switch (ch) {
     e7a:	07500593          	li	a1,117
     e7e:	02b68b63          	beq	a3,a1,eb4 <mini_vpprintf+0x126>
     e82:	07800613          	li	a2,120
     e86:	06c68c63          	beq	a3,a2,efe <mini_vpprintf+0x170>
     e8a:	07300613          	li	a2,115
     e8e:	fcc69de3          	bne	a3,a2,e68 <mini_vpprintf+0xda>
     e92:	cc3a                	sw	a4,24(sp)
					ptr = va_arg(va, char*);
     e94:	00478713          	addi	a4,a5,4
     e98:	439c                	lw	a5,0(a5)
     e9a:	c43a                	sw	a4,8(sp)
					len = mini_strlen(ptr);
     e9c:	853e                	mv	a0,a5
     e9e:	ca3e                	sw	a5,20(sp)
     ea0:	3df1                	jal	d7c <strlen>
					if (pad_to > 0) {
     ea2:	4762                	lw	a4,24(sp)
     ea4:	47d2                	lw	a5,20(sp)
					len = mini_strlen(ptr);
     ea6:	85aa                	mv	a1,a0
					if (pad_to > 0) {
     ea8:	cb51                	beqz	a4,f3c <mini_vpprintf+0x1ae>
						len = mini_pad(ptr, len, pad_char, pad_to, bf);
     eaa:	46b2                	lw	a3,12(sp)
     eac:	1838                	addi	a4,sp,56
     eae:	8622                	mv	a2,s0
     eb0:	853e                	mv	a0,a5
     eb2:	a025                	j	eda <mini_vpprintf+0x14c>
						len = mini_itoa(va_arg(va, unsigned long), 10, 0, (ch=='u'), bf2);
     eb4:	00478713          	addi	a4,a5,4
     eb8:	c43a                	sw	a4,8(sp)
					if(l) {
     eba:	ca05                	beqz	a2,eea <mini_vpprintf+0x15c>
						len = mini_itoa(va_arg(va, unsigned long), 10, 0, (ch=='u'), bf2);
     ebc:	f8b68693          	addi	a3,a3,-117
     ec0:	1018                	addi	a4,sp,32
     ec2:	0016b693          	seqz	a3,a3
     ec6:	4388                	lw	a0,0(a5)
     ec8:	4601                	li	a2,0
     eca:	45a9                	li	a1,10
     ecc:	b9eff0ef          	jal	ra,26a <mini_itoa.part.0>
					len = mini_pad(bf2, len, pad_char, pad_to, bf);
     ed0:	46b2                	lw	a3,12(sp)
     ed2:	1838                	addi	a4,sp,56
     ed4:	8622                	mv	a2,s0
     ed6:	85aa                	mv	a1,a0
					len = mini_pad(bf2, len, pad_char, pad_to, bf);
     ed8:	1008                	addi	a0,sp,32
     eda:	a44ff0ef          	jal	ra,11e <mini_pad>
					len = puts(bf, len, buf);
     ede:	4612                	lw	a2,4(sp)
					len = mini_pad(bf2, len, pad_char, pad_to, bf);
     ee0:	85aa                	mv	a1,a0
					len = puts(bf, len, buf);
     ee2:	1828                	addi	a0,sp,56
					len = puts(&ch, len, buf);
     ee4:	4782                	lw	a5,0(sp)
     ee6:	9782                	jalr	a5
					break;
     ee8:	b5fd                	j	dd6 <mini_vpprintf+0x48>
						if(ch == 'u') {
     eea:	07500713          	li	a4,117
     eee:	00e69563          	bne	a3,a4,ef8 <mini_vpprintf+0x16a>
	if (radix > 16)
     ef2:	1018                	addi	a4,sp,32
     ef4:	4685                	li	a3,1
     ef6:	bfc1                	j	ec6 <mini_vpprintf+0x138>
     ef8:	1018                	addi	a4,sp,32
     efa:	4681                	li	a3,0
     efc:	b7e9                	j	ec6 <mini_vpprintf+0x138>
					if(l) {
     efe:	4388                	lw	a0,0(a5)
						len = mini_itoa(va_arg(va, unsigned long), 10, 0, (ch=='u'), bf2);
     f00:	00478713          	addi	a4,a5,4
						len = mini_itoa(va_arg(va, unsigned long), 16, (ch=='X'), 1, bf2);
     f04:	fa868613          	addi	a2,a3,-88
						len = mini_itoa(va_arg(va, unsigned long), 10, 0, (ch=='u'), bf2);
     f08:	c43a                	sw	a4,8(sp)
	if (radix > 16)
     f0a:	4685                	li	a3,1
     f0c:	1018                	addi	a4,sp,32
     f0e:	00163613          	seqz	a2,a2
     f12:	45c1                	li	a1,16
     f14:	b56ff0ef          	jal	ra,26a <mini_itoa.part.0>
					len = mini_pad(bf2, len, pad_char, pad_to, bf);
     f18:	46b2                	lw	a3,12(sp)
     f1a:	85aa                	mv	a1,a0
     f1c:	1838                	addi	a4,sp,56
     f1e:	8622                	mv	a2,s0
     f20:	bf65                	j	ed8 <mini_vpprintf+0x14a>
					ch = (char)(va_arg(va, int));
     f22:	00478713          	addi	a4,a5,4
     f26:	439c                	lw	a5,0(a5)
     f28:	c43a                	sw	a4,8(sp)
					len = mini_pad(&ch, 1, pad_char, pad_to, bf);
     f2a:	46b2                	lw	a3,12(sp)
					ch = (char)(va_arg(va, int));
     f2c:	00f10fa3          	sb	a5,31(sp)
					len = mini_pad(&ch, 1, pad_char, pad_to, bf);
     f30:	1838                	addi	a4,sp,56
     f32:	8622                	mv	a2,s0
     f34:	4585                	li	a1,1
     f36:	01f10513          	addi	a0,sp,31
     f3a:	b745                	j	eda <mini_vpprintf+0x14c>
						len = puts(ptr, len, buf);
     f3c:	4612                	lw	a2,4(sp)
     f3e:	853e                	mv	a0,a5
     f40:	b755                	j	ee4 <mini_vpprintf+0x156>

00000f42 <printf>:
{
     f42:	fdc10113          	addi	sp,sp,-36
     f46:	ca32                	sw	a2,20(sp)
	int ret_status = mini_vpprintf(__puts_uart, 0, format, args);
     f48:	862a                	mv	a2,a0
     f4a:	6505                	lui	a0,0x1
{
     f4c:	c82e                	sw	a1,16(sp)
     f4e:	cc36                	sw	a3,24(sp)
	int ret_status = mini_vpprintf(__puts_uart, 0, format, args);
     f50:	4581                	li	a1,0
	va_start( args, format );
     f52:	0814                	addi	a3,sp,16
	int ret_status = mini_vpprintf(__puts_uart, 0, format, args);
     f54:	c8c50513          	addi	a0,a0,-884 # c8c <__puts_uart>
{
     f58:	c606                	sw	ra,12(sp)
     f5a:	ce3a                	sw	a4,28(sp)
     f5c:	d03e                	sw	a5,32(sp)
	va_start( args, format );
     f5e:	c036                	sw	a3,0(sp)
	int ret_status = mini_vpprintf(__puts_uart, 0, format, args);
     f60:	353d                	jal	d8e <mini_vpprintf>
}
     f62:	40b2                	lw	ra,12(sp)
     f64:	02410113          	addi	sp,sp,36
     f68:	8082                	ret

00000f6a <onI2C_SlaveWrite>:
#include "../Mess-libs/modules/systick_irq.h"
#include "../Mess-libs/modules/fun_button.h"
#include "../Mess-libs/i2c/i2c_slave.h"

void onI2C_SlaveWrite(uint8_t reg, uint8_t length) {
	printf("IM WRITEEN TO\n\r");
     f6a:	6509                	lui	a0,0x2
     f6c:	3a050513          	addi	a0,a0,928 # 23a0 <I2C1_ER_IRQHandler+0x7e>
     f70:	bfc9                	j	f42 <printf>

00000f72 <onI2C_SlaveRead>:
}

void onI2C_SlaveRead(uint8_t reg) {
	printf("IM READEN FROM.\n\r");
     f72:	6509                	lui	a0,0x2
     f74:	3b050513          	addi	a0,a0,944 # 23b0 <I2C1_ER_IRQHandler+0x8e>
     f78:	b7e9                	j	f42 <printf>

00000f7a <mini_vsnprintf>:
{
     f7a:	1121                	addi	sp,sp,-24
     f7c:	ca06                	sw	ra,20(sp)
     f7e:	c822                	sw	s0,16(sp)
	b.buffer = buffer;
     f80:	c02a                	sw	a0,0(sp)
	b.pbuffer = buffer;
     f82:	c22a                	sw	a0,4(sp)
	b.buffer_len = buffer_len;
     f84:	c42e                	sw	a1,8(sp)
	if(buffer_len == 0) buffer = (void*) 0;
     f86:	c185                	beqz	a1,fa6 <mini_vsnprintf+0x2c>
     f88:	842a                	mv	s0,a0
	int n = mini_vpprintf(_puts, (buffer != (void*)0)?&b:(void*)0, fmt, va);
     f8a:	858a                	mv	a1,sp
     f8c:	e111                	bnez	a0,f90 <mini_vsnprintf+0x16>
     f8e:	4581                	li	a1,0
     f90:	1ba00513          	li	a0,442
     f94:	3bed                	jal	d8e <mini_vpprintf>
	if(buffer == (void*) 0) {
     f96:	c401                	beqz	s0,f9e <mini_vsnprintf+0x24>
	return b.pbuffer - b.buffer;
     f98:	4512                	lw	a0,4(sp)
     f9a:	4782                	lw	a5,0(sp)
     f9c:	8d1d                	sub	a0,a0,a5
}
     f9e:	40d2                	lw	ra,20(sp)
     fa0:	4442                	lw	s0,16(sp)
     fa2:	0161                	addi	sp,sp,24
     fa4:	8082                	ret
	if(buffer_len == 0) buffer = (void*) 0;
     fa6:	4401                	li	s0,0
     fa8:	b7dd                	j	f8e <mini_vsnprintf+0x14>

00000faa <sprintf>:
{
     faa:	1101                	addi	sp,sp,-32
     fac:	c832                	sw	a2,16(sp)
	int ret = mini_vsnprintf( buffer, INT_MAX, format, args );
     fae:	862e                	mv	a2,a1
     fb0:	800005b7          	lui	a1,0x80000
{
     fb4:	ca36                	sw	a3,20(sp)
	int ret = mini_vsnprintf( buffer, INT_MAX, format, args );
     fb6:	fff5c593          	not	a1,a1
	va_start( args, format );
     fba:	0814                	addi	a3,sp,16
{
     fbc:	c606                	sw	ra,12(sp)
     fbe:	cc3a                	sw	a4,24(sp)
     fc0:	ce3e                	sw	a5,28(sp)
	va_start( args, format );
     fc2:	c036                	sw	a3,0(sp)
	int ret = mini_vsnprintf( buffer, INT_MAX, format, args );
     fc4:	3f5d                	jal	f7a <mini_vsnprintf>
}
     fc6:	40b2                	lw	ra,12(sp)
     fc8:	6105                	addi	sp,sp,32
     fca:	8082                	ret

00000fcc <memset>:
WEAK void *memset(void *dest, int c, size_t n) { unsigned char *s = dest; for (; n; n--, s++) *s = c; return dest; }
     fcc:	962a                	add	a2,a2,a0
     fce:	87aa                	mv	a5,a0
     fd0:	00c79363          	bne	a5,a2,fd6 <memset+0xa>
     fd4:	8082                	ret
     fd6:	00b78023          	sb	a1,0(a5)
     fda:	0785                	addi	a5,a5,1
     fdc:	bfd5                	j	fd0 <memset+0x4>

00000fde <strcpy>:
{
     fde:	87aa                	mv	a5,a0
	for (; (*d=*s); s++, d++);
     fe0:	0005c703          	lbu	a4,0(a1) # 80000000 <_eusrstack+0x5ffff800>
     fe4:	00e78023          	sb	a4,0(a5)
     fe8:	e311                	bnez	a4,fec <strcpy+0xe>
}
     fea:	8082                	ret
	for (; (*d=*s); s++, d++);
     fec:	0585                	addi	a1,a1,1
     fee:	0785                	addi	a5,a5,1
     ff0:	bfc5                	j	fe0 <strcpy+0x2>

00000ff2 <memcpy>:
{
     ff2:	4781                	li	a5,0
	for (; n; n--) *d++ = *s++;
     ff4:	00f61363          	bne	a2,a5,ffa <memcpy+0x8>
}
     ff8:	8082                	ret
	for (; n; n--) *d++ = *s++;
     ffa:	00f58733          	add	a4,a1,a5
     ffe:	00074683          	lbu	a3,0(a4) # 40021000 <_eusrstack+0x20020800>
    1002:	00f50733          	add	a4,a0,a5
    1006:	0785                	addi	a5,a5,1
    1008:	00d70023          	sb	a3,0(a4)
    100c:	b7e5                	j	ff4 <memcpy+0x2>

0000100e <ssd1306_data.isra.0>:

/* send OLED data packet (up to 32 bytes) */
uint8_t ssd1306_data(uint8_t *data, int sz) {
    100e:	7179                	addi	sp,sp,-48
    1010:	d422                	sw	s0,40(sp)
	uint8_t pkt[33];
	pkt[0] = 0x40;
    1012:	04000793          	li	a5,64
uint8_t ssd1306_data(uint8_t *data, int sz) {
    1016:	842e                	mv	s0,a1
	memcpy(&pkt[1], data, sz);
    1018:	862e                	mv	a2,a1
    101a:	85aa                	mv	a1,a0
    101c:	00110513          	addi	a0,sp,1
uint8_t ssd1306_data(uint8_t *data, int sz) {
    1020:	d606                	sw	ra,44(sp)
	pkt[0] = 0x40;
    1022:	00f10023          	sb	a5,0(sp)
	memcpy(&pkt[1], data, sz);
    1026:	37f1                	jal	ff2 <memcpy>
	return i2c_write_raw(&dev_ssd1306, pkt, sz+1);
    1028:	00140593          	addi	a1,s0,1
    102c:	850a                	mv	a0,sp
    102e:	3409                	jal	a30 <i2c_write_raw.constprop.0>
}
    1030:	50b2                	lw	ra,44(sp)
    1032:	5422                	lw	s0,40(sp)
    1034:	6145                	addi	sp,sp,48
    1036:	8082                	ret

00001038 <ssd1306_print_str_at.constprop.0>:

void ssd1306_setWindow_pages(uint8_t start_page, uint8_t end_page) {
	ssd1306_setwindow(start_page, end_page, 0, SSD1306_W_LIMIT); // Set the window to the current page
}

void ssd1306_print_str_at(
    1038:	1151                	addi	sp,sp,-12
    103a:	c222                	sw	s0,4(sp)
    103c:	842a                	mv	s0,a0
	ssd1306_cmd(SSD1306_COLUMNADDR);
    103e:	02100513          	li	a0,33
void ssd1306_print_str_at(
    1042:	c406                	sw	ra,8(sp)
    1044:	c026                	sw	s1,0(sp)
	ssd1306_cmd(SSD1306_COLUMNADDR);
    1046:	363d                	jal	b74 <ssd1306_cmd>
	ssd1306_cmd(start_column);   				// Column start address (0 = reset)
    1048:	4501                	li	a0,0
    104a:	362d                	jal	b74 <ssd1306_cmd>
	ssd1306_cmd(end_column); 	// Column end address (127 = reset)
    104c:	07f00513          	li	a0,127
    1050:	3615                	jal	b74 <ssd1306_cmd>
	ssd1306_cmd(SSD1306_PAGEADDR);
    1052:	02200513          	li	a0,34
    1056:	3e39                	jal	b74 <ssd1306_cmd>
	ssd1306_cmd(start_page); 	// Page start address (0 = reset)
    1058:	8522                	mv	a0,s0
    105a:	3e29                	jal	b74 <ssd1306_cmd>
	ssd1306_cmd(end_page); 		// Page end address
    105c:	8522                	mv	a0,s0
    105e:	3e19                	jal	b74 <ssd1306_cmd>
    1060:	4465                	li	s0,25
    1062:	3d018493          	addi	s1,gp,976 # 200007cc <str_output>
  const char *str, uint8_t page, uint8_t column
) {
	ssd1306_setWindow_pages(page, page); // Set the window to the current page

	for (int i=0; i<25; i++) {
		if (*str) {
    1066:	0004c783          	lbu	a5,0(s1)
    106a:	c78d                	beqz	a5,1094 <ssd1306_print_str_at.constprop.0+0x5c>
			uint8_t char_index = *str - 32; // Adjust for ASCII offset
    106c:	1781                	addi	a5,a5,-32
			ssd1306_data((uint8_t *)FONT_7x5[char_index], 5); // Send font data
    106e:	0ff7f793          	andi	a5,a5,255
    1072:	6709                	lui	a4,0x2
    1074:	00279693          	slli	a3,a5,0x2
    1078:	4c870513          	addi	a0,a4,1224 # 24c8 <FONT_7x5>
    107c:	97b6                	add	a5,a5,a3
    107e:	4595                	li	a1,5
    1080:	953e                	add	a0,a0,a5
    1082:	3771                	jal	100e <ssd1306_data.isra.0>
			str++;
    1084:	0485                	addi	s1,s1,1
	for (int i=0; i<25; i++) {
    1086:	147d                	addi	s0,s0,-1
    1088:	fc79                	bnez	s0,1066 <ssd1306_print_str_at.constprop.0+0x2e>
		} else {
			ssd1306_data((uint8_t *)FONT_7x5[0], 5); // Send space character if no more characters
		}
	}
}
    108a:	40a2                	lw	ra,8(sp)
    108c:	4412                	lw	s0,4(sp)
    108e:	4482                	lw	s1,0(sp)
    1090:	0131                	addi	sp,sp,12
    1092:	8082                	ret
			ssd1306_data((uint8_t *)FONT_7x5[0], 5); // Send space character if no more characters
    1094:	6789                	lui	a5,0x2
    1096:	4595                	li	a1,5
    1098:	4c878513          	addi	a0,a5,1224 # 24c8 <FONT_7x5>
    109c:	3f8d                	jal	100e <ssd1306_data.isra.0>
    109e:	b7e5                	j	1086 <ssd1306_print_str_at.constprop.0+0x4e>

000010a0 <modI2C_task>:

	// i2c_device_tests();
	// test_v003Slave();
}

void modI2C_task(uint32_t counter) {
    10a0:	862a                	mv	a2,a0
	sprintf(str_output, "counter %lu", counter);
    10a2:	6589                	lui	a1,0x2
void modI2C_task(uint32_t counter) {
    10a4:	1151                	addi	sp,sp,-12
	sprintf(str_output, "counter %lu", counter);
    10a6:	3c458593          	addi	a1,a1,964 # 23c4 <I2C1_ER_IRQHandler+0xa2>
    10aa:	3d018513          	addi	a0,gp,976 # 200007cc <str_output>
void modI2C_task(uint32_t counter) {
    10ae:	c406                	sw	ra,8(sp)
	sprintf(str_output, "counter %lu", counter);
    10b0:	3ded                	jal	faa <sprintf>
	if (i2c_ping(0x3C) != I2C_OK) return;
    10b2:	03c00513          	li	a0,60
    10b6:	8e3ff0ef          	jal	ra,998 <i2c_ping>
    10ba:	e509                	bnez	a0,10c4 <modI2C_task+0x24>
	modI2C_display(str_output, 7);
    10bc:	40a2                	lw	ra,8(sp)
	ssd1306_print_str_at(str, line, 0);
    10be:	451d                	li	a0,7
    10c0:	0131                	addi	sp,sp,12
	ssd1306_print_str_at(str, line, 0);
    10c2:	bf9d                	j	1038 <ssd1306_print_str_at.constprop.0>
    10c4:	40a2                	lw	ra,8(sp)
    10c6:	0131                	addi	sp,sp,12
    10c8:	8082                	ret

000010ca <puts>:
{
    10ca:	1151                	addi	sp,sp,-12
    10cc:	c406                	sw	ra,8(sp)
    10ce:	c222                	sw	s0,4(sp)
    10d0:	c026                	sw	s1,0(sp)
    10d2:	84aa                	mv	s1,a0
	int sl = strlen( s );
    10d4:	3165                	jal	d7c <strlen>
    10d6:	842a                	mv	s0,a0
	_write(0, s, sl );
    10d8:	85aa                	mv	a1,a0
    10da:	8526                	mv	a0,s1
    10dc:	3c7d                	jal	b9a <_write.constprop.0>
	_write(0, "\n", 1 );
    10de:	6509                	lui	a0,0x2
    10e0:	4585                	li	a1,1
    10e2:	3d050513          	addi	a0,a0,976 # 23d0 <I2C1_ER_IRQHandler+0xae>
    10e6:	3c55                	jal	b9a <_write.constprop.0>
}
    10e8:	40a2                	lw	ra,8(sp)
    10ea:	00140513          	addi	a0,s0,1
    10ee:	4412                	lw	s0,4(sp)
    10f0:	4482                	lw	s1,0(sp)
    10f2:	0131                	addi	sp,sp,12
    10f4:	8082                	ret

000010f6 <i2c_scan_callback>:
	if (addr == 0x00 || addr == 0x7F) return; // Skip reserved addresses
    10f6:	c539                	beqz	a0,1144 <i2c_scan_callback+0x4e>
    10f8:	07f00793          	li	a5,127
    10fc:	862a                	mv	a2,a0
    10fe:	04f50363          	beq	a0,a5,1144 <i2c_scan_callback+0x4e>
void i2c_scan_callback(const uint8_t addr) {
    1102:	1151                	addi	sp,sp,-12
    1104:	c222                	sw	s0,4(sp)
	sprintf(str_output, "I2C: 0x%02X", addr);
    1106:	6589                	lui	a1,0x2
    1108:	3d458593          	addi	a1,a1,980 # 23d4 <I2C1_ER_IRQHandler+0xb2>
    110c:	3d018513          	addi	a0,gp,976 # 200007cc <str_output>
void i2c_scan_callback(const uint8_t addr) {
    1110:	c406                	sw	ra,8(sp)
	sprintf(str_output, "I2C: 0x%02X", addr);
    1112:	3d61                	jal	faa <sprintf>
	printf("%s\n", str_output);
    1114:	3d018513          	addi	a0,gp,976 # 200007cc <str_output>
    1118:	3f4d                	jal	10ca <puts>
	modI2C_display(str_output, line++);
    111a:	c4018793          	addi	a5,gp,-960 # 2000003c <line.5>
    111e:	4380                	lw	s0,0(a5)
	if (i2c_ping(0x3C) != I2C_OK) return;
    1120:	03c00513          	li	a0,60
	modI2C_display(str_output, line++);
    1124:	00140713          	addi	a4,s0,1
    1128:	c398                	sw	a4,0(a5)
	if (i2c_ping(0x3C) != I2C_OK) return;
    112a:	86fff0ef          	jal	ra,998 <i2c_ping>
    112e:	e519                	bnez	a0,113c <i2c_scan_callback+0x46>
	ssd1306_print_str_at(str, line, 0);
    1130:	0ff47513          	andi	a0,s0,255
}
    1134:	4412                	lw	s0,4(sp)
    1136:	40a2                	lw	ra,8(sp)
    1138:	0131                	addi	sp,sp,12
	ssd1306_print_str_at(str, line, 0);
    113a:	bdfd                	j	1038 <ssd1306_print_str_at.constprop.0>
}
    113c:	40a2                	lw	ra,8(sp)
    113e:	4412                	lw	s0,4(sp)
    1140:	0131                	addi	sp,sp,12
    1142:	8082                	ret
    1144:	8082                	ret

00001146 <SystemInit>:
	#endif
#elif defined(CH32X03x)
	FLASH->ACTLR = FLASH_ACTLR_LATENCY_2;                   // +2 Cycle Latency (Recommended per TRM)
#elif defined(CH32V003)
	#if FUNCONF_SYSTEM_CORE_CLOCK > 25000000
		FLASH->ACTLR = FLASH_ACTLR_LATENCY_1;               // +1 Cycle Latency
    1146:	400227b7          	lui	a5,0x40022
    114a:	4705                	li	a4,1
    114c:	c398                	sw	a4,0(a5)
#elif defined(FUNCONF_USE_HSI) && FUNCONF_USE_HSI
	#if defined(CH32V30x) || defined(CH32V20x) || defined(CH32V10x)
		EXTEN->EXTEN_CTR |= EXTEN_PLL_HSI_PRE;
	#endif
	#if defined(FUNCONF_USE_PLL) && FUNCONF_USE_PLL
		RCC->CFGR0 = BASE_CFGR0;
    114e:	400217b7          	lui	a5,0x40021
		RCC->CTLR  = BASE_CTLR | RCC_HSION | RCC_PLLON; 			// Use HSI, enable PLL.
    1152:	01080737          	lui	a4,0x1080
		RCC->CFGR0 = BASE_CFGR0;
    1156:	0007a223          	sw	zero,4(a5) # 40021004 <_eusrstack+0x20020804>
		RCC->CTLR  = BASE_CTLR | RCC_HSION | RCC_PLLON; 			// Use HSI, enable PLL.
    115a:	08170713          	addi	a4,a4,129 # 1080081 <lib_i2c.c.d894f163+0x1075fad>
    115e:	c398                	sw	a4,0(a5)
		FLASH->ACTLR = FLASH_ACTLR_LATENCY_1;       		// +1 Cycle Latency
	#endif
#endif

#if !defined(CH57x) && !defined(CH58x) && !defined(CH59x)
	RCC->INTR  = 0x009F0000;                               // Clear PLL, CSSC, HSE, HSI and LSI ready flags.
    1160:	009f0737          	lui	a4,0x9f0
    1164:	c798                	sw	a4,8(a5)
#endif

#if defined(FUNCONF_USE_PLL) && FUNCONF_USE_PLL && !defined(CH57x) && !defined(CH58x) && !defined(CH59x)
	while((RCC->CTLR & RCC_PLLRDY) == 0);                       	// Wait till PLL is ready
    1166:	020006b7          	lui	a3,0x2000
    116a:	40021737          	lui	a4,0x40021
    116e:	431c                	lw	a5,0(a4)
    1170:	8ff5                	and	a5,a5,a3
    1172:	dff5                	beqz	a5,116e <SystemInit+0x28>
	uint32_t tmp32 = RCC->CFGR0 & ~(0x03);							// clr the SW
    1174:	435c                	lw	a5,4(a4)
	RCC->CFGR0 = tmp32 | RCC_SW_PLL;                       			// Select PLL as system clock source
	while ((RCC->CFGR0 & (uint32_t)RCC_SWS) != (uint32_t)0x08); 	// Wait till PLL is used as system clock source
    1176:	400216b7          	lui	a3,0x40021
	uint32_t tmp32 = RCC->CFGR0 & ~(0x03);							// clr the SW
    117a:	9bf1                	andi	a5,a5,-4
	RCC->CFGR0 = tmp32 | RCC_SW_PLL;                       			// Select PLL as system clock source
    117c:	0027e793          	ori	a5,a5,2
    1180:	c35c                	sw	a5,4(a4)
	while ((RCC->CFGR0 & (uint32_t)RCC_SWS) != (uint32_t)0x08); 	// Wait till PLL is used as system clock source
    1182:	4721                	li	a4,8
    1184:	42dc                	lw	a5,4(a3)
    1186:	8bb1                	andi	a5,a5,12
    1188:	fee79ee3          	bne	a5,a4,1184 <SystemInit+0x3e>
	*DMDATA1 = 0x00;
    118c:	e00007b7          	lui	a5,0xe0000
    1190:	0e07ac23          	sw	zero,248(a5) # e00000f8 <_eusrstack+0xbffff8f8>
	*DMDATA0 = 0x80;
    1194:	08000713          	li	a4,128
    1198:	0ee7aa23          	sw	a4,244(a5)
	SetupUART( UART_BRR );
#endif
#if defined( FUNCONF_USE_DEBUGPRINTF ) && FUNCONF_USE_DEBUGPRINTF
	SetupDebugPrintf();
#endif
}
    119c:	8082                	ret

0000119e <main>:
			printf("Long Press\n"); break;
	}
}

int main()
{
    119e:	f7410113          	addi	sp,sp,-140
    11a2:	c506                	sw	ra,136(sp)
    11a4:	c322                	sw	s0,132(sp)
    11a6:	c126                	sw	s1,128(sp)
    11a8:	0160                	addi	s0,sp,140
	uint32_t sec_time = 0;
	uint32_t time_ref = 0;

	M_Encoder encoder_a = {0, 0, 0};

	SystemInit();
    11aa:	3f71                	jal	1146 <SystemInit>
* its clock source
*/
void systick_init(void)
{
	// Reset any pre-existing configuration
	SysTick->CTLR = 0x0000;
    11ac:	e000f7b7          	lui	a5,0xe000f
	
	// Set the compare register to trigger once per millisecond
	SysTick->CMP = SYSTICK_ONE_MILLISECOND - 1;
    11b0:	6731                	lui	a4,0xc
	SysTick->CTLR = 0x0000;
    11b2:	0007a023          	sw	zero,0(a5) # e000f000 <_eusrstack+0xc000e800>
	SysTick->CMP = SYSTICK_ONE_MILLISECOND - 1;
    11b6:	b7f70713          	addi	a4,a4,-1153 # bb7f <lib_i2c.c.d894f163+0x1aab>
    11ba:	cb98                	sw	a4,16(a5)

	// Reset the Count Register, and the global millis counter to 0
	SysTick->CNT = 0x00000000;
    11bc:	0007a423          	sw	zero,8(a5)
	systick_millis = 0x00000000;
    11c0:	cb018493          	addi	s1,gp,-848 # 200000ac <systick_millis>
    11c4:	0004a023          	sw	zero,0(s1)
	
	// Set the SysTick Configuration
	// NOTE: By not setting SYSTICK_CTLR_STRE, we maintain compatibility with
	// busywait delay funtions used by ch32v003_fun.
	SysTick->CTLR |= SYSTICK_CTLR_STE   |  // Enable Counter
    11c8:	4398                	lw	a4,0(a5)
	systick_init();			//! required for millis()

	funGpioInitAll();
	Delay_Ms(100);
    11ca:	00494537          	lui	a0,0x494
    11ce:	e0050513          	addi	a0,a0,-512 # 493e00 <lib_i2c.c.d894f163+0x489d2c>
    11d2:	00776713          	ori	a4,a4,7
    11d6:	c398                	sw	a4,0(a5)
	NVIC->IENR[((uint32_t)(IRQn) >> 5)] = (1 << ((uint32_t)(IRQn) & 0x1F));
    11d8:	e000e7b7          	lui	a5,0xe000e
    11dc:	6705                	lui	a4,0x1
    11de:	10e7a023          	sw	a4,256(a5) # e000e100 <_eusrstack+0xc000d900>
	funGpioInitAll();
    11e2:	40021737          	lui	a4,0x40021
    11e6:	4f1c                	lw	a5,24(a4)
    11e8:	0357e793          	ori	a5,a5,53
    11ec:	cf1c                	sw	a5,24(a4)
	Delay_Ms(100);
    11ee:	866ff0ef          	jal	ra,254 <DelaySysTick>
    }

    void button_setup(Button_t *model) {
    if (model->pin == 0xFF) return; 

    funPinMode(model->pin, GPIO_CFGLR_IN_PUPD);
    11f2:	40011737          	lui	a4,0x40011
    11f6:	40072783          	lw	a5,1024(a4) # 40011400 <_eusrstack+0x20010c00>
    11fa:	40070613          	addi	a2,a4,1024
    11fe:	9bc1                	andi	a5,a5,-16
    1200:	0087e793          	ori	a5,a5,8
    1204:	40f72023          	sw	a5,1024(a4)
    funDigitalWrite(model->pin, 1);
    1208:	4785                	li	a5,1
    120a:	ca1c                	sw	a5,16(a2)
    model->debounce_time = millis();
    120c:	4098                	lw	a4,0(s1)
    120e:	cb018693          	addi	a3,gp,-848 # 200000ac <systick_millis>
    1212:	fad42a23          	sw	a3,-76(s0)
    1216:	fae42c23          	sw	a4,-72(s0)
    model->release_time = millis();
    121a:	4098                	lw	a4,0(s1)
    121c:	fae42623          	sw	a4,-84(s0)
	if(dev->regb == 0) dev->regb = 1;
    1220:	c0418613          	addi	a2,gp,-1020 # 20000000 <dev_aht21>
    1224:	00a64603          	lbu	a2,10(a2)
    1228:	c0418713          	addi	a4,gp,-1020 # 20000000 <dev_aht21>
    122c:	e601                	bnez	a2,1234 <main+0x96>
	if(dev->regb  > 4) dev->regb = 4;
    122e:	00f70523          	sb	a5,10(a4)
    1232:	a021                	j	123a <main+0x9c>
    1234:	4791                	li	a5,4
    1236:	fec7ece3          	bltu	a5,a2,122e <main+0x90>
	RCC->APB1PRSTR |=  RCC_APB1Periph_I2C1;
    123a:	400217b7          	lui	a5,0x40021
    123e:	4b90                	lw	a2,16(a5)
    1240:	00200537          	lui	a0,0x200
	RCC->APB1PRSTR &= ~RCC_APB1Periph_I2C1;
    1244:	ffe005b7          	lui	a1,0xffe00
	RCC->APB1PRSTR |=  RCC_APB1Periph_I2C1;
    1248:	8e49                	or	a2,a2,a0
    124a:	cb90                	sw	a2,16(a5)
	RCC->APB1PRSTR &= ~RCC_APB1Periph_I2C1;
    124c:	4b90                	lw	a2,16(a5)
    124e:	15fd                	addi	a1,a1,-1
	I2C_PORT->CFGLR |= (GPIO_Speed_10MHz | GPIO_CNF_OUT_OD_AF) << (4 * I2C_PIN_SCL);
    1250:	6485                	lui	s1,0x1
	RCC->APB1PRSTR &= ~RCC_APB1Periph_I2C1;
    1252:	8e6d                	and	a2,a2,a1
    1254:	cb90                	sw	a2,16(a5)
	RCC->APB1PCENR |= RCC_APB1Periph_I2C1;
    1256:	4fd4                	lw	a3,28(a5)
	AFIO->PCFR1 &= ~(0x04400002);
    1258:	fbc00637          	lui	a2,0xfbc00
    125c:	1675                	addi	a2,a2,-3
	RCC->APB1PCENR |= RCC_APB1Periph_I2C1;
    125e:	8ec9                	or	a3,a3,a0
    1260:	cfd4                	sw	a3,28(a5)
	RCC->APB2PCENR |= I2C_PORT_RCC | RCC_APB2Periph_AFIO;
    1262:	4f94                	lw	a3,24(a5)
    1264:	0116e693          	ori	a3,a3,17
    1268:	cf94                	sw	a3,24(a5)
	AFIO->PCFR1 &= ~(0x04400002);
    126a:	400107b7          	lui	a5,0x40010
    126e:	43d4                	lw	a3,4(a5)
    1270:	8ef1                	and	a3,a3,a2
    1272:	c3d4                	sw	a3,4(a5)
	AFIO->PCFR1 |= I2C_AFIO_REG;
    1274:	43d4                	lw	a3,4(a5)
	I2C_PORT->CFGLR &= ~(0x0F << (4 * I2C_PIN_SCL));
    1276:	767d                	lui	a2,0xfffff
    1278:	0ff60613          	addi	a2,a2,255 # fffff0ff <_eusrstack+0xdfffe8ff>
	AFIO->PCFR1 |= I2C_AFIO_REG;
    127c:	c3d4                	sw	a3,4(a5)
	I2C_PORT->CFGLR &= ~(0x0F << (4 * I2C_PIN_SDA));
    127e:	400117b7          	lui	a5,0x40011
    1282:	4394                	lw	a3,0(a5)
    1284:	f0f6f693          	andi	a3,a3,-241
    1288:	c394                	sw	a3,0(a5)
	I2C_PORT->CFGLR |= (GPIO_Speed_10MHz | GPIO_CNF_OUT_OD_AF) << (4 * I2C_PIN_SDA);	
    128a:	4394                	lw	a3,0(a5)
    128c:	0d06e693          	ori	a3,a3,208
    1290:	c394                	sw	a3,0(a5)
	I2C_PORT->CFGLR &= ~(0x0F << (4 * I2C_PIN_SCL));
    1292:	4394                	lw	a3,0(a5)
    1294:	8ef1                	and	a3,a3,a2
    1296:	c394                	sw	a3,0(a5)
	I2C_PORT->CFGLR |= (GPIO_Speed_10MHz | GPIO_CNF_OUT_OD_AF) << (4 * I2C_PIN_SCL);
    1298:	4394                	lw	a3,0(a5)
    129a:	d0048613          	addi	a2,s1,-768 # d00 <handle_reset+0x60>
    129e:	8ed1                	or	a3,a3,a2
    12a0:	c394                	sw	a3,0(a5)
	uint16_t i2c_conf = I2C1->CTLR2 & ~I2C_CTLR2_FREQ;
    12a2:	400056b7          	lui	a3,0x40005
    12a6:	4046d783          	lhu	a5,1028(a3) # 40005404 <_eusrstack+0x20004c04>
    12aa:	07c2                	slli	a5,a5,0x10
    12ac:	83c1                	srli	a5,a5,0x10
    12ae:	fc07f793          	andi	a5,a5,-64
	i2c_conf |= (FUNCONF_SYSTEM_CORE_CLOCK / I2C_PRERATE) & I2C_CTLR2_FREQ;
    12b2:	0187e793          	ori	a5,a5,24
	I2C1->CTLR2 = i2c_conf;
    12b6:	40f69223          	sh	a5,1028(a3)
	if(dev->clkr <= 100000)
    12ba:	431c                	lw	a5,0(a4)
    12bc:	6761                	lui	a4,0x18
    12be:	6a070713          	addi	a4,a4,1696 # 186a0 <lib_i2c.c.d894f163+0xe5cc>
    12c2:	00179593          	slli	a1,a5,0x1
    12c6:	3af76d63          	bltu	a4,a5,1680 <main+0x4e2>
		i2c_conf = (FUNCONF_SYSTEM_CORE_CLOCK / (2 * dev->clkr)) & I2C_CKCFGR_CCR;
    12ca:	02dc7537          	lui	a0,0x2dc7
    12ce:	c0050513          	addi	a0,a0,-1024 # 2dc6c00 <lib_i2c.c.d894f163+0x2dbcb2c>
    12d2:	dd7fe0ef          	jal	ra,a8 <__hidden___udivsi3>
    12d6:	14fd                	addi	s1,s1,-1
    12d8:	8d65                	and	a0,a0,s1
    12da:	0542                	slli	a0,a0,0x10
    12dc:	8141                	srli	a0,a0,0x10
	I2C1->CKCFGR = i2c_conf;
    12de:	40005737          	lui	a4,0x40005
    12e2:	40a71e23          	sh	a0,1052(a4) # 4000541c <_eusrstack+0x20004c1c>
	I2C1->CTLR1 |= I2C_CTLR1_PE;
    12e6:	40075783          	lhu	a5,1024(a4)
    12ea:	07c2                	slli	a5,a5,0x10
    12ec:	83c1                	srli	a5,a5,0x10
    12ee:	0017e793          	ori	a5,a5,1
    12f2:	40f71023          	sh	a5,1024(a4)
	return i2c_error();
    12f6:	da4ff0ef          	jal	ra,89a <i2c_error>
	if(i2c_init(&dev_aht21) != I2C_OK) {
    12fa:	3a050163          	beqz	a0,169c <main+0x4fe>
		printf("Failed to init I2C\n");
    12fe:	6509                	lui	a0,0x2
    1300:	3e050513          	addi	a0,a0,992 # 23e0 <I2C1_ER_IRQHandler+0xbe>
    1304:	33d9                	jal	10ca <puts>
	button_setup(&button1);

	// I2C1: uses PC1 & PC2
	modI2C_setup();

	uint8_t slave_mode = funDigitalRead(BUTTON_PIN);
    1306:	400117b7          	lui	a5,0x40011
    130a:	40078793          	addi	a5,a5,1024 # 40011400 <_eusrstack+0x20010c00>
    130e:	479c                	lw	a5,8(a5)
    1310:	8b85                	andi	a5,a5,1
    1312:	f8f42a23          	sw	a5,-108(s0)
	if (slave_mode == 0) {
    1316:	10079063          	bnez	a5,1416 <main+0x278>
		printf("I2C Slave mode\n");
    131a:	6509                	lui	a0,0x2
    131c:	43c50513          	addi	a0,a0,1084 # 243c <I2C1_ER_IRQHandler+0x11a>
    1320:	336d                	jal	10ca <puts>
} i2c_slave_state;

void SetupI2CSlave(uint8_t address, volatile uint8_t* registers, uint8_t size,
    i2c_write_callback_t write_callback, i2c_read_callback_t read_callback, bool read_only
) {
    i2c_slave_state.first_write = 1;
    1322:	39818793          	addi	a5,gp,920 # 20000794 <i2c_slave_state>
    1326:	4705                	li	a4,1
    1328:	00e79023          	sh	a4,0(a5)
    i2c_slave_state.offset = 0;
    i2c_slave_state.position = 0;
    i2c_slave_state.registers1 = registers;
    132c:	c1c18713          	addi	a4,gp,-996 # 20000018 <i2c_registers>
    1330:	c3d8                	sw	a4,4(a5)
    i2c_slave_state.size1 = size;
    i2c_slave_state.registers2 = NULL;
    i2c_slave_state.size2 = 0;
    i2c_slave_state.write_callback1 = write_callback;
    1332:	6705                	lui	a4,0x1
    1334:	f6a70713          	addi	a4,a4,-150 # f6a <onI2C_SlaveWrite>
    1338:	cbd8                	sw	a4,20(a5)
    i2c_slave_state.read_callback1 = read_callback;
    133a:	6705                	lui	a4,0x1
    i2c_slave_state.size1 = size;
    133c:	02000613          	li	a2,32
    i2c_slave_state.read_callback1 = read_callback;
    1340:	f7270713          	addi	a4,a4,-142 # f72 <onI2C_SlaveRead>
    i2c_slave_state.registers2 = NULL;
    1344:	0007a623          	sw	zero,12(a5)
    i2c_slave_state.size2 = 0;
    1348:	00078823          	sb	zero,16(a5)
    i2c_slave_state.read_only1 = read_only;
    134c:	00078e23          	sb	zero,28(a5)
    i2c_slave_state.read_callback1 = read_callback;
    1350:	cf98                	sw	a4,24(a5)
    i2c_slave_state.position = 0;
    1352:	00078123          	sb	zero,2(a5)
    i2c_slave_state.size1 = size;
    1356:	00c78423          	sb	a2,8(a5)
    i2c_slave_state.write_callback2 = NULL;
    135a:	0207a023          	sw	zero,32(a5)
    i2c_slave_state.read_callback2 = NULL;
    135e:	0207a223          	sw	zero,36(a5)
    i2c_slave_state.read_only2 = false;
    1362:	02078423          	sb	zero,40(a5)

    // Enable I2C1
    RCC->APB1PCENR |= RCC_APB1Periph_I2C1;
    1366:	400217b7          	lui	a5,0x40021
    136a:	4fd4                	lw	a3,28(a5)
    136c:	002005b7          	lui	a1,0x200
    1370:	8ecd                	or	a3,a3,a1
    1372:	cfd4                	sw	a3,28(a5)

    // Reset I2C1 to init all regs
    RCC->APB1PRSTR |= RCC_APB1Periph_I2C1;
    1374:	4b98                	lw	a4,16(a5)
    RCC->APB1PRSTR &= ~RCC_APB1Periph_I2C1;
    1376:	ffe006b7          	lui	a3,0xffe00
    137a:	16fd                	addi	a3,a3,-1
    RCC->APB1PRSTR |= RCC_APB1Periph_I2C1;
    137c:	8f4d                	or	a4,a4,a1
    137e:	cb98                	sw	a4,16(a5)
    RCC->APB1PRSTR &= ~RCC_APB1Periph_I2C1;
    1380:	4b98                	lw	a4,16(a5)

    I2C1->CTLR1 |= I2C_CTLR1_SWRST;
    1382:	65a1                	lui	a1,0x8
    RCC->APB1PRSTR &= ~RCC_APB1Periph_I2C1;
    1384:	8f75                	and	a4,a4,a3
    1386:	cb98                	sw	a4,16(a5)
    I2C1->CTLR1 |= I2C_CTLR1_SWRST;
    1388:	400057b7          	lui	a5,0x40005
    138c:	4007d683          	lhu	a3,1024(a5) # 40005400 <_eusrstack+0x20004c00>
    1390:	06c2                	slli	a3,a3,0x10
    1392:	82c1                	srli	a3,a3,0x10
    1394:	8ecd                	or	a3,a3,a1
    1396:	40d79023          	sh	a3,1024(a5)
    I2C1->CTLR1 &= ~I2C_CTLR1_SWRST;
    139a:	4007d683          	lhu	a3,1024(a5)
    139e:	400005b7          	lui	a1,0x40000
    13a2:	06c6                	slli	a3,a3,0x11
    13a4:	82c5                	srli	a3,a3,0x11
    13a6:	40d79023          	sh	a3,1024(a5)

    // Set module clock frequency
    uint32_t prerate = 2000000; // I2C Logic clock rate, must be higher than the bus clock rate
    I2C1->CTLR2 |= (FUNCONF_SYSTEM_CORE_CLOCK/prerate) & I2C_CTLR2_FREQ;
    13aa:	4047d683          	lhu	a3,1028(a5)
    13ae:	06c2                	slli	a3,a3,0x10
    13b0:	82c1                	srli	a3,a3,0x10
    13b2:	0186e693          	ori	a3,a3,24
    13b6:	40d79223          	sh	a3,1028(a5)

    // Enable interrupts
    I2C1->CTLR2 |= I2C_CTLR2_ITBUFEN | I2C_CTLR2_ITEVTEN | I2C_CTLR2_ITERREN;
    13ba:	4047d683          	lhu	a3,1028(a5)
    13be:	06c2                	slli	a3,a3,0x10
    13c0:	82c1                	srli	a3,a3,0x10
    13c2:	7006e693          	ori	a3,a3,1792
    13c6:	40d79223          	sh	a3,1028(a5)
    13ca:	e000e6b7          	lui	a3,0xe000e
    13ce:	10b6a023          	sw	a1,256(a3) # e000e100 <_eusrstack+0xc000d900>
	NVIC->IPRIOR[(uint32_t)(IRQn)] = priority;
    13d2:	40c68f23          	sb	a2,1054(a3)
	NVIC->IENR[((uint32_t)(IRQn) >> 5)] = (1 << ((uint32_t)(IRQn) & 0x1F));
    13d6:	800005b7          	lui	a1,0x80000
    13da:	10b6a023          	sw	a1,256(a3)
	NVIC->IPRIOR[(uint32_t)(IRQn)] = priority;
    13de:	40c68fa3          	sb	a2,1055(a3)
    NVIC_EnableIRQ(I2C1_ER_IRQn); // Error interrupt
    NVIC_SetPriority(I2C1_ER_IRQn, 2 << 4);

    // Set clock configuration
    uint32_t clockrate = 1000000; // I2C Bus clock rate, must be lower than the logic clock rate
    I2C1->CKCFGR = ((FUNCONF_SYSTEM_CORE_CLOCK/(3*clockrate))&I2C_CKCFGR_CCR) | I2C_CKCFGR_FS; // Fast mode 33% duty cycle
    13e2:	76e1                	lui	a3,0xffff8
    13e4:	06c1                	addi	a3,a3,16
    13e6:	40d79e23          	sh	a3,1052(a5)
    //I2C1->CKCFGR = ((FUNCONF_SYSTEM_CORE_CLOCK/(25*clockrate))&I2C_CKCFGR_CCR) | I2C_CKCFGR_DUTY | I2C_CKCFGR_FS; // Fast mode 36% duty cycle
    //I2C1->CKCFGR = (FUNCONF_SYSTEM_CORE_CLOCK/(2*clockrate))&I2C_CKCFGR_CCR; // Standard mode good to 100kHz

    // Set I2C address
    I2C1->OADDR1 = address << 1;
    13ea:	0ee00693          	li	a3,238
    13ee:	40d79423          	sh	a3,1032(a5)
    I2C1->OADDR2 = 0;
    13f2:	40079623          	sh	zero,1036(a5)

    // Enable I2C
    I2C1->CTLR1 |= I2C_CTLR1_PE;
    13f6:	4007d703          	lhu	a4,1024(a5)
    13fa:	0742                	slli	a4,a4,0x10
    13fc:	8341                	srli	a4,a4,0x10
    13fe:	00176713          	ori	a4,a4,1
    1402:	40e79023          	sh	a4,1024(a5)

    // Acknowledge bytes when they are received
    I2C1->CTLR1 |= I2C_CTLR1_ACK;
    1406:	4007d703          	lhu	a4,1024(a5)
    140a:	0742                	slli	a4,a4,0x10
    140c:	8341                	srli	a4,a4,0x10
    140e:	40076713          	ori	a4,a4,1024
    1412:	40e79023          	sh	a4,1024(a5)
    RCC->APB2PCENR |= RCC_APB2Periph_GPIOC | RCC_APB2Periph_SPI1;
    1416:	400215b7          	lui	a1,0x40021
    141a:	4d9c                	lw	a5,24(a1)
    141c:	6605                	lui	a2,0x1
    141e:	01060713          	addi	a4,a2,16 # 1010 <ssd1306_data.isra.0+0x2>
    1422:	8fd9                	or	a5,a5,a4
    1424:	cd9c                	sw	a5,24(a1)
    GPIOC->CFGLR &= ~(0xf << (SPI_SCLK << 2));
    1426:	400117b7          	lui	a5,0x40011
    142a:	4398                	lw	a4,0(a5)
    142c:	ff1006b7          	lui	a3,0xff100
    1430:	16fd                	addi	a3,a3,-1
    1432:	8f75                	and	a4,a4,a3
    1434:	c398                	sw	a4,0(a5)
    GPIOC->CFGLR |= (GPIO_CNF_OUT_PP_AF | GPIO_Speed_50MHz) << (SPI_SCLK << 2);
    1436:	4398                	lw	a4,0(a5)
    1438:	00b006b7          	lui	a3,0xb00
    143c:	8f55                	or	a4,a4,a3
    143e:	c398                	sw	a4,0(a5)
    GPIOC->CFGLR &= ~(0xf << (SPI_MOSI << 2));
    1440:	4398                	lw	a4,0(a5)
    1442:	f10006b7          	lui	a3,0xf1000
    1446:	16fd                	addi	a3,a3,-1
    1448:	8f75                	and	a4,a4,a3
    144a:	c398                	sw	a4,0(a5)
    GPIOC->CFGLR |= (GPIO_CNF_OUT_PP_AF | GPIO_Speed_50MHz) << (SPI_MOSI << 2);
    144c:	4398                	lw	a4,0(a5)
    144e:	0b0006b7          	lui	a3,0xb000

/// \brief Initialize ST7735
/// \details Initialization sequence from Arduino_GFX
/// https://github.com/moononournation/Arduino_GFX/blob/master/src/display/Arduino_ST7735.h
void tft_init(uint8_t rst_pin, uint8_t dc_pin) {
    DC_PIN2 = dc_pin;
    1452:	c9018493          	addi	s1,gp,-880 # 2000008c <DC_PIN2>
    1456:	8f55                	or	a4,a4,a3
    SPI1->CTLR1 = SPI_CPHA_1Edge             // Bit 0     - Clock PHAse
    1458:	76f1                	lui	a3,0xffffc
    GPIOC->CFGLR |= (GPIO_CNF_OUT_PP_AF | GPIO_Speed_50MHz) << (SPI_MOSI << 2);
    145a:	c398                	sw	a4,0(a5)
    SPI1->CTLR1 = SPI_CPHA_1Edge             // Bit 0     - Clock PHAse
    145c:	30468693          	addi	a3,a3,772 # ffffc304 <_eusrstack+0xdfffbb04>
    1460:	40013737          	lui	a4,0x40013
    1464:	00d71023          	sh	a3,0(a4) # 40013000 <_eusrstack+0x20012800>
    SPI1->CRCR = 7;                          // CRC
    1468:	469d                	li	a3,7
    146a:	00d71823          	sh	a3,16(a4)
    SPI1->CTLR2 |= SPI_I2S_DMAReq_Tx;        // Configure SPI DMA Transfer
    146e:	00475683          	lhu	a3,4(a4)
    DMA1_Channel3->PADDR = (uint32_t)&SPI1->DATAR;
    1472:	0731                	addi	a4,a4,12
    SPI1->CTLR2 |= SPI_I2S_DMAReq_Tx;        // Configure SPI DMA Transfer
    1474:	06c2                	slli	a3,a3,0x10
    1476:	82c1                	srli	a3,a3,0x10
    1478:	0026e693          	ori	a3,a3,2
    147c:	fed71c23          	sh	a3,-8(a4)
    SPI1->CTLR1 |= CTLR1_SPE_Set;            // Bit 6     - Enable SPI
    1480:	ff475683          	lhu	a3,-12(a4)
    1484:	06c2                	slli	a3,a3,0x10
    1486:	82c1                	srli	a3,a3,0x10
    1488:	0406e693          	ori	a3,a3,64
    148c:	fed71a23          	sh	a3,-12(a4)
    RCC->AHBPCENR |= RCC_AHBPeriph_DMA1;
    1490:	49d4                	lw	a3,20(a1)
    1492:	0016e693          	ori	a3,a3,1
    1496:	c9d4                	sw	a3,20(a1)
    DMA1_Channel3->CFGR = DMA_DIR_PeripheralDST          // Bit 4     - Read from memory
    1498:	668d                	lui	a3,0x3
    149a:	400205b7          	lui	a1,0x40020
    149e:	0b068693          	addi	a3,a3,176 # 30b0 <_data_lma+0x4a8>
    14a2:	d994                	sw	a3,48(a1)
    DMA1_Channel3->PADDR = (uint32_t)&SPI1->DATAR;
    14a4:	dd98                	sw	a4,56(a1)
    14a6:	02300713          	li	a4,35
    14aa:	00e48023          	sb	a4,0(s1)

    funPinMode(rst_pin, GPIO_Speed_10MHz | GPIO_CNF_OUT_PP);
    14ae:	4394                	lw	a3,0(a5)
    14b0:	9ac1                	andi	a3,a3,-16
    14b2:	0016e693          	ori	a3,a3,1
    14b6:	c394                	sw	a3,0(a5)
    funPinMode(dc_pin, GPIO_Speed_10MHz | GPIO_CNF_OUT_PP);
    14b8:	4398                	lw	a4,0(a5)
    14ba:	76c5                	lui	a3,0xffff1
    14bc:	16fd                	addi	a3,a3,-1
    14be:	8f75                	and	a4,a4,a3
    14c0:	8f51                	or	a4,a4,a2
    14c2:	c398                	sw	a4,0(a5)

    // Reset display
    funDigitalWrite(rst_pin, 0);
    14c4:	6741                	lui	a4,0x10
    14c6:	cb98                	sw	a4,16(a5)
    Delay_Ms(100);
    14c8:	00494737          	lui	a4,0x494
    14cc:	e0070513          	addi	a0,a4,-512 # 493e00 <lib_i2c.c.d894f163+0x489d2c>
    14d0:	d85fe0ef          	jal	ra,254 <DelaySysTick>
    funDigitalWrite(rst_pin, 1);
    14d4:	4685                	li	a3,1
    14d6:	400117b7          	lui	a5,0x40011
    Delay_Ms(100);
    14da:	00494737          	lui	a4,0x494
    funDigitalWrite(rst_pin, 1);
    14de:	cb94                	sw	a3,16(a5)
    Delay_Ms(100);
    14e0:	e0070513          	addi	a0,a4,-512 # 493e00 <lib_i2c.c.d894f163+0x489d2c>
    14e4:	d71fe0ef          	jal	ra,254 <DelaySysTick>

    START_WRITE();

    write_command_8(DC_PIN2, 0x01);          // Software reset
    14e8:	0004c483          	lbu	s1,0(s1)
    14ec:	4585                	li	a1,1
    14ee:	8526                	mv	a0,s1
    14f0:	e83fe0ef          	jal	ra,372 <write_command_8>
    Delay_Ms(200);
    14f4:	00928537          	lui	a0,0x928
    14f8:	c0050513          	addi	a0,a0,-1024 # 927c00 <lib_i2c.c.d894f163+0x91db2c>
    14fc:	d59fe0ef          	jal	ra,254 <DelaySysTick>
    write_command_8(DC_PIN2, ST7735_SLPOUT);
    1500:	45c5                	li	a1,17
    1502:	8526                	mv	a0,s1
    1504:	e6ffe0ef          	jal	ra,372 <write_command_8>
    Delay_Ms(100);
    1508:	00494737          	lui	a4,0x494
    150c:	e0070513          	addi	a0,a4,-512 # 493e00 <lib_i2c.c.d894f163+0x489d2c>
    1510:	d45fe0ef          	jal	ra,254 <DelaySysTick>

    // Set rotation
    write_command_8(DC_PIN2, ST7735_MADCTL);
    1514:	03600593          	li	a1,54
    1518:	8526                	mv	a0,s1
    151a:	e59fe0ef          	jal	ra,372 <write_command_8>
    funDigitalWrite(dc_pin, 1);     // Data Mode
    151e:	0044d713          	srli	a4,s1,0x4
    1522:	400117b7          	lui	a5,0x40011
    1526:	072a                	slli	a4,a4,0xa
    1528:	80078793          	addi	a5,a5,-2048 # 40010800 <_eusrstack+0x20010000>
    152c:	4685                	li	a3,1
    152e:	97ba                	add	a5,a5,a4
    1530:	00f4f713          	andi	a4,s1,15
    1534:	00e69733          	sll	a4,a3,a4
    1538:	cb98                	sw	a4,16(a5)
    SPI_send(data);
    153a:	0a800513          	li	a0,168
    funDigitalWrite(dc_pin, 1);     // Data Mode
    153e:	fae42423          	sw	a4,-88(s0)
    1542:	faf42823          	sw	a5,-80(s0)
    SPI_send(data);
    1546:	e17fe0ef          	jal	ra,35c <SPI_send>
    // write_data_8(ST7735_MADCTL_BGR);                                        // 1 - Vertical
    // write_data_8(ST7735_MADCTL_MX | ST7735_MADCTL_MV | ST7735_MADCTL_BGR);  // 2 - Horizontal
    // write_data_8(ST7735_MADCTL_MX | ST7735_MADCTL_MY | ST7735_MADCTL_BGR);  // 3 - Vertical

    // Set Interface Pixel Format - 16-bit/pixel
    write_command_8(DC_PIN2, ST7735_COLMOD);
    154a:	03a00593          	li	a1,58
    154e:	8526                	mv	a0,s1
    1550:	e23fe0ef          	jal	ra,372 <write_command_8>
    funDigitalWrite(dc_pin, 1);     // Data Mode
    1554:	fa842703          	lw	a4,-88(s0)
    1558:	fb042783          	lw	a5,-80(s0)
    SPI_send(data);
    155c:	4515                	li	a0,5
    funDigitalWrite(dc_pin, 1);     // Data Mode
    155e:	cb98                	sw	a4,16(a5)
    SPI_send(data);
    1560:	dfdfe0ef          	jal	ra,35c <SPI_send>
    write_data_8(DC_PIN2, ST7735_COLMOD_16_BPP);

    // Gamma Adjustments (pos. polarity), 16 args.
    // (Not entirely necessary, but provides accurate colors)
    uint8_t gamma_p[] = {0x09, 0x16, 0x09, 0x20, 0x21, 0x1B, 0x13, 0x19,
    1564:	6589                	lui	a1,0x2
    1566:	4641                	li	a2,16
    1568:	4a058593          	addi	a1,a1,1184 # 24a0 <I2C1_ER_IRQHandler+0x17e>
    156c:	fbc40513          	addi	a0,s0,-68
    1570:	3449                	jal	ff2 <memcpy>
                        0x17, 0x15, 0x1E, 0x2B, 0x04, 0x05, 0x02, 0x0E};
    write_command_8(DC_PIN2, ST7735_GMCTRP1);
    1572:	8526                	mv	a0,s1
    1574:	0e000593          	li	a1,224
    1578:	dfbfe0ef          	jal	ra,372 <write_command_8>
    INTF_TFT_SEND_BUFF(gamma_p, 16, 1);
    157c:	4605                	li	a2,1
    157e:	45c1                	li	a1,16
    1580:	fbc40513          	addi	a0,s0,-68
    1584:	e45fe0ef          	jal	ra,3c8 <INTF_TFT_SEND_BUFF>

    // Gamma Adjustments (neg. polarity), 16 args.
    // (Not entirely necessary, but provides accurate colors)
    uint8_t gamma_n[] = {0x0B, 0x14, 0x08, 0x1E, 0x22, 0x1D, 0x18, 0x1E,
    1588:	6589                	lui	a1,0x2
    158a:	4641                	li	a2,16
    158c:	4b458593          	addi	a1,a1,1204 # 24b4 <I2C1_ER_IRQHandler+0x192>
    1590:	fcc40513          	addi	a0,s0,-52
    1594:	3cb9                	jal	ff2 <memcpy>
                        0x1B, 0x1A, 0x24, 0x2B, 0x06, 0x06, 0x02, 0x0F};
    write_command_8(DC_PIN2, ST7735_GMCTRN1);
    1596:	8526                	mv	a0,s1
    1598:	0e100593          	li	a1,225
    159c:	dd7fe0ef          	jal	ra,372 <write_command_8>
    INTF_TFT_SEND_BUFF(gamma_n, 16, 1);
    15a0:	4605                	li	a2,1
    15a2:	45c1                	li	a1,16
    15a4:	fcc40513          	addi	a0,s0,-52
    15a8:	e21fe0ef          	jal	ra,3c8 <INTF_TFT_SEND_BUFF>

    Delay_Ms(10);
    15ac:	000757b7          	lui	a5,0x75
    15b0:	30078513          	addi	a0,a5,768 # 75300 <lib_i2c.c.d894f163+0x6b22c>
    15b4:	ca1fe0ef          	jal	ra,254 <DelaySysTick>

    write_command_8(DC_PIN2, 0x26);  //! Gamma disable
    15b8:	8526                	mv	a0,s1
    15ba:	02600593          	li	a1,38
    15be:	db5fe0ef          	jal	ra,372 <write_command_8>

    // Invert display
    write_command_8(DC_PIN2, ST7735_INVON);
    15c2:	8526                	mv	a0,s1
    15c4:	02100593          	li	a1,33
    15c8:	dabfe0ef          	jal	ra,372 <write_command_8>
    // write_command_8(ST7735_INVOFF);

    // Normal display on, no args, w/delay
    write_command_8(DC_PIN2, ST7735_NORON);
    15cc:	45cd                	li	a1,19
    15ce:	8526                	mv	a0,s1
    15d0:	da3fe0ef          	jal	ra,372 <write_command_8>
    Delay_Ms(10);
    15d4:	000757b7          	lui	a5,0x75
    15d8:	30078513          	addi	a0,a5,768 # 75300 <lib_i2c.c.d894f163+0x6b22c>
    15dc:	c79fe0ef          	jal	ra,254 <DelaySysTick>

    // Main screen turn on, no args, w/delay
    write_command_8(DC_PIN2, ST7735_DISPON);
    15e0:	02900593          	li	a1,41
    15e4:	8526                	mv	a0,s1
    15e6:	d8dfe0ef          	jal	ra,372 <write_command_8>
    Delay_Ms(10);
    15ea:	000757b7          	lui	a5,0x75
    15ee:	30078513          	addi	a0,a5,768 # 75300 <lib_i2c.c.d894f163+0x6b22c>
    15f2:	c63fe0ef          	jal	ra,254 <DelaySysTick>
    END_WRITE();
}

void modST7735_setup(uint8_t rst_pin, uint8_t dc_pin) {
    tft_init(rst_pin, dc_pin);
    tft_fill_rect(0, 0, 160, 128, PURPLE);
    15f6:	6721                	lui	a4,0x8
    15f8:	80f70713          	addi	a4,a4,-2033 # 780f <ch32_mess.c.a966e287+0x31e0>
    15fc:	08000693          	li	a3,128
    1600:	0a000613          	li	a2,160
    1604:	4581                	li	a1,0
    1606:	4501                	li	a0,0
    1608:	f3ffe0ef          	jal	ra,546 <tft_fill_rect>
    model->btn_state = newState;
    160c:	478d                	li	a5,3
	Button_t button1 = { BUTTON_PIN, BUTTON_IDLE, 0, 0, 0, 0, 0, 0 };
    160e:	f8042623          	sw	zero,-116(s0)
    1612:	faf42823          	sw	a5,-80(s0)
	uint32_t sec_time = 0;
    1616:	4481                	li	s1,0
	uint32_t counter = 0;
    1618:	f8042c23          	sw	zero,-104(s0)

	// TIM2 Ch1, Ch2 : uses PD3, PD4.
	// modEncoder_setup(&encoder_a);

	while(1) {
		uint32_t now = millis();
    161c:	fb442783          	lw	a5,-76(s0)

		button_run(&button1, button_onChanged);
		// modEncoder_task(now, &encoder_a, encoder_onChanged);

		if (now - sec_time > 1000) {
    1620:	fb842703          	lw	a4,-72(s0)
		uint32_t now = millis();
    1624:	439c                	lw	a5,0(a5)
    1626:	f8f42823          	sw	a5,-112(s0)
}

void button_run(Button_t *model, void (*handler)(int, uint32_t)) {
    if (model->pin == 0xFF) return;
    
    uint32_t now = millis();
    162a:	fb442783          	lw	a5,-76(s0)
    162e:	439c                	lw	a5,0(a5)
    1630:	faf42c23          	sw	a5,-72(s0)
    uint8_t read = funDigitalRead(model->pin);

    // Debounce check
    if (now - model->debounce_time < TICK_DEBOUNCE_DUR) return;
    1634:	fb842683          	lw	a3,-72(s0)
    uint8_t read = funDigitalRead(model->pin);
    1638:	400117b7          	lui	a5,0x40011
    163c:	40078793          	addi	a5,a5,1024 # 40011400 <_eusrstack+0x20010c00>
    1640:	479c                	lw	a5,8(a5)
    if (now - model->debounce_time < TICK_DEBOUNCE_DUR) return;
    1642:	40e68633          	sub	a2,a3,a4
    1646:	46cd                	li	a3,19
    1648:	5ac6f063          	bgeu	a3,a2,1be8 <main+0xa4a>
    model->debounce_time = now;

    switch (model->btn_state) {
    164c:	fb042683          	lw	a3,-80(s0)
    1650:	4709                	li	a4,2
    uint8_t read = funDigitalRead(model->pin);
    1652:	8b85                	andi	a5,a5,1
    switch (model->btn_state) {
    1654:	58e68463          	beq	a3,a4,1bdc <main+0xa3e>
    1658:	470d                	li	a4,3
    165a:	16e68963          	beq	a3,a4,17cc <main+0x62e>
    165e:	52069163          	bnez	a3,1b80 <main+0x9e2>
            _reset_timers(BTN_DOWN, model);      // First Press  
        }
        break;

    case BTN_DOWN:
        if (read > 0) {
    1662:	4e078e63          	beqz	a5,1b5e <main+0x9c0>
    model->debounce_time = millis();
    1666:	fb442703          	lw	a4,-76(s0)
    166a:	4318                	lw	a4,0(a4)
    166c:	fae42c23          	sw	a4,-72(s0)
    model->release_time = millis();
    1670:	fb442703          	lw	a4,-76(s0)
    1674:	4318                	lw	a4,0(a4)
    1676:	fae42623          	sw	a4,-84(s0)
    model->btn_state = newState;
    167a:	faf42823          	sw	a5,-80(s0)
    167e:	aa85                	j	17ee <main+0x650>
		i2c_conf = (FUNCONF_SYSTEM_CORE_CLOCK / (3 * dev->clkr)) & I2C_CKCFGR_CCR;
    1680:	02dc7537          	lui	a0,0x2dc7
    1684:	95be                	add	a1,a1,a5
    1686:	c0050513          	addi	a0,a0,-1024 # 2dc6c00 <lib_i2c.c.d894f163+0x2dbcb2c>
    168a:	a1ffe0ef          	jal	ra,a8 <__hidden___udivsi3>
    168e:	14fd                	addi	s1,s1,-1
    1690:	8d65                	and	a0,a0,s1
    1692:	0542                	slli	a0,a0,0x10
    1694:	8141                	srli	a0,a0,0x10
		i2c_conf |= I2C_CKCFGR_FS;
    1696:	67a1                	lui	a5,0x8
    1698:	8d5d                	or	a0,a0,a5
    169a:	b191                	j	12de <main+0x140>
		if (i2c_ping(0x3C) == I2C_OK) {
    169c:	03c00513          	li	a0,60
    16a0:	af8ff0ef          	jal	ra,998 <i2c_ping>
    16a4:	0e051863          	bnez	a0,1794 <main+0x5f6>
	// ssd1306_rst();
	ssd1306_setbuf(0);
	
	// initialize OLED
	#if !defined(SSD1306_CUSTOM_INIT_ARRAY) || !SSD1306_CUSTOM_INIT_ARRAY
		uint8_t *cmd_list = (uint8_t *)ssd1306_init_array;
    16a8:	678d                	lui	a5,0x3
    16aa:	ca018623          	sb	zero,-852(gp) # 200000a8 <ssd1306_buffer>
    16ae:	bec78793          	addi	a5,a5,-1044 # 2bec <ssd1306_init_array>

		while(*cmd_list != SSD1306_TERMINATE_CMDS) {
    16b2:	0007c503          	lbu	a0,0(a5)
    16b6:	0ff00713          	li	a4,255
    16ba:	02e51e63          	bne	a0,a4,16f6 <main+0x558>
		ssd1306_cmd(SSD1306_COLUMNADDR);
    16be:	02100513          	li	a0,33
    16c2:	cb2ff0ef          	jal	ra,b74 <ssd1306_cmd>
		ssd1306_cmd(SSD1306_OFFSET);   // Column start address (0 = reset)
    16c6:	4501                	li	a0,0
    16c8:	cacff0ef          	jal	ra,b74 <ssd1306_cmd>
		ssd1306_cmd(SSD1306_OFFSET+SSD1306_W-1); // Column end address (127 = reset)
    16cc:	07f00513          	li	a0,127
    16d0:	ca4ff0ef          	jal	ra,b74 <ssd1306_cmd>
		ssd1306_cmd(SSD1306_PAGEADDR);
    16d4:	02200513          	li	a0,34
    16d8:	c9cff0ef          	jal	ra,b74 <ssd1306_cmd>
		ssd1306_cmd(0); // Page start address (0 = reset)
    16dc:	4501                	li	a0,0
    16de:	c96ff0ef          	jal	ra,b74 <ssd1306_cmd>
		ssd1306_cmd(7); // Page end address
    16e2:	451d                	li	a0,7
    16e4:	c90ff0ef          	jal	ra,b74 <ssd1306_cmd>
				ssd1306_data(&ssd1306_buffer[i], SSD1306_PSZ);
    16e8:	02000593          	li	a1,32
    16ec:	cac18513          	addi	a0,gp,-852 # 200000a8 <ssd1306_buffer>
    16f0:	91fff0ef          	jal	ra,100e <ssd1306_data.isra.0>
			for(i=0;i<sizeof(ssd1306_buffer);i+=SSD1306_PSZ) {
    16f4:	a809                	j	1706 <main+0x568>
			if(ssd1306_cmd(*cmd_list++)) return 1;
    16f6:	0785                	addi	a5,a5,1
    16f8:	faf42823          	sw	a5,-80(s0)
    16fc:	c78ff0ef          	jal	ra,b74 <ssd1306_cmd>
    1700:	fb042783          	lw	a5,-80(s0)
    1704:	d55d                	beqz	a0,16b2 <main+0x514>
	// 	ssd1306_init();
	// 	printf("SSD1306 init.\n\r");
	// }
	
	//# Clear the frame buffer
	memset(frame_buffer, 0, sizeof(frame_buffer));
    1706:	f9818513          	addi	a0,gp,-104 # 20000394 <frame_buffer>
    170a:	40000613          	li	a2,1024
    170e:	4581                	li	a1,0
    1710:	8bdff0ef          	jal	ra,fcc <memset>
	ssd1306_cmd(SSD1306_COLUMNADDR);
    1714:	02100513          	li	a0,33
    1718:	c5cff0ef          	jal	ra,b74 <ssd1306_cmd>
	ssd1306_cmd(start_column);   				// Column start address (0 = reset)
    171c:	4501                	li	a0,0
    171e:	c56ff0ef          	jal	ra,b74 <ssd1306_cmd>
	ssd1306_cmd(end_column); 	// Column end address (127 = reset)
    1722:	07f00513          	li	a0,127
    1726:	c4eff0ef          	jal	ra,b74 <ssd1306_cmd>
	ssd1306_cmd(SSD1306_PAGEADDR);
    172a:	02200513          	li	a0,34
    172e:	c46ff0ef          	jal	ra,b74 <ssd1306_cmd>
	ssd1306_cmd(start_page); 	// Page start address (0 = reset)
    1732:	4501                	li	a0,0
    1734:	c40ff0ef          	jal	ra,b74 <ssd1306_cmd>
	ssd1306_cmd(end_page); 		// Page end address
    1738:	451d                	li	a0,7
    173a:	c3aff0ef          	jal	ra,b74 <ssd1306_cmd>
    173e:	4481                	li	s1,0
            ssd1306_data(&frame_buffer[page][chunk], chunk_end - chunk);
    1740:	f9818793          	addi	a5,gp,-104 # 20000394 <frame_buffer>
		uint8_t *cmd_list = (uint8_t *)ssd1306_init_array;
    1744:	4501                	li	a0,0
    1746:	97a6                	add	a5,a5,s1
    1748:	02050713          	addi	a4,a0,32
    174c:	01071593          	slli	a1,a4,0x10
    1750:	81c1                	srli	a1,a1,0x10
    1752:	8d89                	sub	a1,a1,a0
    1754:	953e                	add	a0,a0,a5
    1756:	fae42423          	sw	a4,-88(s0)
    175a:	faf42823          	sw	a5,-80(s0)
    175e:	8b1ff0ef          	jal	ra,100e <ssd1306_data.isra.0>
        for (uint16_t chunk = 0; chunk < col_end; chunk += CHUNK_SIZE) {
    1762:	fa842703          	lw	a4,-88(s0)
    1766:	fb042783          	lw	a5,-80(s0)
    176a:	853a                	mv	a0,a4
    176c:	08000713          	li	a4,128
    1770:	fce51ce3          	bne	a0,a4,1748 <main+0x5aa>
    for (uint8_t page = 0; page < SSD1306_PAGES; page++) {
    1774:	08048493          	addi	s1,s1,128
    1778:	40000793          	li	a5,1024
    177c:	fcf492e3          	bne	s1,a5,1740 <main+0x5a2>
			sprintf(str_output, "Hello Bee!");
    1780:	6589                	lui	a1,0x2
    1782:	3f458593          	addi	a1,a1,1012 # 23f4 <I2C1_ER_IRQHandler+0xd2>
    1786:	3d018513          	addi	a0,gp,976 # 200007cc <str_output>
    178a:	855ff0ef          	jal	ra,fde <strcpy>
			ssd1306_print_str_at(str_output, 0, 0);
    178e:	4501                	li	a0,0
    1790:	8a9ff0ef          	jal	ra,1038 <ssd1306_print_str_at.constprop.0>
		printf("----Scanning I2C Bus for Devices---\n");
    1794:	6509                	lui	a0,0x2
    1796:	40050513          	addi	a0,a0,1024 # 2400 <I2C1_ER_IRQHandler+0xde>
    179a:	931ff0ef          	jal	ra,10ca <puts>
	for(uint8_t addr = 0x00; addr < 0x7F; addr++)
    179e:	4481                	li	s1,0
		if(i2c_ping(addr) == I2C_OK) callback(addr);
    17a0:	8526                	mv	a0,s1
    17a2:	9f6ff0ef          	jal	ra,998 <i2c_ping>
    17a6:	e501                	bnez	a0,17ae <main+0x610>
    17a8:	8526                	mv	a0,s1
    17aa:	94dff0ef          	jal	ra,10f6 <i2c_scan_callback>
	for(uint8_t addr = 0x00; addr < 0x7F; addr++)
    17ae:	0485                	addi	s1,s1,1
    17b0:	0ff4f493          	andi	s1,s1,255
    17b4:	07f00793          	li	a5,127
    17b8:	fef494e3          	bne	s1,a5,17a0 <main+0x602>
		printf("----Done Scanning----\n\n");
    17bc:	6509                	lui	a0,0x2
    17be:	42450513          	addi	a0,a0,1060 # 2424 <I2C1_ER_IRQHandler+0x102>
    17c2:	909ff0ef          	jal	ra,10ca <puts>
		modI2C_task();
    17c6:	8dbff0ef          	jal	ra,10a0 <modI2C_task>
    17ca:	be35                	j	1306 <main+0x168>
        if (read == 0) {
    17cc:	e38d                	bnez	a5,17ee <main+0x650>
    model->debounce_time = millis();
    17ce:	fb442783          	lw	a5,-76(s0)
    model->release_time = millis();
    17d2:	fb442703          	lw	a4,-76(s0)
    model->btn_state = newState;
    17d6:	fa042823          	sw	zero,-80(s0)
    model->debounce_time = millis();
    17da:	439c                	lw	a5,0(a5)
    model->release_time = millis();
    17dc:	4318                	lw	a4,0(a4)
    17de:	fae42623          	sw	a4,-84(s0)
            model->press_time = now;
    17e2:	fb842703          	lw	a4,-72(s0)
    model->debounce_time = millis();
    17e6:	faf42c23          	sw	a5,-72(s0)
            model->press_time = now;
    17ea:	f8e42623          	sw	a4,-116(s0)
		if (now - sec_time > 1000) {
    17ee:	f9042783          	lw	a5,-112(s0)
    17f2:	3e800713          	li	a4,1000
    17f6:	8f85                	sub	a5,a5,s1
    17f8:	e2f772e3          	bgeu	a4,a5,161c <main+0x47e>
			sec_time = now;

			if (slave_mode != 0) {
    17fc:	f9442783          	lw	a5,-108(s0)
    1800:	cb91                	beqz	a5,1814 <main+0x676>
				modI2C_task(counter++);
    1802:	f9842783          	lw	a5,-104(s0)
    1806:	00178493          	addi	s1,a5,1
    180a:	853e                	mv	a0,a5
    180c:	895ff0ef          	jal	ra,10a0 <modI2C_task>
    1810:	f8942c23          	sw	s1,-104(s0)
	// Increment the milliseconds count
	systick_millis++;
}

uint32_t SysTick_getRunTime(void *handler(void)) {
	uint32_t now = micros();
    1814:	e000f7b7          	lui	a5,0xe000f
    1818:	4788                	lw	a0,8(a5)
    181a:	03000593          	li	a1,48
    str[position] = '\0';  // End of the string.
    181e:	075bd4b7          	lui	s1,0x75bd
    1822:	887fe0ef          	jal	ra,a8 <__hidden___udivsi3>
    1826:	f8a42423          	sw	a0,-120(s0)
    _cursor_x = x + TFT_X_OFFSET;
    182a:	4705                	li	a4,1
}


void ST7735_test2() {
    tft_set_cursor(0, 0);
    tft_print("Hello World!");
    182c:	6509                	lui	a0,0x2
    182e:	cae19023          	sh	a4,-864(gp) # 2000009c <_cursor_x>
    1832:	47850513          	addi	a0,a0,1144 # 2478 <I2C1_ER_IRQHandler+0x156>
    _cursor_y = y + TFT_Y_OFFSET;
    1836:	4769                	li	a4,26
    1838:	cae19123          	sh	a4,-862(gp) # 2000009e <_cursor_y>
    183c:	c3bfe0ef          	jal	ra,476 <tft_print>
    str[position] = '\0';  // End of the string.
    1840:	3c418713          	addi	a4,gp,964 # 200007c0 <str.4>
    1844:	000705a3          	sb	zero,11(a4)
    1848:	3c418693          	addi	a3,gp,964 # 200007c0 <str.4>
    uint8_t     position  = 11;
    184c:	472d                	li	a4,11
    str[position] = '\0';  // End of the string.
    184e:	d1548493          	addi	s1,s1,-747 # 75bcd15 <lib_i2c.c.d894f163+0x75b2c41>
        str[--position] = num % 10 + '0';
    1852:	177d                	addi	a4,a4,-1
    1854:	0ff77713          	andi	a4,a4,255
    1858:	45a9                	li	a1,10
    185a:	8526                	mv	a0,s1
    185c:	fae42223          	sw	a4,-92(s0)
    1860:	fad42423          	sw	a3,-88(s0)
    1864:	895fe0ef          	jal	ra,f8 <__modsi3>
    1868:	fa842683          	lw	a3,-88(s0)
    186c:	03050513          	addi	a0,a0,48
        num /= 10;
    1870:	45a9                	li	a1,10
        str[--position] = num % 10 + '0';
    1872:	00a68523          	sb	a0,10(a3) # ffff100a <_eusrstack+0xdfff080a>
        num /= 10;
    1876:	8526                	mv	a0,s1
    1878:	829fe0ef          	jal	ra,a0 <__divsi3>
    while (num) {
    187c:	fa842683          	lw	a3,-88(s0)
    1880:	fa442703          	lw	a4,-92(s0)
    1884:	4609                	li	a2,2
        num /= 10;
    1886:	84aa                	mv	s1,a0
    while (num) {
    1888:	16fd                	addi	a3,a3,-1
    188a:	3c418793          	addi	a5,gp,964 # 200007c0 <str.4>
    188e:	fcc712e3          	bne	a4,a2,1852 <main+0x6b4>
    tft_print(&str[position]);
    1892:	00278513          	addi	a0,a5,2 # e000f002 <_eusrstack+0xc000e802>
    1896:	be1fe0ef          	jal	ra,476 <tft_print>
    tft_draw_pixel(rand8() % 160, rand8() % 80, colors[rand8() % 19]);
    189a:	a8ffe0ef          	jal	ra,328 <rand8>
    189e:	faa42023          	sw	a0,-96(s0)
    18a2:	a87fe0ef          	jal	ra,328 <rand8>
    18a6:	faa42423          	sw	a0,-88(s0)
    18aa:	a7ffe0ef          	jal	ra,328 <rand8>
    18ae:	6389                	lui	t2,0x2
    18b0:	45cd                	li	a1,19
    18b2:	6c438493          	addi	s1,t2,1732 # 26c4 <colors>
    18b6:	81ffe0ef          	jal	ra,d4 <__umodsi3>
    18ba:	0ff57793          	andi	a5,a0,255
    18be:	0786                	slli	a5,a5,0x1
    18c0:	fa842683          	lw	a3,-88(s0)
    18c4:	97a6                	add	a5,a5,s1
    18c6:	0007d603          	lhu	a2,0(a5)
    18ca:	8536                	mv	a0,a3
    18cc:	05000593          	li	a1,80
    18d0:	fac42223          	sw	a2,-92(s0)
    18d4:	801fe0ef          	jal	ra,d4 <__umodsi3>
    18d8:	fa042703          	lw	a4,-96(s0)
    18dc:	0ff57793          	andi	a5,a0,255
    18e0:	0a000593          	li	a1,160
    18e4:	853a                	mv	a0,a4
    18e6:	faf42423          	sw	a5,-88(s0)
    18ea:	feafe0ef          	jal	ra,d4 <__umodsi3>
    18ee:	fa842783          	lw	a5,-88(s0)
    18f2:	fa442603          	lw	a2,-92(s0)
    18f6:	0ff57513          	andi	a0,a0,255
    18fa:	85be                	mv	a1,a5
    18fc:	cadfe0ef          	jal	ra,5a8 <tft_draw_pixel>
    tft_draw_line(x_idx, 0, x_idx, 80, colors[rand8() % 19], 1);
    1900:	cb418293          	addi	t0,gp,-844 # 200000b0 <x_idx.3>
    1904:	0002c303          	lbu	t1,0(t0)
    1908:	01031613          	slli	a2,t1,0x10
    190c:	8641                	srai	a2,a2,0x10
    190e:	fa642223          	sw	t1,-92(s0)
    1912:	fac42423          	sw	a2,-88(s0)
    1916:	a13fe0ef          	jal	ra,328 <rand8>
    191a:	45cd                	li	a1,19
    191c:	fb8fe0ef          	jal	ra,d4 <__umodsi3>
    1920:	0ff57513          	andi	a0,a0,255
    1924:	0506                	slli	a0,a0,0x1
    1926:	fa842603          	lw	a2,-88(s0)
    192a:	9526                	add	a0,a0,s1
    192c:	00055703          	lhu	a4,0(a0)
    1930:	4785                	li	a5,1
    1932:	05000693          	li	a3,80
    1936:	4581                	li	a1,0
    1938:	8532                	mv	a0,a2
    193a:	d65fe0ef          	jal	ra,69e <tft_draw_line>
    x_idx += 1;
    193e:	fa442303          	lw	t1,-92(s0)
    1942:	6389                	lui	t2,0x2
    1944:	6c438713          	addi	a4,t2,1732 # 26c4 <colors>
    1948:	0305                	addi	t1,t1,1
    194a:	fae42223          	sw	a4,-92(s0)
    194e:	0ff37313          	andi	t1,t1,255
    if (x_idx >= 160) x_idx = 0;
    1952:	09f00793          	li	a5,159
    1956:	cb418293          	addi	t0,gp,-844 # 200000b0 <x_idx.3>
    195a:	2867ea63          	bltu	a5,t1,1bee <main+0xa50>
    x_idx += 1;
    195e:	00628023          	sb	t1,0(t0)
    tft_draw_line(0, y_idx, 180, y_idx, colors[rand8() % 19], 1);
    1962:	cb518313          	addi	t1,gp,-843 # 200000b1 <y_idx.2>
    1966:	00034483          	lbu	s1,0(t1)
    196a:	01049693          	slli	a3,s1,0x10
    196e:	86c1                	srai	a3,a3,0x10
    1970:	fad42423          	sw	a3,-88(s0)
    1974:	9b5fe0ef          	jal	ra,328 <rand8>
    1978:	45cd                	li	a1,19
    197a:	f5afe0ef          	jal	ra,d4 <__umodsi3>
    197e:	fa442783          	lw	a5,-92(s0)
    1982:	0ff57513          	andi	a0,a0,255
    1986:	0506                	slli	a0,a0,0x1
    1988:	953e                	add	a0,a0,a5
    198a:	fa842683          	lw	a3,-88(s0)
    198e:	00055703          	lhu	a4,0(a0)
    1992:	4785                	li	a5,1
    1994:	0b400613          	li	a2,180
    1998:	85b6                	mv	a1,a3
    199a:	4501                	li	a0,0
    199c:	d03fe0ef          	jal	ra,69e <tft_draw_line>
    y_idx += 1;
    19a0:	0485                	addi	s1,s1,1
    19a2:	0ff4f493          	andi	s1,s1,255
    if (y_idx >= 80) y_idx = 0;
    19a6:	04f00793          	li	a5,79
    19aa:	cb518313          	addi	t1,gp,-843 # 200000b1 <y_idx.2>
    19ae:	2497e363          	bltu	a5,s1,1bf4 <main+0xa56>
    y_idx += 1;
    19b2:	00930023          	sb	s1,0(t1)
    tft_draw_line(0, 0, 70, 70, RED, 5);
    19b6:	6741                	lui	a4,0x10
    19b8:	04600613          	li	a2,70
    19bc:	4795                	li	a5,5
    19be:	80070713          	addi	a4,a4,-2048 # f800 <lib_i2c.c.d894f163+0x572c>
    19c2:	04600693          	li	a3,70
    19c6:	4581                	li	a1,0
    19c8:	4501                	li	a0,0
    19ca:	cd5fe0ef          	jal	ra,69e <tft_draw_line>
    tft_draw_line(rand8() % 160, rand8() % 80, rand8() % 160, rand8() % 80, colors[rand8() % 19], 1);
    19ce:	95bfe0ef          	jal	ra,328 <rand8>
    19d2:	f8a42023          	sw	a0,-128(s0)
    19d6:	953fe0ef          	jal	ra,328 <rand8>
    19da:	84aa                	mv	s1,a0
    19dc:	94dfe0ef          	jal	ra,328 <rand8>
    19e0:	f8a42223          	sw	a0,-124(s0)
    19e4:	945fe0ef          	jal	ra,328 <rand8>
    19e8:	faa42423          	sw	a0,-88(s0)
    19ec:	93dfe0ef          	jal	ra,328 <rand8>
    19f0:	45cd                	li	a1,19
    19f2:	ee2fe0ef          	jal	ra,d4 <__umodsi3>
    19f6:	fa442703          	lw	a4,-92(s0)
    19fa:	0ff57793          	andi	a5,a0,255
    19fe:	0786                	slli	a5,a5,0x1
    1a00:	97ba                	add	a5,a5,a4
    1a02:	fa842683          	lw	a3,-88(s0)
    1a06:	0007d703          	lhu	a4,0(a5)
    1a0a:	05000593          	li	a1,80
    1a0e:	8536                	mv	a0,a3
    1a10:	f8e42e23          	sw	a4,-100(s0)
    1a14:	ec0fe0ef          	jal	ra,d4 <__umodsi3>
    1a18:	f8442603          	lw	a2,-124(s0)
    1a1c:	0ff57693          	andi	a3,a0,255
    1a20:	0a000593          	li	a1,160
    1a24:	8532                	mv	a0,a2
    1a26:	fad42023          	sw	a3,-96(s0)
    1a2a:	eaafe0ef          	jal	ra,d4 <__umodsi3>
    1a2e:	0ff57613          	andi	a2,a0,255
    1a32:	05000593          	li	a1,80
    1a36:	8526                	mv	a0,s1
    1a38:	fac42423          	sw	a2,-88(s0)
    1a3c:	e98fe0ef          	jal	ra,d4 <__umodsi3>
    1a40:	f8042303          	lw	t1,-128(s0)
    1a44:	0ff57493          	andi	s1,a0,255
    1a48:	0a000593          	li	a1,160
    1a4c:	851a                	mv	a0,t1
    1a4e:	e86fe0ef          	jal	ra,d4 <__umodsi3>
    1a52:	f9c42703          	lw	a4,-100(s0)
    1a56:	fa042683          	lw	a3,-96(s0)
    1a5a:	fa842603          	lw	a2,-88(s0)
    1a5e:	4785                	li	a5,1
    1a60:	85a6                	mv	a1,s1
    1a62:	0ff57513          	andi	a0,a0,255
    1a66:	c39fe0ef          	jal	ra,69e <tft_draw_line>
    Point16_t triangle[] = {{10, 20}, {40, 60}, {80, 70}};
    1a6a:	001407b7          	lui	a5,0x140
    1a6e:	07a9                	addi	a5,a5,10
    1a70:	faf42e23          	sw	a5,-68(s0)
    1a74:	003c07b7          	lui	a5,0x3c0
    1a78:	02878793          	addi	a5,a5,40 # 3c0028 <lib_i2c.c.d894f163+0x3b5f54>
    1a7c:	fcf42023          	sw	a5,-64(s0)
    1a80:	004607b7          	lui	a5,0x460
    1a84:	05078793          	addi	a5,a5,80 # 460050 <lib_i2c.c.d894f163+0x455f7c>
    1a88:	fcf42223          	sw	a5,-60(s0)
    tft_draw_solid_poly2(triangle, 3, RED, WHITE, 2);
    1a8c:	fbc40793          	addi	a5,s0,-68
        int16_t y_min, y_max;
        int32_t x_step;  // Fixed-point slope (dx/dy)
        int32_t x_curr;  // Fixed-point current x
    } EdgeInfo;
    
    EdgeInfo edges[num_vertices];
    1a90:	f8242223          	sw	sp,-124(s0)
    1a94:	faf42423          	sw	a5,-88(s0)
    1a98:	fdc10113          	addi	sp,sp,-36
    1a9c:	84be                	mv	s1,a5
    1a9e:	4785                	li	a5,1
    1aa0:	f8242e23          	sw	sp,-100(s0)
    1aa4:	faf42023          	sw	a5,-96(s0)
    uint8_t valid_edges = 0;
    1aa8:	4301                	li	t1,0
    
    for (uint16_t i = 0; i < num_vertices; i++) {
        const Point16_t* p0 = &vertices[i];
        const Point16_t* p1 = &vertices[(i + 1) % num_vertices];
    1aaa:	fa042503          	lw	a0,-96(s0)
    1aae:	458d                	li	a1,3
    1ab0:	f8642023          	sw	t1,-128(s0)
    1ab4:	e44fe0ef          	jal	ra,f8 <__modsi3>
    1ab8:	00251593          	slli	a1,a0,0x2
    1abc:	fbc40793          	addi	a5,s0,-68
    1ac0:	95be                	add	a1,a1,a5
        
        if (p0->y == p1->y) continue; // Skip horizontal edges
    1ac2:	00249683          	lh	a3,2(s1)
    1ac6:	00259703          	lh	a4,2(a1)
    1aca:	f8042303          	lw	t1,-128(s0)
    1ace:	06e68863          	beq	a3,a4,1b3e <main+0x9a0>
    1ad2:	00049503          	lh	a0,0(s1)
    1ad6:	00059583          	lh	a1,0(a1)
    1ada:	00131793          	slli	a5,t1,0x1
        
        // Order vertices top to bottom
        int16_t y_min, y_max, x_start;
        if (p0->y < p1->y) {
    1ade:	10e6de63          	bge	a3,a4,1bfa <main+0xa5c>
    1ae2:	f9c42603          	lw	a2,-100(s0)
    1ae6:	979a                	add	a5,a5,t1
    1ae8:	078a                	slli	a5,a5,0x2
    1aea:	97b2                	add	a5,a5,a2
            y_min = p0->y;
            y_max = p1->y;
            x_start = p0->x;
            edges[valid_edges].x_curr = x_start << 16; // Fixed-point init
    1aec:	01051613          	slli	a2,a0,0x10
            edges[valid_edges].x_step = ((int32_t)(p1->x - p0->x) << 16) / (p1->y - p0->y);
    1af0:	40a58533          	sub	a0,a1,a0
            edges[valid_edges].x_curr = x_start << 16; // Fixed-point init
    1af4:	c790                	sw	a2,8(a5)
            edges[valid_edges].x_step = ((int32_t)(p1->x - p0->x) << 16) / (p1->y - p0->y);
    1af6:	40d705b3          	sub	a1,a4,a3
    1afa:	0542                	slli	a0,a0,0x10
    1afc:	f6642a23          	sw	t1,-140(s0)
            edges[valid_edges].x_curr = x_start << 16; // Fixed-point init
    1b00:	f6f42c23          	sw	a5,-136(s0)
            edges[valid_edges].x_step = ((int32_t)(p1->x - p0->x) << 16) / (p1->y - p0->y);
    1b04:	f6d42e23          	sw	a3,-132(s0)
    1b08:	f8e42023          	sw	a4,-128(s0)
    1b0c:	d94fe0ef          	jal	ra,a0 <__divsi3>
    1b10:	f7842783          	lw	a5,-136(s0)
    1b14:	f8042703          	lw	a4,-128(s0)
    1b18:	f7c42683          	lw	a3,-132(s0)
    1b1c:	f7442303          	lw	t1,-140(s0)
    1b20:	c3c8                	sw	a0,4(a5)
    1b22:	00131793          	slli	a5,t1,0x1
    1b26:	f9c42603          	lw	a2,-100(s0)
    1b2a:	979a                	add	a5,a5,t1
    1b2c:	078a                	slli	a5,a5,0x2
    1b2e:	97b2                	add	a5,a5,a2
            edges[valid_edges].x_step = ((int32_t)(p0->x - p1->x) << 16) / (p0->y - p1->y);
        }
        
        edges[valid_edges].y_min = y_min;
        edges[valid_edges].y_max = y_max;
        valid_edges++;
    1b30:	0305                	addi	t1,t1,1
        edges[valid_edges].y_min = y_min;
    1b32:	00d79023          	sh	a3,0(a5)
        edges[valid_edges].y_max = y_max;
    1b36:	00e79123          	sh	a4,2(a5)
        valid_edges++;
    1b3a:	0ff37313          	andi	t1,t1,255
    for (uint16_t i = 0; i < num_vertices; i++) {
    1b3e:	fa042783          	lw	a5,-96(s0)
    1b42:	4711                	li	a4,4
    1b44:	0491                	addi	s1,s1,4
    1b46:	0785                	addi	a5,a5,1
    1b48:	faf42023          	sw	a5,-96(s0)
    1b4c:	f4e79fe3          	bne	a5,a4,1aaa <main+0x90c>
    1b50:	46d1                	li	a3,20
    1b52:	f9c42783          	lw	a5,-100(s0)
    for (int16_t y = min_y; y <= max_y; y++) {
        int16_t intersections[20];
        uint8_t num_intersections = 0;

        // Find active edges
        for (uint8_t i = 0; i < valid_edges; i++) {
    1b56:	4701                	li	a4,0
        uint8_t num_intersections = 0;
    1b58:	4481                	li	s1,0
            if (y >= edges[i].y_min && y < edges[i].y_max) {
                // Calculate x intersection (with rounding)
                intersections[num_intersections++] = (edges[i].x_curr + (1 << 15)) >> 16;
    1b5a:	65a1                	lui	a1,0x8
    1b5c:	a205                	j	1c7c <main+0xade>
            _reset_timers(BTN_UP, model);        // First Release

        } else {
            // Long press detection
            uint32_t press_duration = now - model->press_time;
    1b5e:	fb842783          	lw	a5,-72(s0)
    1b62:	f8c42703          	lw	a4,-116(s0)
    1b66:	40e78733          	sub	a4,a5,a4
            if (press_duration > TICK_LONG_PRESS_DUR) {
    1b6a:	6785                	lui	a5,0x1
    1b6c:	fa078793          	addi	a5,a5,-96 # fa0 <mini_vsnprintf+0x26>
    1b70:	c6e7ffe3          	bgeu	a5,a4,17ee <main+0x650>
			printf("Long Press\n"); break;
    1b74:	6509                	lui	a0,0x2
    1b76:	44c50513          	addi	a0,a0,1100 # 244c <I2C1_ER_IRQHandler+0x12a>
    1b7a:	d50ff0ef          	jal	ra,10ca <puts>
    1b7e:	b985                	j	17ee <main+0x650>
            }
        }
        break;

    case BTN_UP: {
        uint32_t release_duration = now - model->release_time;
    1b80:	fb842703          	lw	a4,-72(s0)
    1b84:	fac42683          	lw	a3,-84(s0)
    1b88:	8f15                	sub	a4,a4,a3

        if (read == 0 && release_duration < TICK_CLICK_DUR) {
    1b8a:	e38d                	bnez	a5,1bac <main+0xa0e>
    1b8c:	09f00793          	li	a5,159
    1b90:	00e7ee63          	bltu	a5,a4,1bac <main+0xa0e>
    model->debounce_time = millis();
    1b94:	fb442783          	lw	a5,-76(s0)
    1b98:	439c                	lw	a5,0(a5)
    1b9a:	faf42c23          	sw	a5,-72(s0)
    model->release_time = millis();
    1b9e:	fb442783          	lw	a5,-76(s0)
    1ba2:	439c                	lw	a5,0(a5)
    1ba4:	faf42623          	sw	a5,-84(s0)
    model->btn_state = newState;
    1ba8:	4789                	li	a5,2
    1baa:	bcc1                	j	167a <main+0x4dc>
            // Second Press in less than TICK_CLICK_DUR
            _reset_timers(BTN_DOWN2, model);

        } else if (release_duration > TICK_CLICK_DUR) {
    1bac:	4685                	li	a3,1
    1bae:	0a000793          	li	a5,160
    1bb2:	fad42823          	sw	a3,-80(s0)
    1bb6:	c2e7fce3          	bgeu	a5,a4,17ee <main+0x650>
			printf("Single Click\n");
    1bba:	6509                	lui	a0,0x2
    1bbc:	45850513          	addi	a0,a0,1112 # 2458 <I2C1_ER_IRQHandler+0x136>
			printf("Double Click\n");
    1bc0:	d0aff0ef          	jal	ra,10ca <puts>
    model->debounce_time = millis();
    1bc4:	fb442783          	lw	a5,-76(s0)
    1bc8:	439c                	lw	a5,0(a5)
    1bca:	faf42c23          	sw	a5,-72(s0)
    model->release_time = millis();
    1bce:	fb442783          	lw	a5,-76(s0)
    1bd2:	439c                	lw	a5,0(a5)
    1bd4:	faf42623          	sw	a5,-84(s0)
    model->btn_state = newState;
    1bd8:	478d                	li	a5,3
    1bda:	b445                	j	167a <main+0x4dc>
        break;
    }

    case BTN_DOWN2:
        // Second release
        if (read > 0) {
    1bdc:	c00789e3          	beqz	a5,17ee <main+0x650>
    1be0:	6789                	lui	a5,0x2
    1be2:	46878513          	addi	a0,a5,1128 # 2468 <I2C1_ER_IRQHandler+0x146>
    1be6:	bfe9                	j	1bc0 <main+0xa22>
    if (now - model->debounce_time < TICK_DEBOUNCE_DUR) return;
    1be8:	fae42c23          	sw	a4,-72(s0)
    1bec:	b109                	j	17ee <main+0x650>
    if (x_idx >= 160) x_idx = 0;
    1bee:	00028023          	sb	zero,0(t0)
    1bf2:	bb85                	j	1962 <main+0x7c4>
    if (y_idx >= 80) y_idx = 0;
    1bf4:	00030023          	sb	zero,0(t1)
    1bf8:	bb7d                	j	19b6 <main+0x818>
    1bfa:	f9c42603          	lw	a2,-100(s0)
    1bfe:	979a                	add	a5,a5,t1
    1c00:	078a                	slli	a5,a5,0x2
    1c02:	97b2                	add	a5,a5,a2
            edges[valid_edges].x_curr = x_start << 16;
    1c04:	01059293          	slli	t0,a1,0x10
            edges[valid_edges].x_step = ((int32_t)(p0->x - p1->x) << 16) / (p0->y - p1->y);
    1c08:	8d0d                	sub	a0,a0,a1
            edges[valid_edges].x_curr = x_start << 16;
    1c0a:	0057a423          	sw	t0,8(a5)
            edges[valid_edges].x_step = ((int32_t)(p0->x - p1->x) << 16) / (p0->y - p1->y);
    1c0e:	40e685b3          	sub	a1,a3,a4
    1c12:	0542                	slli	a0,a0,0x10
    1c14:	f6d42a23          	sw	a3,-140(s0)
    1c18:	f6642c23          	sw	t1,-136(s0)
            edges[valid_edges].x_curr = x_start << 16;
    1c1c:	f6f42e23          	sw	a5,-132(s0)
            edges[valid_edges].x_step = ((int32_t)(p0->x - p1->x) << 16) / (p0->y - p1->y);
    1c20:	f8e42023          	sw	a4,-128(s0)
    1c24:	c7cfe0ef          	jal	ra,a0 <__divsi3>
    1c28:	f8042703          	lw	a4,-128(s0)
    1c2c:	f7c42783          	lw	a5,-132(s0)
    1c30:	f7442603          	lw	a2,-140(s0)
    1c34:	86ba                	mv	a3,a4
    1c36:	f7842303          	lw	t1,-136(s0)
    1c3a:	c3c8                	sw	a0,4(a5)
    1c3c:	8732                	mv	a4,a2
    1c3e:	b5d5                	j	1b22 <main+0x984>
            if (y >= edges[i].y_min && y < edges[i].y_max) {
    1c40:	00079603          	lh	a2,0(a5)
    1c44:	02c6c863          	blt	a3,a2,1c74 <main+0xad6>
    1c48:	00279603          	lh	a2,2(a5)
    1c4c:	02c6d463          	bge	a3,a2,1c74 <main+0xad6>
                intersections[num_intersections++] = (edges[i].x_curr + (1 << 15)) >> 16;
    1c50:	0087a283          	lw	t0,8(a5)
    1c54:	00148513          	addi	a0,s1,1
    1c58:	ff440613          	addi	a2,s0,-12
    1c5c:	0486                	slli	s1,s1,0x1
    1c5e:	94b2                	add	s1,s1,a2
    1c60:	00b28633          	add	a2,t0,a1
    1c64:	8641                	srai	a2,a2,0x10
    1c66:	fcc49c23          	sh	a2,-40(s1)
                // Update x for next scanline
                edges[i].x_curr += edges[i].x_step;
    1c6a:	43d0                	lw	a2,4(a5)
                intersections[num_intersections++] = (edges[i].x_curr + (1 << 15)) >> 16;
    1c6c:	0ff57493          	andi	s1,a0,255
                edges[i].x_curr += edges[i].x_step;
    1c70:	9616                	add	a2,a2,t0
    1c72:	c790                	sw	a2,8(a5)
        for (uint8_t i = 0; i < valid_edges; i++) {
    1c74:	0705                	addi	a4,a4,1
    1c76:	0ff77713          	andi	a4,a4,255
    1c7a:	07b1                	addi	a5,a5,12
    1c7c:	fc6712e3          	bne	a4,t1,1c40 <main+0xaa2>
    1c80:	fcc40293          	addi	t0,s0,-52
    1c84:	8616                	mv	a2,t0
            }
        }

        // Insertion sort (from previous optimization)
        for (uint8_t i = 1; i < num_intersections; i++) {
    1c86:	4705                	li	a4,1
            int16_t key = intersections[i];
            int8_t j = i - 1;
            while (j >= 0 && intersections[j] > key) {
    1c88:	50fd                	li	ra,-1
        for (uint8_t i = 1; i < num_intersections; i++) {
    1c8a:	1c976263          	bltu	a4,s1,1e4e <main+0xcb0>
    1c8e:	00148393          	addi	t2,s1,1
    1c92:	0386                	slli	t2,t2,0x1
    1c94:	8085                	srli	s1,s1,0x1
    1c96:	1fc3f393          	andi	t2,t2,508
    1c9a:	048a                	slli	s1,s1,0x2
    1c9c:	9396                	add	t2,t2,t0
    1c9e:	9496                	add	s1,s1,t0
            }
            intersections[j + 1] = key;
        }

        // Fill between pairs
        for (uint8_t i = 0; i < num_intersections; i += 2) {
    1ca0:	1e539863          	bne	t2,t0,1e90 <main+0xcf2>
    1ca4:	0685                	addi	a3,a3,1
    1ca6:	01069713          	slli	a4,a3,0x10
    1caa:	8341                	srli	a4,a4,0x10
    1cac:	06c2                	slli	a3,a3,0x10
    for (int16_t y = min_y; y <= max_y; y++) {
    1cae:	04700793          	li	a5,71
    1cb2:	86c1                	srai	a3,a3,0x10
    1cb4:	e8f71fe3          	bne	a4,a5,1b52 <main+0x9b4>
    1cb8:	4485                	li	s1,1
        Point16_t p1 = vertices[(i + 1) % num_vertices]; // Wrap around to connect last vertex to first
    1cba:	458d                	li	a1,3
    1cbc:	8526                	mv	a0,s1
    1cbe:	c3afe0ef          	jal	ra,f8 <__modsi3>
    1cc2:	fbc40793          	addi	a5,s0,-68
    1cc6:	050a                	slli	a0,a0,0x2
    1cc8:	953e                	add	a0,a0,a5
        tft_draw_line(p0.x, p0.y, p1.x, p1.y, color, width); // Draw edge with specified width
    1cca:	00251683          	lh	a3,2(a0)
    1cce:	00051603          	lh	a2,0(a0)
    1cd2:	fa842583          	lw	a1,-88(s0)
    1cd6:	fa842503          	lw	a0,-88(s0)
    1cda:	6741                	lui	a4,0x10
    1cdc:	00259583          	lh	a1,2(a1) # 8002 <ch32_mess.c.a966e287+0x39d3>
    1ce0:	00051503          	lh	a0,0(a0)
    1ce4:	4789                	li	a5,2
    1ce6:	177d                	addi	a4,a4,-1
    1ce8:	9b7fe0ef          	jal	ra,69e <tft_draw_line>
    for (uint16_t i = 0; i < num_vertices; i++) {
    1cec:	fa842783          	lw	a5,-88(s0)
    1cf0:	0485                	addi	s1,s1,1
    1cf2:	0791                	addi	a5,a5,4
    1cf4:	faf42423          	sw	a5,-88(s0)
    1cf8:	4791                	li	a5,4
    1cfa:	fcf490e3          	bne	s1,a5,1cba <main+0xb1c>
    tft_line_tests();


    // draw rectangles
    static uint8_t rect_idx = 0;
    tft_draw_rect(rect_idx, rect_idx, 160 - (rect_idx << 1), 80 - (rect_idx << 1), colors[rand8() % 19]);
    1cfe:	ca818793          	addi	a5,gp,-856 # 200000a4 <rect_idx.1>
    1d02:	0007c483          	lbu	s1,0(a5)
    1d06:	f8442103          	lw	sp,-124(s0)
    1d0a:	01049313          	slli	t1,s1,0x10
    1d0e:	00149713          	slli	a4,s1,0x1
    1d12:	01035313          	srli	t1,t1,0x10
    1d16:	fa642023          	sw	t1,-96(s0)
    1d1a:	fae42423          	sw	a4,-88(s0)
    1d1e:	e0afe0ef          	jal	ra,328 <rand8>
    1d22:	45cd                	li	a1,19
    1d24:	bb0fe0ef          	jal	ra,d4 <__umodsi3>
    1d28:	fa442783          	lw	a5,-92(s0)
    1d2c:	fa842703          	lw	a4,-88(s0)
    1d30:	0ff57513          	andi	a0,a0,255
    1d34:	0506                	slli	a0,a0,0x1
    1d36:	953e                	add	a0,a0,a5
    1d38:	fa042303          	lw	t1,-96(s0)
    1d3c:	05000693          	li	a3,80
    1d40:	0a000613          	li	a2,160
    1d44:	8e99                	sub	a3,a3,a4
    1d46:	8e19                	sub	a2,a2,a4
    1d48:	00055703          	lhu	a4,0(a0)
    1d4c:	06c2                	slli	a3,a3,0x10
    1d4e:	0642                	slli	a2,a2,0x10
    1d50:	82c1                	srli	a3,a3,0x10
    1d52:	8241                	srli	a2,a2,0x10
    1d54:	859a                	mv	a1,t1
    1d56:	851a                	mv	a0,t1
    1d58:	ad3fe0ef          	jal	ra,82a <tft_draw_rect>
    rect_idx += 1;
    1d5c:	0485                	addi	s1,s1,1
    1d5e:	0ff4f493          	andi	s1,s1,255
    if (rect_idx >= 40) rect_idx = 0;
    1d62:	02700713          	li	a4,39
    1d66:	ca818793          	addi	a5,gp,-856 # 200000a4 <rect_idx.1>
    1d6a:	16976463          	bltu	a4,s1,1ed2 <main+0xd34>
    rect_idx += 1;
    1d6e:	00978023          	sb	s1,0(a5)

    // draw random rectangles
    tft_draw_rect(rand8() % 140, rand8() % 60, 20, 20, colors[rand8() % 19]);
    1d72:	db6fe0ef          	jal	ra,328 <rand8>
    1d76:	faa42023          	sw	a0,-96(s0)
    1d7a:	daefe0ef          	jal	ra,328 <rand8>
    1d7e:	84aa                	mv	s1,a0
    1d80:	da8fe0ef          	jal	ra,328 <rand8>
    1d84:	45cd                	li	a1,19
    1d86:	b4efe0ef          	jal	ra,d4 <__umodsi3>
    1d8a:	fa442703          	lw	a4,-92(s0)
    1d8e:	0ff57793          	andi	a5,a0,255
    1d92:	0786                	slli	a5,a5,0x1
    1d94:	97ba                	add	a5,a5,a4
    1d96:	0007d703          	lhu	a4,0(a5)
    1d9a:	03c00593          	li	a1,60
    1d9e:	8526                	mv	a0,s1
    1da0:	fae42423          	sw	a4,-88(s0)
    1da4:	b30fe0ef          	jal	ra,d4 <__umodsi3>
    1da8:	fa042683          	lw	a3,-96(s0)
    1dac:	0ff57493          	andi	s1,a0,255
    1db0:	08c00593          	li	a1,140
    1db4:	8536                	mv	a0,a3
    1db6:	b1efe0ef          	jal	ra,d4 <__umodsi3>
    1dba:	fa842703          	lw	a4,-88(s0)
    1dbe:	4651                	li	a2,20
    1dc0:	46d1                	li	a3,20
    1dc2:	85a6                	mv	a1,s1
    1dc4:	0ff57513          	andi	a0,a0,255
    1dc8:	a63fe0ef          	jal	ra,82a <tft_draw_rect>

    // draw filled rectangles
    tft_fill_rect(rand8() % 140, rand8() % 60, 20, 20, colors[rand8() % 19]);
    1dcc:	d5cfe0ef          	jal	ra,328 <rand8>
    1dd0:	faa42023          	sw	a0,-96(s0)
    1dd4:	d54fe0ef          	jal	ra,328 <rand8>
    1dd8:	84aa                	mv	s1,a0
    1dda:	d4efe0ef          	jal	ra,328 <rand8>
    1dde:	45cd                	li	a1,19
    1de0:	af4fe0ef          	jal	ra,d4 <__umodsi3>
    1de4:	fa442703          	lw	a4,-92(s0)
    1de8:	0ff57793          	andi	a5,a0,255
    1dec:	0786                	slli	a5,a5,0x1
    1dee:	97ba                	add	a5,a5,a4
    1df0:	0007d703          	lhu	a4,0(a5)
    1df4:	03c00593          	li	a1,60
    1df8:	8526                	mv	a0,s1
    1dfa:	fae42423          	sw	a4,-88(s0)
    1dfe:	ad6fe0ef          	jal	ra,d4 <__umodsi3>
    1e02:	fa042683          	lw	a3,-96(s0)
    1e06:	0ff57493          	andi	s1,a0,255
    1e0a:	08c00593          	li	a1,140
    1e0e:	8536                	mv	a0,a3
    1e10:	ac4fe0ef          	jal	ra,d4 <__umodsi3>
    1e14:	fa842703          	lw	a4,-88(s0)
    1e18:	46d1                	li	a3,20
    1e1a:	4651                	li	a2,20
    1e1c:	85a6                	mv	a1,s1
    1e1e:	0ff57513          	andi	a0,a0,255
    1e22:	f24fe0ef          	jal	ra,546 <tft_fill_rect>
	handler();
	return micros() - now;
    1e26:	e000f7b7          	lui	a5,0xe000f
    1e2a:	4788                	lw	a0,8(a5)
    1e2c:	03000593          	li	a1,48
    1e30:	a78fe0ef          	jal	ra,a8 <__hidden___udivsi3>
			// uint32_t runtime_i2c = SysTick_getRunTime(ssd1306_draw_test);
			// sprintf(str_output, "I2C runtime: %lu us", runtime_i2c);
			// ssd1306_print_str_at(str_output, 0, 0);

			uint32_t runtime_tft = SysTick_getRunTime(ST7735_test2);
			printf("ST7735 runtime: %lu us\n", runtime_tft);
    1e34:	f8842783          	lw	a5,-120(s0)
    1e38:	40f505b3          	sub	a1,a0,a5
    1e3c:	6509                	lui	a0,0x2
    1e3e:	48850513          	addi	a0,a0,1160 # 2488 <I2C1_ER_IRQHandler+0x166>
    1e42:	900ff0ef          	jal	ra,f42 <printf>
		uint32_t now = millis();
    1e46:	f9042483          	lw	s1,-112(s0)
    1e4a:	fd2ff06f          	j	161c <main+0x47e>
    1e4e:	fff70793          	addi	a5,a4,-1 # ffff <lib_i2c.c.d894f163+0x5f2b>
            int16_t key = intersections[i];
    1e52:	00261503          	lh	a0,2(a2)
    1e56:	07e2                	slli	a5,a5,0x18
    1e58:	87e1                	srai	a5,a5,0x18
    1e5a:	85b2                	mv	a1,a2
            while (j >= 0 && intersections[j] > key) {
    1e5c:	00059383          	lh	t2,0(a1)
    1e60:	00755a63          	bge	a0,t2,1e74 <main+0xcd6>
    1e64:	17fd                	addi	a5,a5,-1
    1e66:	07e2                	slli	a5,a5,0x18
                intersections[j + 1] = intersections[j];
    1e68:	00759123          	sh	t2,2(a1)
    1e6c:	87e1                	srai	a5,a5,0x18
            while (j >= 0 && intersections[j] > key) {
    1e6e:	15f9                	addi	a1,a1,-2
    1e70:	fe1796e3          	bne	a5,ra,1e5c <main+0xcbe>
            intersections[j + 1] = key;
    1e74:	0785                	addi	a5,a5,1
    1e76:	07e2                	slli	a5,a5,0x18
    1e78:	87e1                	srai	a5,a5,0x18
    1e7a:	0786                	slli	a5,a5,0x1
    1e7c:	ff440593          	addi	a1,s0,-12
    1e80:	97ae                	add	a5,a5,a1
        for (uint8_t i = 1; i < num_intersections; i++) {
    1e82:	0705                	addi	a4,a4,1
            intersections[j + 1] = key;
    1e84:	fca79c23          	sh	a0,-40(a5) # e000efd8 <_eusrstack+0xc000e7d8>
        for (uint8_t i = 1; i < num_intersections; i++) {
    1e88:	0ff77713          	andi	a4,a4,255
    1e8c:	0609                	addi	a2,a2,2
    1e8e:	bbf5                	j	1c8a <main+0xaec>
            if (i + 1 >= num_intersections) break;
    1e90:	e0548ae3          	beq	s1,t0,1ca4 <main+0xb06>
            int16_t x0 = intersections[i];
    1e94:	00029503          	lh	a0,0(t0)
            int16_t x1 = intersections[i + 1];
    1e98:	00229603          	lh	a2,2(t0)
            if (x1 > x0) {
    1e9c:	02c55963          	bge	a0,a2,1ece <main+0xd30>
                tft_draw_line(x0, y, x1, y, fill_color, 1);
    1ea0:	6741                	lui	a4,0x10
    1ea2:	85b6                	mv	a1,a3
    1ea4:	4785                	li	a5,1
    1ea6:	80070713          	addi	a4,a4,-2048 # f800 <lib_i2c.c.d894f163+0x572c>
    1eaa:	f6742c23          	sw	t2,-136(s0)
    1eae:	f6642e23          	sw	t1,-132(s0)
    1eb2:	f8542023          	sw	t0,-128(s0)
    1eb6:	fad42023          	sw	a3,-96(s0)
    1eba:	fe4fe0ef          	jal	ra,69e <tft_draw_line>
    1ebe:	f7842383          	lw	t2,-136(s0)
    1ec2:	f7c42303          	lw	t1,-132(s0)
    1ec6:	f8042283          	lw	t0,-128(s0)
    1eca:	fa042683          	lw	a3,-96(s0)
    1ece:	0291                	addi	t0,t0,4
    1ed0:	bbc1                	j	1ca0 <main+0xb02>
    if (rect_idx >= 40) rect_idx = 0;
    1ed2:	00078023          	sb	zero,0(a5)
    1ed6:	bd71                	j	1d72 <main+0xbd4>

00001ed8 <TweenHexColors>:
	return ret;
*/
}

static uint32_t TweenHexColors( uint32_t hexa, uint32_t hexb, int tween )
{
    1ed8:	fdc10113          	addi	sp,sp,-36
    1edc:	ce22                	sw	s0,28(sp)
    1ede:	d006                	sw	ra,32(sp)
    1ee0:	cc26                	sw	s1,24(sp)
    1ee2:	842a                	mv	s0,a0
	if( tween <= 0 ) return hexa;
    1ee4:	0ac05f63          	blez	a2,1fa2 <TweenHexColors+0xca>
	if( tween >= 255 ) return hexb;
    1ee8:	0fe00793          	li	a5,254
    1eec:	84ae                	mv	s1,a1
    1eee:	0cc7c163          	blt	a5,a2,1fb0 <TweenHexColors+0xd8>
	int32_t aamt = 255-tween;
    1ef2:	0ff00293          	li	t0,255
    1ef6:	40c282b3          	sub	t0,t0,a2
	int32_t har = (hexa>>8) & 0xff;
	int32_t hag = (hexa>>16) & 0xff;
	int32_t hbb = hexb & 0xff;
	int32_t hbr = (hexb>>8) & 0xff;
	int32_t hbg = (hexb>>16) & 0xff;
	int32_t b = (FastMultiply( hab, aamt ) + FastMultiply( hbb, bamt ) + 128) >> 8;
    1efa:	8596                	mv	a1,t0
    1efc:	0ff57513          	andi	a0,a0,255
    1f00:	c216                	sw	t0,4(sp)
	int32_t aamt = 255-tween;
    1f02:	c032                	sw	a2,0(sp)
	int32_t b = (FastMultiply( hab, aamt ) + FastMultiply( hbb, bamt ) + 128) >> 8;
    1f04:	1fffe097          	auipc	ra,0x1fffe
    1f08:	144080e7          	jalr	324(ra) # 20000048 <FastMultiply>
    1f0c:	4602                	lw	a2,0(sp)
    1f0e:	ca2a                	sw	a0,20(sp)
    1f10:	0ff4f513          	andi	a0,s1,255
    1f14:	85b2                	mv	a1,a2
    1f16:	1fffe097          	auipc	ra,0x1fffe
    1f1a:	132080e7          	jalr	306(ra) # 20000048 <FastMultiply>
	int32_t r = (FastMultiply( har, aamt ) + FastMultiply( hbr, bamt ) + 128) >> 8;
    1f1e:	4292                	lw	t0,4(sp)
	int32_t b = (FastMultiply( hab, aamt ) + FastMultiply( hbb, bamt ) + 128) >> 8;
    1f20:	c82a                	sw	a0,16(sp)
	int32_t har = (hexa>>8) & 0xff;
    1f22:	00845513          	srli	a0,s0,0x8
	int32_t r = (FastMultiply( har, aamt ) + FastMultiply( hbr, bamt ) + 128) >> 8;
    1f26:	8596                	mv	a1,t0
    1f28:	0ff57513          	andi	a0,a0,255
    1f2c:	c616                	sw	t0,12(sp)
    1f2e:	1fffe097          	auipc	ra,0x1fffe
    1f32:	11a080e7          	jalr	282(ra) # 20000048 <FastMultiply>
    1f36:	4602                	lw	a2,0(sp)
    1f38:	c42a                	sw	a0,8(sp)
	int32_t hbr = (hexb>>8) & 0xff;
    1f3a:	0084d513          	srli	a0,s1,0x8
	int32_t r = (FastMultiply( har, aamt ) + FastMultiply( hbr, bamt ) + 128) >> 8;
    1f3e:	85b2                	mv	a1,a2
    1f40:	0ff57513          	andi	a0,a0,255
    1f44:	c232                	sw	a2,4(sp)
    1f46:	1fffe097          	auipc	ra,0x1fffe
    1f4a:	102080e7          	jalr	258(ra) # 20000048 <FastMultiply>
	int32_t g = (FastMultiply( hag, aamt ) + FastMultiply( hbg, bamt ) + 128) >> 8;
    1f4e:	42b2                	lw	t0,12(sp)
	int32_t r = (FastMultiply( har, aamt ) + FastMultiply( hbr, bamt ) + 128) >> 8;
    1f50:	c02a                	sw	a0,0(sp)
	int32_t hag = (hexa>>16) & 0xff;
    1f52:	01045513          	srli	a0,s0,0x10
	int32_t g = (FastMultiply( hag, aamt ) + FastMultiply( hbg, bamt ) + 128) >> 8;
    1f56:	8596                	mv	a1,t0
    1f58:	0ff57513          	andi	a0,a0,255
    1f5c:	1fffe097          	auipc	ra,0x1fffe
    1f60:	0ec080e7          	jalr	236(ra) # 20000048 <FastMultiply>
    1f64:	4612                	lw	a2,4(sp)
    1f66:	842a                	mv	s0,a0
	int32_t hbg = (hexb>>16) & 0xff;
    1f68:	0104d513          	srli	a0,s1,0x10
	int32_t g = (FastMultiply( hag, aamt ) + FastMultiply( hbg, bamt ) + 128) >> 8;
    1f6c:	85b2                	mv	a1,a2
    1f6e:	0ff57513          	andi	a0,a0,255
    1f72:	1fffe097          	auipc	ra,0x1fffe
    1f76:	0d6080e7          	jalr	214(ra) # 20000048 <FastMultiply>
	int32_t b = (FastMultiply( hab, aamt ) + FastMultiply( hbb, bamt ) + 128) >> 8;
    1f7a:	4342                	lw	t1,16(sp)
    1f7c:	47d2                	lw	a5,20(sp)
	int32_t r = (FastMultiply( har, aamt ) + FastMultiply( hbr, bamt ) + 128) >> 8;
    1f7e:	4682                	lw	a3,0(sp)
    1f80:	4722                	lw	a4,8(sp)
	int32_t b = (FastMultiply( hab, aamt ) + FastMultiply( hbb, bamt ) + 128) >> 8;
    1f82:	979a                	add	a5,a5,t1
	int32_t g = (FastMultiply( hag, aamt ) + FastMultiply( hbg, bamt ) + 128) >> 8;
    1f84:	942a                	add	s0,s0,a0
	int32_t r = (FastMultiply( har, aamt ) + FastMultiply( hbr, bamt ) + 128) >> 8;
    1f86:	9736                	add	a4,a4,a3
	int32_t b = (FastMultiply( hab, aamt ) + FastMultiply( hbb, bamt ) + 128) >> 8;
    1f88:	08078793          	addi	a5,a5,128
	int32_t r = (FastMultiply( har, aamt ) + FastMultiply( hbr, bamt ) + 128) >> 8;
    1f8c:	08070713          	addi	a4,a4,128
	int32_t g = (FastMultiply( hag, aamt ) + FastMultiply( hbg, bamt ) + 128) >> 8;
    1f90:	08040413          	addi	s0,s0,128
	int32_t b = (FastMultiply( hab, aamt ) + FastMultiply( hbb, bamt ) + 128) >> 8;
    1f94:	83a1                	srli	a5,a5,0x8
	return b | (r<<8) | (g<<16);
    1f96:	f0077713          	andi	a4,a4,-256
	int32_t g = (FastMultiply( hag, aamt ) + FastMultiply( hbg, bamt ) + 128) >> 8;
    1f9a:	8021                	srli	s0,s0,0x8
	return b | (r<<8) | (g<<16);
    1f9c:	8fd9                	or	a5,a5,a4
    1f9e:	0442                	slli	s0,s0,0x10
    1fa0:	8c5d                	or	s0,s0,a5
}
    1fa2:	5082                	lw	ra,32(sp)
    1fa4:	8522                	mv	a0,s0
    1fa6:	4472                	lw	s0,28(sp)
    1fa8:	44e2                	lw	s1,24(sp)
    1faa:	02410113          	addi	sp,sp,36
    1fae:	8082                	ret
	if( tween >= 255 ) return hexb;
    1fb0:	842e                	mv	s0,a1
    1fb2:	bfc5                	j	1fa2 <TweenHexColors+0xca>

00001fb4 <WS2812FillBuffSec.constprop.0>:
static volatile int WS2812LEDs;
static volatile int WS2812LEDPlace;
static volatile int WS2812BLEDInUse;
// This is the code that updates a portion of the WS2812dmabuff with new data.
// This effectively creates the bitstream that outputs to the LEDs.
static void WS2812FillBuffSec( uint16_t * ptr, int numhalfwords, int tce )
    1fb4:	1111                	addi	sp,sp,-28
    1fb6:	c826                	sw	s1,16(sp)
		0b1110100010001000, 0b1110100010001110, 0b1110100011101000, 0b1110100011101110,
		0b1110111010001000, 0b1110111010001110, 0b1110111011101000, 0b1110111011101110, };

	int i;
	uint16_t * end = ptr + numhalfwords;
	int ledcount = WS2812LEDs;
    1fb8:	c9c1a483          	lw	s1,-868(gp) # 20000098 <WS2812LEDs>
	int place = WS2812LEDPlace;
    1fbc:	c9818713          	addi	a4,gp,-872 # 20000094 <WS2812LEDPlace>
    1fc0:	4318                	lw	a4,0(a4)
    1fc2:	c9818613          	addi	a2,gp,-872 # 20000094 <WS2812LEDPlace>
static void WS2812FillBuffSec( uint16_t * ptr, int numhalfwords, int tce )
    1fc6:	ca22                	sw	s0,20(sp)
    1fc8:	cc06                	sw	ra,24(sp)
    1fca:	87aa                	mv	a5,a0
    1fcc:	842e                	mv	s0,a1
	uint16_t * end = ptr + numhalfwords;
    1fce:	03050693          	addi	a3,a0,48
    1fd2:	c032                	sw	a2,0(sp)
		ptr += 8;
		place++;
	}

#else
	while( place < 0 && ptr != end )
    1fd4:	04074a63          	bltz	a4,2028 <WS2812FillBuffSec.constprop.0+0x74>
		(*ptr++) = 0;
		place++;
	}
#endif

	while( ptr != end )
    1fd8:	04f68a63          	beq	a3,a5,202c <WS2812FillBuffSec.constprop.0+0x78>
	{
		if( place >= ledcount )
    1fdc:	04974f63          	blt	a4,s1,203a <WS2812FillBuffSec.constprop.0+0x86>
		{
			// Optionally, leave line high.
			while( ptr != end )
				(*ptr++) = 0;//0xffff;
    1fe0:	40f68633          	sub	a2,a3,a5
    1fe4:	4581                	li	a1,0
    1fe6:	853e                	mv	a0,a5
    1fe8:	c23a                	sw	a4,4(sp)
    1fea:	fe3fe0ef          	jal	ra,fcc <memset>

			// Only safe to do this when we're on the second leg.
			if( tce )
    1fee:	4712                	lw	a4,4(sp)
    1ff0:	cc15                	beqz	s0,202c <WS2812FillBuffSec.constprop.0+0x78>
			{
				if( place == ledcount )
    1ff2:	00e49a63          	bne	s1,a4,2006 <WS2812FillBuffSec.constprop.0+0x52>
				{
					// Take the DMA out of circular mode and let it expire.
					DMA1_Channel3->CFGR &= ~DMA_Mode_Circular;
    1ff6:	400206b7          	lui	a3,0x40020
    1ffa:	5a9c                	lw	a5,48(a3)
    1ffc:	fdf7f793          	andi	a5,a5,-33
    2000:	da9c                	sw	a5,48(a3)
					WS2812BLEDInUse = 0;
    2002:	c801aa23          	sw	zero,-876(gp) # 20000090 <WS2812BLEDInUse>
				}
				place++;
    2006:	0705                	addi	a4,a4,1
    2008:	a015                	j	202c <WS2812FillBuffSec.constprop.0+0x78>
		(*ptr++) = 0;
    200a:	00079023          	sh	zero,0(a5)
		(*ptr++) = 0;
    200e:	00079123          	sh	zero,2(a5)
		(*ptr++) = 0;
    2012:	00079223          	sh	zero,4(a5)
		(*ptr++) = 0;
    2016:	00079323          	sh	zero,6(a5)
		(*ptr++) = 0;
    201a:	00079423          	sh	zero,8(a5)
		place++;
    201e:	0705                	addi	a4,a4,1
    2020:	07b1                	addi	a5,a5,12
		(*ptr++) = 0;
    2022:	fe079f23          	sh	zero,-2(a5)
    2026:	b77d                	j	1fd4 <WS2812FillBuffSec.constprop.0+0x20>
	while( place < 0 && ptr != end )
    2028:	fef691e3          	bne	a3,a5,200a <WS2812FillBuffSec.constprop.0+0x56>
		ptr += 6;
		i += 6;
#endif

	}
	WS2812LEDPlace = place;
    202c:	4782                	lw	a5,0(sp)
}
    202e:	40e2                	lw	ra,24(sp)
    2030:	4452                	lw	s0,20(sp)
	WS2812LEDPlace = place;
    2032:	c398                	sw	a4,0(a5)
}
    2034:	44c2                	lw	s1,16(sp)
    2036:	0171                	addi	sp,sp,28
    2038:	8082                	ret
	uint8_t rs = rsbase>>3;
	uint32_t fire = ((huetable[(rs+190)&0xff]>>1)<<16) | (huetable[(rs+30)&0xff]) | ((huetable[(rs+0)]>>1)<<8);
	uint32_t ice  = 0x7f0000 | ((rsbase>>1)<<8) | ((rsbase>>1));

	// Because this chip doesn't natively support multiplies, we are going to avoid tweening of 1..254.
	return TweenHexColors( fire, ice, ((tween + ledno)>0)?255:0 ); // Where "tween" is a value from 0 ... 255
    203a:	c4418613          	addi	a2,gp,-956 # 20000040 <tween>
    203e:	4210                	lw	a2,0(a2)
		uint32_t ledval24bit = WS2812BLEDCallback( place++ );
    2040:	00170293          	addi	t0,a4,1
    2044:	9732                	add	a4,a4,a2
    2046:	0ff00613          	li	a2,255
    204a:	00e04363          	bgtz	a4,2050 <WS2812FillBuffSec.constprop.0+0x9c>
    204e:	4601                	li	a2,0
    2050:	007f45b7          	lui	a1,0x7f4
    2054:	650d                	lui	a0,0x3
    2056:	04058593          	addi	a1,a1,64 # 7f4040 <lib_i2c.c.d894f163+0x7e9f6c>
    205a:	0ff50513          	addi	a0,a0,255 # 30ff <_data_lma+0x4f7>
    205e:	c616                	sw	t0,12(sp)
    2060:	c43e                	sw	a5,8(sp)
    2062:	c236                	sw	a3,4(sp)
    2064:	3d95                	jal	1ed8 <TweenHexColors>
		ptr[0] = bitquartets[(ledval24bit>>12)&0xf];
    2066:	00b55613          	srli	a2,a0,0xb
    206a:	6709                	lui	a4,0x2
    206c:	6a470713          	addi	a4,a4,1700 # 26a4 <bitquartets.8>
    2070:	8a79                	andi	a2,a2,30
    2072:	963a                	add	a2,a2,a4
    2074:	47a2                	lw	a5,8(sp)
    2076:	00065603          	lhu	a2,0(a2)
		uint32_t ledval24bit = WS2812BLEDCallback( place++ );
    207a:	42b2                	lw	t0,12(sp)
    207c:	4692                	lw	a3,4(sp)
		ptr[0] = bitquartets[(ledval24bit>>12)&0xf];
    207e:	00c79023          	sh	a2,0(a5)
		ptr[1] = bitquartets[(ledval24bit>>8)&0xf];
    2082:	00755613          	srli	a2,a0,0x7
    2086:	8a79                	andi	a2,a2,30
    2088:	963a                	add	a2,a2,a4
    208a:	00065603          	lhu	a2,0(a2)
		ptr += 6;
    208e:	07b1                	addi	a5,a5,12
		ptr[1] = bitquartets[(ledval24bit>>8)&0xf];
    2090:	fec79b23          	sh	a2,-10(a5)
		ptr[2] = bitquartets[(ledval24bit>>4)&0xf];
    2094:	00355613          	srli	a2,a0,0x3
    2098:	8a79                	andi	a2,a2,30
    209a:	963a                	add	a2,a2,a4
    209c:	00065603          	lhu	a2,0(a2)
    20a0:	fec79c23          	sh	a2,-8(a5)
		ptr[3] = bitquartets[(ledval24bit>>0)&0xf];
    20a4:	00f57613          	andi	a2,a0,15
    20a8:	0606                	slli	a2,a2,0x1
    20aa:	963a                	add	a2,a2,a4
    20ac:	00065603          	lhu	a2,0(a2)
    20b0:	fec79d23          	sh	a2,-6(a5)
		ptr[4] = bitquartets[(ledval24bit>>20)&0xf];
    20b4:	01355613          	srli	a2,a0,0x13
		ptr[5] = bitquartets[(ledval24bit>>16)&0xf];
    20b8:	813d                	srli	a0,a0,0xf
		ptr[4] = bitquartets[(ledval24bit>>20)&0xf];
    20ba:	8a79                	andi	a2,a2,30
		ptr[5] = bitquartets[(ledval24bit>>16)&0xf];
    20bc:	8979                	andi	a0,a0,30
		ptr[4] = bitquartets[(ledval24bit>>20)&0xf];
    20be:	963a                	add	a2,a2,a4
		ptr[5] = bitquartets[(ledval24bit>>16)&0xf];
    20c0:	953a                	add	a0,a0,a4
    20c2:	00055703          	lhu	a4,0(a0)
		ptr[4] = bitquartets[(ledval24bit>>20)&0xf];
    20c6:	00065603          	lhu	a2,0(a2)
		ptr[5] = bitquartets[(ledval24bit>>16)&0xf];
    20ca:	fee79f23          	sh	a4,-2(a5)
		ptr[4] = bitquartets[(ledval24bit>>20)&0xf];
    20ce:	fec79e23          	sh	a2,-4(a5)
		uint32_t ledval24bit = WS2812BLEDCallback( place++ );
    20d2:	8716                	mv	a4,t0
    20d4:	b711                	j	1fd8 <WS2812FillBuffSec.constprop.0+0x24>

000020d6 <DMA1_Channel3_IRQHandler>:

void DMA1_Channel3_IRQHandler( void ) __attribute__((interrupt));
void DMA1_Channel3_IRQHandler( void ) 
{
    20d6:	fcc10113          	addi	sp,sp,-52
    20da:	c23e                	sw	a5,4(sp)
	//GPIOD->BSHR = 1;	 // Turn on GPIOD0 for profiling

	// Backup flags.
	volatile int intfr = DMA1->INTFR;
    20dc:	400207b7          	lui	a5,0x40020
    20e0:	439c                	lw	a5,0(a5)
{
    20e2:	d022                	sw	s0,32(sp)
    20e4:	ce26                	sw	s1,28(sp)
    20e6:	d806                	sw	ra,48(sp)
    20e8:	d616                	sw	t0,44(sp)
    20ea:	d41a                	sw	t1,40(sp)
    20ec:	d21e                	sw	t2,36(sp)
    20ee:	cc2a                	sw	a0,24(sp)
    20f0:	ca2e                	sw	a1,20(sp)
    20f2:	c832                	sw	a2,16(sp)
    20f4:	c636                	sw	a3,12(sp)
    20f6:	c43a                	sw	a4,8(sp)
	volatile int intfr = DMA1->INTFR;
    20f8:	c03e                	sw	a5,0(sp)
	do
	{
		// Clear all possible flags.
		DMA1->INTFCR = DMA1_IT_GL3;
    20fa:	40020437          	lui	s0,0x40020
    20fe:	10000493          	li	s1,256
    2102:	c044                	sw	s1,4(s0)

		// Strange note: These are backwards.  DMA1_IT_HT3 should be HALF and
		// DMA1_IT_TC3 should be COMPLETE.  But for some reason, doing this causes
		// LED jitter.  I am henseforth flipping the order.

		if( intfr & DMA1_IT_HT3 )
    2104:	4782                	lw	a5,0(sp)
    2106:	4007f793          	andi	a5,a5,1024
    210a:	c789                	beqz	a5,2114 <DMA1_Channel3_IRQHandler+0x3e>
		{
			// Halfwaay (Fill in first part)
			WS2812FillBuffSec( WS2812dmabuff, DMA_BUFFER_LEN / 2, 1 );
    210c:	4585                	li	a1,1
    210e:	cb818513          	addi	a0,gp,-840 # 200000b4 <WS2812dmabuff>
    2112:	354d                	jal	1fb4 <WS2812FillBuffSec.constprop.0>
		}
		if( intfr & DMA1_IT_TC3 )
    2114:	4782                	lw	a5,0(sp)
    2116:	2007f793          	andi	a5,a5,512
    211a:	c789                	beqz	a5,2124 <DMA1_Channel3_IRQHandler+0x4e>
		{
			// Complete (Fill in second part)
			WS2812FillBuffSec( WS2812dmabuff + DMA_BUFFER_LEN / 2, DMA_BUFFER_LEN / 2, 0 );
    211c:	4581                	li	a1,0
    211e:	ce818513          	addi	a0,gp,-792 # 200000e4 <WS2812dmabuff+0x30>
    2122:	3d49                	jal	1fb4 <WS2812FillBuffSec.constprop.0>
		}
		intfr = DMA1->INTFR;
    2124:	401c                	lw	a5,0(s0)
    2126:	c03e                	sw	a5,0(sp)
	} while( intfr & DMA1_IT_GL3 );
    2128:	4782                	lw	a5,0(sp)
    212a:	1007f793          	andi	a5,a5,256
    212e:	fbf1                	bnez	a5,2102 <DMA1_Channel3_IRQHandler+0x2c>

	//GPIOD->BSHR = 1<<16; // Turn off GPIOD0 for profiling
}
    2130:	5402                	lw	s0,32(sp)
    2132:	50c2                	lw	ra,48(sp)
    2134:	52b2                	lw	t0,44(sp)
    2136:	5322                	lw	t1,40(sp)
    2138:	5392                	lw	t2,36(sp)
    213a:	44f2                	lw	s1,28(sp)
    213c:	4562                	lw	a0,24(sp)
    213e:	45d2                	lw	a1,20(sp)
    2140:	4642                	lw	a2,16(sp)
    2142:	46b2                	lw	a3,12(sp)
    2144:	4722                	lw	a4,8(sp)
    2146:	4792                	lw	a5,4(sp)
    2148:	03410113          	addi	sp,sp,52
    214c:	30200073          	mret

00002150 <SysTick_Handler>:
{
    2150:	1151                	addi	sp,sp,-12
    2152:	c03e                	sw	a5,0(sp)
	SysTick->CMP += SYSTICK_ONE_MILLISECOND;
    2154:	e000f7b7          	lui	a5,0xe000f
{
    2158:	c23a                	sw	a4,4(sp)
	SysTick->CMP += SYSTICK_ONE_MILLISECOND;
    215a:	4b98                	lw	a4,16(a5)
{
    215c:	c436                	sw	a3,8(sp)
	SysTick->CMP += SYSTICK_ONE_MILLISECOND;
    215e:	66b1                	lui	a3,0xc
    2160:	b8068693          	addi	a3,a3,-1152 # bb80 <lib_i2c.c.d894f163+0x1aac>
    2164:	9736                	add	a4,a4,a3
    2166:	cb98                	sw	a4,16(a5)
	SysTick->SR = 0x00000000;
    2168:	0007a223          	sw	zero,4(a5) # e000f004 <_eusrstack+0xc000e804>
	systick_millis++;
    216c:	cb018793          	addi	a5,gp,-848 # 200000ac <systick_millis>
    2170:	4398                	lw	a4,0(a5)
}
    2172:	46a2                	lw	a3,8(sp)
	systick_millis++;
    2174:	0705                	addi	a4,a4,1
    2176:	c398                	sw	a4,0(a5)
}
    2178:	4712                	lw	a4,4(sp)
    217a:	4782                	lw	a5,0(sp)
    217c:	0131                	addi	sp,sp,12
    217e:	30200073          	mret

00002182 <I2C1_EV_IRQHandler>:
void SetSecondaryI2CSlaveReadOnly(bool read_only) {
    i2c_slave_state.read_only2 = read_only;
}

void I2C1_EV_IRQHandler(void) __attribute__((interrupt));
void I2C1_EV_IRQHandler(void) {
    2182:	7179                	addi	sp,sp,-48
    2184:	c03e                	sw	a5,0(sp)
    uint16_t STAR1, STAR2 __attribute__((unused));
    STAR1 = I2C1->STAR1;
    2186:	400057b7          	lui	a5,0x40005
void I2C1_EV_IRQHandler(void) {
    218a:	c23a                	sw	a4,4(sp)
    STAR1 = I2C1->STAR1;
    218c:	4147d703          	lhu	a4,1044(a5) # 40005414 <_eusrstack+0x20004c14>
    2190:	40078793          	addi	a5,a5,1024
    STAR2 = I2C1->STAR2;
    2194:	0187d783          	lhu	a5,24(a5)
void I2C1_EV_IRQHandler(void) {
    2198:	cc26                	sw	s1,24(sp)
    219a:	d606                	sw	ra,44(sp)
    STAR1 = I2C1->STAR1;
    219c:	01071493          	slli	s1,a4,0x10
void I2C1_EV_IRQHandler(void) {
    21a0:	d416                	sw	t0,40(sp)
    21a2:	d21a                	sw	t1,36(sp)
    21a4:	d01e                	sw	t2,32(sp)
    21a6:	ce22                	sw	s0,28(sp)
    21a8:	ca2a                	sw	a0,20(sp)
    21aa:	c82e                	sw	a1,16(sp)
    21ac:	c632                	sw	a2,12(sp)
    21ae:	c436                	sw	a3,8(sp)

    if (STAR1 & I2C_STAR1_ADDR) { // Start event
    21b0:	8b09                	andi	a4,a4,2
    STAR1 = I2C1->STAR1;
    21b2:	80c1                	srli	s1,s1,0x10
    if (STAR1 & I2C_STAR1_ADDR) { // Start event
    21b4:	c305                	beqz	a4,21d4 <I2C1_EV_IRQHandler+0x52>
        i2c_slave_state.first_write = 1; // Next write will be the offset
    21b6:	39818713          	addi	a4,gp,920 # 20000794 <i2c_slave_state>
    21ba:	4685                	li	a3,1
    21bc:	07c2                	slli	a5,a5,0x10
    21be:	83c1                	srli	a5,a5,0x10
    21c0:	00d70023          	sb	a3,0(a4)
        i2c_slave_state.position = i2c_slave_state.offset; // Reset position
    21c4:	00174683          	lbu	a3,1(a4)
        i2c_slave_state.address2matched = !!(STAR2 & I2C_STAR2_DUALF);
    21c8:	839d                	srli	a5,a5,0x7
    21ca:	8b85                	andi	a5,a5,1
        i2c_slave_state.position = i2c_slave_state.offset; // Reset position
    21cc:	00d70123          	sb	a3,2(a4)
        i2c_slave_state.address2matched = !!(STAR2 & I2C_STAR2_DUALF);
    21d0:	02f70523          	sb	a5,42(a4)
    }

    if (STAR1 & I2C_STAR1_RXNE) { // Write event
    21d4:	0404f793          	andi	a5,s1,64
    21d8:	c795                	beqz	a5,2204 <I2C1_EV_IRQHandler+0x82>
        if (i2c_slave_state.first_write) { // First byte written, set the offset
    21da:	39818793          	addi	a5,gp,920 # 20000794 <i2c_slave_state>
    21de:	0007c703          	lbu	a4,0(a5)
    21e2:	c379                	beqz	a4,22a8 <I2C1_EV_IRQHandler+0x126>
            i2c_slave_state.offset = I2C1->DATAR;
    21e4:	40005737          	lui	a4,0x40005
    21e8:	40070713          	addi	a4,a4,1024 # 40005400 <_eusrstack+0x20004c00>
    21ec:	01075703          	lhu	a4,16(a4)
            i2c_slave_state.position = i2c_slave_state.offset;
            i2c_slave_state.first_write = 0;
    21f0:	00078023          	sb	zero,0(a5)
            i2c_slave_state.writing = false;
    21f4:	020784a3          	sb	zero,41(a5)
            i2c_slave_state.offset = I2C1->DATAR;
    21f8:	0ff77713          	andi	a4,a4,255
    21fc:	00e780a3          	sb	a4,1(a5)
            i2c_slave_state.position = i2c_slave_state.offset;
    2200:	00e78123          	sb	a4,2(a5)
                }
            }
        }
    }

    if (STAR1 & I2C_STAR1_TXE) { // Read event
    2204:	0804f793          	andi	a5,s1,128
    2208:	c7a1                	beqz	a5,2250 <I2C1_EV_IRQHandler+0xce>
        i2c_slave_state.writing = false;
    220a:	39818793          	addi	a5,gp,920 # 20000794 <i2c_slave_state>
        if (i2c_slave_state.address2matched) {
    220e:	02a7c703          	lbu	a4,42(a5)
            if (i2c_slave_state.position < i2c_slave_state.size2) {
    2212:	0027c503          	lbu	a0,2(a5)
        i2c_slave_state.writing = false;
    2216:	020784a3          	sb	zero,41(a5)
        if (i2c_slave_state.address2matched) {
    221a:	400057b7          	lui	a5,0x40005
    221e:	40078793          	addi	a5,a5,1024 # 40005400 <_eusrstack+0x20004c00>
    2222:	39818413          	addi	s0,gp,920 # 20000794 <i2c_slave_state>
    2226:	cb79                	beqz	a4,22fc <I2C1_EV_IRQHandler+0x17a>
            if (i2c_slave_state.position < i2c_slave_state.size2) {
    2228:	01044703          	lbu	a4,16(s0) # 40020010 <_eusrstack+0x2001f810>
    222c:	0ee57663          	bgeu	a0,a4,2318 <I2C1_EV_IRQHandler+0x196>
                I2C1->DATAR = i2c_slave_state.registers2[i2c_slave_state.position];
    2230:	4458                	lw	a4,12(s0)
    2232:	972a                	add	a4,a4,a0
    2234:	00074703          	lbu	a4,0(a4)
    2238:	0ff77713          	andi	a4,a4,255
    223c:	00e79823          	sh	a4,16(a5)
                if (i2c_slave_state.read_callback2 != NULL) {
    2240:	505c                	lw	a5,36(s0)
                I2C1->DATAR = 0x00;
            }
        } else {
            if (i2c_slave_state.position < i2c_slave_state.size1) {
                I2C1->DATAR = i2c_slave_state.registers1[i2c_slave_state.position];
                if (i2c_slave_state.read_callback1 != NULL) {
    2242:	c391                	beqz	a5,2246 <I2C1_EV_IRQHandler+0xc4>
                    i2c_slave_state.read_callback1(i2c_slave_state.position);
    2244:	9782                	jalr	a5
                }
                i2c_slave_state.position++;
    2246:	00244783          	lbu	a5,2(s0)
    224a:	0785                	addi	a5,a5,1
    224c:	00f40123          	sb	a5,2(s0)
                I2C1->DATAR = 0x00;
            }
        }
    }

    if (STAR1 & I2C_STAR1_STOPF) { // Stop event
    2250:	88c1                	andi	s1,s1,16
    2252:	cc85                	beqz	s1,228a <I2C1_EV_IRQHandler+0x108>
        I2C1->CTLR1 &= ~(I2C_CTLR1_STOP); // Clear stop
    2254:	40005737          	lui	a4,0x40005
    2258:	40075783          	lhu	a5,1024(a4) # 40005400 <_eusrstack+0x20004c00>
    225c:	07c2                	slli	a5,a5,0x10
    225e:	83c1                	srli	a5,a5,0x10
    2260:	dff7f793          	andi	a5,a5,-513
    2264:	07c2                	slli	a5,a5,0x10
    2266:	83c1                	srli	a5,a5,0x10
    2268:	40f71023          	sh	a5,1024(a4)
        if (i2c_slave_state.address2matched) {
    226c:	39818793          	addi	a5,gp,920 # 20000794 <i2c_slave_state>
    2270:	02a7c703          	lbu	a4,42(a5)
    2274:	c74d                	beqz	a4,231e <I2C1_EV_IRQHandler+0x19c>
            if (i2c_slave_state.write_callback2 != NULL) {
    2276:	5398                	lw	a4,32(a5)
                i2c_slave_state.write_callback2(i2c_slave_state.offset, i2c_slave_state.position - i2c_slave_state.offset);
            }
        } else {
            if (i2c_slave_state.write_callback1 != NULL) {
    2278:	cb09                	beqz	a4,228a <I2C1_EV_IRQHandler+0x108>
                i2c_slave_state.write_callback1(i2c_slave_state.offset, i2c_slave_state.position - i2c_slave_state.offset);
    227a:	0017c503          	lbu	a0,1(a5)
    227e:	0027c583          	lbu	a1,2(a5)
    2282:	8d89                	sub	a1,a1,a0
    2284:	0ff5f593          	andi	a1,a1,255
    2288:	9702                	jalr	a4
            }
        }
    }
}
    228a:	4472                	lw	s0,28(sp)
    228c:	50b2                	lw	ra,44(sp)
    228e:	52a2                	lw	t0,40(sp)
    2290:	5312                	lw	t1,36(sp)
    2292:	5382                	lw	t2,32(sp)
    2294:	44e2                	lw	s1,24(sp)
    2296:	4552                	lw	a0,20(sp)
    2298:	45c2                	lw	a1,16(sp)
    229a:	4632                	lw	a2,12(sp)
    229c:	46a2                	lw	a3,8(sp)
    229e:	4712                	lw	a4,4(sp)
    22a0:	4782                	lw	a5,0(sp)
    22a2:	6145                	addi	sp,sp,48
    22a4:	30200073          	mret
            if (i2c_slave_state.address2matched) {
    22a8:	02a7c683          	lbu	a3,42(a5)
            i2c_slave_state.writing = true;
    22ac:	4705                	li	a4,1
    22ae:	02e784a3          	sb	a4,41(a5)
                if (i2c_slave_state.position < i2c_slave_state.size2 && !i2c_slave_state.read_only2) {
    22b2:	0027c703          	lbu	a4,2(a5)
            if (i2c_slave_state.address2matched) {
    22b6:	c695                	beqz	a3,22e2 <I2C1_EV_IRQHandler+0x160>
                if (i2c_slave_state.position < i2c_slave_state.size2 && !i2c_slave_state.read_only2) {
    22b8:	0107c683          	lbu	a3,16(a5)
    22bc:	f4d774e3          	bgeu	a4,a3,2204 <I2C1_EV_IRQHandler+0x82>
    22c0:	0287c683          	lbu	a3,40(a5)
    22c4:	f2a1                	bnez	a3,2204 <I2C1_EV_IRQHandler+0x82>
                    i2c_slave_state.registers2[i2c_slave_state.position] = I2C1->DATAR;
    22c6:	400056b7          	lui	a3,0x40005
    22ca:	4106d603          	lhu	a2,1040(a3) # 40005410 <_eusrstack+0x20004c10>
    22ce:	47d4                	lw	a3,12(a5)
                    i2c_slave_state.registers1[i2c_slave_state.position] = I2C1->DATAR;
    22d0:	96ba                	add	a3,a3,a4
    22d2:	0ff67613          	andi	a2,a2,255
    22d6:	00c68023          	sb	a2,0(a3)
                    i2c_slave_state.position++;
    22da:	0705                	addi	a4,a4,1
    22dc:	00e78123          	sb	a4,2(a5)
    22e0:	b715                	j	2204 <I2C1_EV_IRQHandler+0x82>
                if (i2c_slave_state.position < i2c_slave_state.size1 && !i2c_slave_state.read_only1) {
    22e2:	0087c683          	lbu	a3,8(a5)
    22e6:	f0d77fe3          	bgeu	a4,a3,2204 <I2C1_EV_IRQHandler+0x82>
    22ea:	01c7c683          	lbu	a3,28(a5)
    22ee:	fa99                	bnez	a3,2204 <I2C1_EV_IRQHandler+0x82>
                    i2c_slave_state.registers1[i2c_slave_state.position] = I2C1->DATAR;
    22f0:	400056b7          	lui	a3,0x40005
    22f4:	4106d603          	lhu	a2,1040(a3) # 40005410 <_eusrstack+0x20004c10>
    22f8:	43d4                	lw	a3,4(a5)
    22fa:	bfd9                	j	22d0 <I2C1_EV_IRQHandler+0x14e>
            if (i2c_slave_state.position < i2c_slave_state.size1) {
    22fc:	00844703          	lbu	a4,8(s0)
    2300:	00e57c63          	bgeu	a0,a4,2318 <I2C1_EV_IRQHandler+0x196>
                I2C1->DATAR = i2c_slave_state.registers1[i2c_slave_state.position];
    2304:	4058                	lw	a4,4(s0)
    2306:	972a                	add	a4,a4,a0
    2308:	00074703          	lbu	a4,0(a4)
    230c:	0ff77713          	andi	a4,a4,255
    2310:	00e79823          	sh	a4,16(a5)
                if (i2c_slave_state.read_callback1 != NULL) {
    2314:	4c1c                	lw	a5,24(s0)
    2316:	b735                	j	2242 <I2C1_EV_IRQHandler+0xc0>
                I2C1->DATAR = 0x00;
    2318:	00079823          	sh	zero,16(a5)
    231c:	bf15                	j	2250 <I2C1_EV_IRQHandler+0xce>
            if (i2c_slave_state.write_callback1 != NULL) {
    231e:	4bd8                	lw	a4,20(a5)
    2320:	bfa1                	j	2278 <I2C1_EV_IRQHandler+0xf6>

00002322 <I2C1_ER_IRQHandler>:

void I2C1_ER_IRQHandler(void) __attribute__((interrupt));
void I2C1_ER_IRQHandler(void) {
    2322:	1151                	addi	sp,sp,-12
    2324:	c23a                	sw	a4,4(sp)
    uint16_t STAR1 = I2C1->STAR1;
    2326:	40005737          	lui	a4,0x40005
void I2C1_ER_IRQHandler(void) {
    232a:	c03e                	sw	a5,0(sp)
    uint16_t STAR1 = I2C1->STAR1;
    232c:	41475783          	lhu	a5,1044(a4) # 40005414 <_eusrstack+0x20004c14>
void I2C1_ER_IRQHandler(void) {
    2330:	c436                	sw	a3,8(sp)
    uint16_t STAR1 = I2C1->STAR1;
    2332:	01079693          	slli	a3,a5,0x10

    if (STAR1 & I2C_STAR1_BERR) { // Bus error
    2336:	1007f793          	andi	a5,a5,256
    uint16_t STAR1 = I2C1->STAR1;
    233a:	82c1                	srli	a3,a3,0x10
    if (STAR1 & I2C_STAR1_BERR) { // Bus error
    233c:	cf89                	beqz	a5,2356 <I2C1_ER_IRQHandler+0x34>
        I2C1->STAR1 &= ~(I2C_STAR1_BERR); // Clear error
    233e:	41475783          	lhu	a5,1044(a4)
    2342:	40070713          	addi	a4,a4,1024
    2346:	07c2                	slli	a5,a5,0x10
    2348:	83c1                	srli	a5,a5,0x10
    234a:	eff7f793          	andi	a5,a5,-257
    234e:	07c2                	slli	a5,a5,0x10
    2350:	83c1                	srli	a5,a5,0x10
    2352:	00f71a23          	sh	a5,20(a4)
    }

    if (STAR1 & I2C_STAR1_ARLO) { // Arbitration lost error
    2356:	2006f793          	andi	a5,a3,512
    235a:	cf89                	beqz	a5,2374 <I2C1_ER_IRQHandler+0x52>
        I2C1->STAR1 &= ~(I2C_STAR1_ARLO); // Clear error
    235c:	40005737          	lui	a4,0x40005
    2360:	41475783          	lhu	a5,1044(a4) # 40005414 <_eusrstack+0x20004c14>
    2364:	07c2                	slli	a5,a5,0x10
    2366:	83c1                	srli	a5,a5,0x10
    2368:	dff7f793          	andi	a5,a5,-513
    236c:	07c2                	slli	a5,a5,0x10
    236e:	83c1                	srli	a5,a5,0x10
    2370:	40f71a23          	sh	a5,1044(a4)
    }

    if (STAR1 & I2C_STAR1_AF) { // Acknowledge failure
    2374:	4006f693          	andi	a3,a3,1024
    2378:	ce89                	beqz	a3,2392 <I2C1_ER_IRQHandler+0x70>
        I2C1->STAR1 &= ~(I2C_STAR1_AF); // Clear error
    237a:	40005737          	lui	a4,0x40005
    237e:	41475783          	lhu	a5,1044(a4) # 40005414 <_eusrstack+0x20004c14>
    2382:	07c2                	slli	a5,a5,0x10
    2384:	83c1                	srli	a5,a5,0x10
    2386:	bff7f793          	andi	a5,a5,-1025
    238a:	07c2                	slli	a5,a5,0x10
    238c:	83c1                	srli	a5,a5,0x10
    238e:	40f71a23          	sh	a5,1044(a4)
    }
}
    2392:	46a2                	lw	a3,8(sp)
    2394:	4712                	lw	a4,4(sp)
    2396:	4782                	lw	a5,0(sp)
    2398:	0131                	addi	sp,sp,12
    239a:	30200073          	mret
    239e:	0000                	unimp
    23a0:	4d49                	li	s10,18
    23a2:	5720                	lw	s0,104(a4)
    23a4:	4952                	lw	s2,20(sp)
    23a6:	4554                	lw	a3,12(a0)
    23a8:	4e45                	li	t3,17
    23aa:	5420                	lw	s0,104(s0)
    23ac:	000d0a4f          	fnmadd.s	fs4,fs10,ft0,ft0,rne
    23b0:	4d49                	li	s10,18
    23b2:	5220                	lw	s0,96(a2)
    23b4:	4145                	li	sp,17
    23b6:	4544                	lw	s1,12(a0)
    23b8:	204e                	fld	ft0,208(sp)
    23ba:	5246                	lw	tp,112(sp)
    23bc:	0a2e4d4f          	fnmadd.d	fs10,ft8,ft2,ft1,rmm
    23c0:	000d                	c.nop	3
    23c2:	0000                	unimp
    23c4:	6e756f63          	bltu	a0,t2,2ac2 <font+0x3d6>
    23c8:	6574                	flw	fa3,76(a0)
    23ca:	2072                	fld	ft0,280(sp)
    23cc:	6c25                	lui	s8,0x9
    23ce:	0075                	c.nop	29
    23d0:	000a                	c.slli	zero,0x2
    23d2:	0000                	unimp
    23d4:	3249                	jal	1d56 <main+0xbb8>
    23d6:	30203a43          	fmadd.s	fs4,ft0,ft2,ft6,rup
    23da:	2578                	fld	fa4,200(a0)
    23dc:	3230                	fld	fa2,96(a2)
    23de:	0058                	addi	a4,sp,4
    23e0:	6146                	flw	ft2,80(sp)
    23e2:	6c69                	lui	s8,0x1a
    23e4:	6465                	lui	s0,0x19
    23e6:	7420                	flw	fs0,104(s0)
    23e8:	6e69206f          	j	94ace <lib_i2c.c.d894f163+0x8a9fa>
    23ec:	7469                	lui	s0,0xffffa
    23ee:	4920                	lw	s0,80(a0)
    23f0:	4332                	lw	t1,12(sp)
    23f2:	0000                	unimp
    23f4:	6548                	flw	fa0,12(a0)
    23f6:	6c6c                	flw	fa1,92(s0)
    23f8:	6542206f          	j	24a4c <lib_i2c.c.d894f163+0x1a978>
    23fc:	2165                	jal	28a4 <font+0x1b8>
    23fe:	0000                	unimp
    2400:	2d2d                	jal	2a3a <font+0x34e>
    2402:	2d2d                	jal	2a3c <font+0x350>
    2404:	6e616353          	0x6e616353
    2408:	696e                	flw	fs2,216(sp)
    240a:	676e                	flw	fa4,216(sp)
    240c:	4920                	lw	s0,80(a0)
    240e:	4332                	lw	t1,12(sp)
    2410:	4220                	lw	s0,64(a2)
    2412:	7375                	lui	t1,0xffffd
    2414:	6620                	flw	fs0,72(a2)
    2416:	4420726f          	jal	tp,9858 <ch32_mess.c.a966e287+0x5229>
    241a:	7665                	lui	a2,0xffff9
    241c:	6369                	lui	t1,0x1a
    241e:	7365                	lui	t1,0xffff9
    2420:	2d2d                	jal	2a5a <font+0x36e>
    2422:	002d                	c.nop	11
    2424:	2d2d                	jal	2a5e <font+0x372>
    2426:	2d2d                	jal	2a60 <font+0x374>
    2428:	6f44                	flw	fs1,28(a4)
    242a:	656e                	flw	fa0,216(sp)
    242c:	5320                	lw	s0,96(a4)
    242e:	6e6e6163          	bltu	t3,t1,2b10 <font+0x424>
    2432:	6e69                	lui	t3,0x1a
    2434:	2d2d2d67          	0x2d2d2d67
    2438:	0a2d                	addi	s4,s4,11
    243a:	0000                	unimp
    243c:	3249                	jal	1dbe <main+0xc20>
    243e:	6c532043          	0x6c532043
    2442:	7661                	lui	a2,0xffff8
    2444:	2065                	jal	24ec <FONT_7x5+0x24>
    2446:	6f6d                	lui	t5,0x1b
    2448:	6564                	flw	fs1,76(a0)
    244a:	0000                	unimp
    244c:	6f4c                	flw	fa1,28(a4)
    244e:	676e                	flw	fa4,216(sp)
    2450:	5020                	lw	s0,96(s0)
    2452:	6572                	flw	fa0,28(sp)
    2454:	00007373          	csrrci	t1,ustatus,0
    2458:	676e6953          	0x676e6953
    245c:	656c                	flw	fa1,76(a0)
    245e:	4320                	lw	s0,64(a4)
    2460:	696c                	flw	fa1,84(a0)
    2462:	00006b63          	bltu	zero,zero,2478 <I2C1_ER_IRQHandler+0x156>
    2466:	0000                	unimp
    2468:	6f44                	flw	fs1,28(a4)
    246a:	6275                	lui	tp,0x1d
    246c:	656c                	flw	fa1,76(a0)
    246e:	4320                	lw	s0,64(a4)
    2470:	696c                	flw	fa1,84(a0)
    2472:	00006b63          	bltu	zero,zero,2488 <I2C1_ER_IRQHandler+0x166>
    2476:	0000                	unimp
    2478:	6548                	flw	fa0,12(a0)
    247a:	6c6c                	flw	fa1,92(s0)
    247c:	6f57206f          	j	75370 <lib_i2c.c.d894f163+0x6b29c>
    2480:	6c72                	flw	fs8,28(sp)
    2482:	2164                	fld	fs1,192(a0)
    2484:	0000                	unimp
    2486:	0000                	unimp
    2488:	37375453          	0x37375453
    248c:	72203533          	0x72203533
    2490:	6e75                	lui	t3,0x1d
    2492:	6974                	flw	fa3,84(a0)
    2494:	656d                	lui	a0,0x1b
    2496:	203a                	fld	ft0,392(sp)
    2498:	6c25                	lui	s8,0x9
    249a:	2075                	jal	2546 <FONT_7x5+0x7e>
    249c:	7375                	lui	t1,0xffffd
    249e:	000a                	c.slli	zero,0x2
    24a0:	1609                	addi	a2,a2,-30
    24a2:	2009                	jal	24a4 <I2C1_ER_IRQHandler+0x182>
    24a4:	1b21                	addi	s6,s6,-24
    24a6:	15171913          	0x15171913
    24aa:	2b1e                	fld	fs6,448(sp)
    24ac:	0504                	addi	s1,sp,640
    24ae:	0e02                	c.slli64	t3
    24b0:	0000                	unimp
    24b2:	0000                	unimp
    24b4:	1e08140b          	0x1e08140b
    24b8:	1d22                	slli	s10,s10,0x28
    24ba:	1e18                	addi	a4,sp,816
    24bc:	2b241a1b          	0x2b241a1b
    24c0:	0606                	slli	a2,a2,0x1
    24c2:	0f02                	c.slli64	t5
    24c4:	0000                	unimp
	...

000024c8 <FONT_7x5>:
    24c8:	0000 0000 0000 5f00 0000 0700 0700 1400     ......._........
    24d8:	147f 147f 2a24 2a7f 2312 0813 6264 4936     ....$*.*.#..db6I
    24e8:	2255 0050 0305 0000 1c00 4122 0000 2241     U"P......."A..A"
    24f8:	001c 2a08 2a1c 0808 3e08 0808 5000 0030     ...*.*...>...P0.
    2508:	0800 0808 0808 6000 0060 2000 0810 0204     .......``.. ....
    2518:	513e 4549 003e 7f42 0040 6142 4951 2146     >QIE>.B.@.BaQIF!
    2528:	4541 314b 1418 7f12 2710 4545 3945 4a3c     AEK1.....'EEE9<J
    2538:	4949 0130 0971 0305 4936 4949 0636 4949     II0.q...6III6.II
    2548:	1e29 3600 0036 0000 3656 0000 0800 2214     )..66...V6....."
    2558:	1441 1414 1414 2241 0814 0200 5101 0609     A.....A".....Q..
    2568:	4932 4179 7e3e 1111 7e11 497f 4949 3e36     2IyA>~...~.III6>
    2578:	4141 2241 417f 2241 7f1c 4949 4149 097f     AAA".AA"..IIIA..
    2588:	0109 3e01 4141 3251 087f 0808 007f 7f41     ...>AAQ2......A.
    2598:	0041 4020 3f41 7f01 1408 4122 407f 4040     A. @A?...."A.@@@
    25a8:	7f40 0402 7f02 047f 1008 3e7f 4141 3e41     @..........>AAA>
    25b8:	097f 0909 3e06 5141 5e21 097f 2919 4646     .....>AQ!^...)FF
    25c8:	4949 3149 0101 017f 3f01 4040 3f40 201f     III1.....?@@@?. 
    25d8:	2040 7f1f 1820 7f20 1463 1408 0363 7804     @ .. . .c...c..x
    25e8:	0304 5161 4549 0043 7f00 4141 0402 1008     ..aQIEC...AA....
    25f8:	4120 7f41 0000 0204 0201 4004 4040 4040      AA........@@@@@
    2608:	0100 0402 2000 5454 7854 487f 4444 3838     ..... TTTx.HDD88
    2618:	4444 2044 4438 4844 387f 5454 1854 7e08     DDD 8DDH.8TTT..~
    2628:	0109 0802 5414 3c54 087f 0404 0078 7d44     .....TT<....x.D}
    2638:	0040 4020 3d44 0000 107f 4428 4100 407f     @. @D=....(D.A.@
    2648:	7c00 1804 7804 087c 0404 3878 4444 3844     .|...x|...x8DDD8
    2658:	147c 1414 0808 1414 7c18 087c 0404 4808     |........||....H
    2668:	5454 2054 3f04 4044 3c20 4040 7c20 201c     TTT .?D@ <@@ |. 
    2678:	2040 3c1c 3040 3c40 2844 2810 0c44 5050     @ .<@0@<D(.(D.PP
    2688:	3c50 6444 4c54 0044 3608 0041 0000 007f     P<DdTLD..6A.....
    2698:	0000 3641 0008 0808 1c2a 0008               ..A6....*...

000026a4 <bitquartets.8>:
    26a4:	8888 888e 88e8 88ee 8e88 8e8e 8ee8 8eee     ................
    26b4:	e888 e88e e8e8 e8ee ee88 ee8e eee8 eeee     ................

000026c4 <colors>:
    26c4:	0000 000f 03e0 03ef 7800 780f 7be0 c618     .........x.x.{..
    26d4:	7bef 001f 07e0 07ff f800 f81f ffe0 ffff     .{..............
    26e4:	fd20 afe5 fc18 0000                          .......

000026ec <font>:
    26ec:	0000 0000 3e00 4f5b 3e5b 6b3e 6b4f 1c3e     .....>[O[>>kOk>.
    26fc:	7c3e 1c3e 3c18 3c7e 1c18 7d57 1c57 5e1c     >|>..<~<..W}W..^
    270c:	5e7f 001c 3c18 0018 e7ff e7c3 00ff 2418     .^...<.........$
    271c:	0018 e7ff e7db 30ff 3a48 0e06 2926 2979     .......0H:..&)y)
    272c:	4026 057f 0705 7f40 2505 5a3f e73c 5a3c     &@....@..%?Z<.<Z
    273c:	3e7f 1c1c 0808 1c1c 7f3e 2214 227f 5f14     .>......>.."."._
    274c:	005f 5f5f 0906 017f 007f 8966 6a95 6060     _.__......f..j``
    275c:	6060 9460 ffa2 94a2 0408 047e 1008 7e20     ```.......~... ~
    276c:	1020 0808 1c2a 0808 2a1c 0808 101e 1010      ...*....*......
    277c:	0c10 0c1e 0c1e 3830 383e 0630 3e0e 060e     ......08>80..>..
    278c:	0000 0000 0000 5f00 0000 0700 0700 1400     ......._........
    279c:	147f 147f 2a24 2a7f 2312 0813 6264 4936     ....$*.*.#..db6I
    27ac:	2056 0050 0708 0003 1c00 4122 0000 2241     V P......."A..A"
    27bc:	001c 1c2a 1c7f 082a 3e08 0808 8000 3070     ..*...*..>....p0
    27cc:	0800 0808 0808 0000 6060 2000 0810 0204     ........``. ....
    27dc:	513e 4549 003e 7f42 0040 4972 4949 2146     >QIE>.B.@.rIIIF!
    27ec:	4941 334d 1418 7f12 2710 4545 3945 4a3c     AIM3.....'EEE9<J
    27fc:	4949 4131 1121 0709 4936 4949 4636 4949     II1A!...6III6FII
    280c:	1e29 0000 0014 0000 3440 0000 0800 2214     ).......@4....."
    281c:	1441 1414 1414 4100 1422 0208 5901 0609     A......A"....Y..
    282c:	413e 595d 7c4e 1112 7c12 497f 4949 3e36     >A]YN|...|.III6>
    283c:	4141 2241 417f 4141 7f3e 4949 4149 097f     AAA".AAA>.IIIA..
    284c:	0909 3e01 4141 7351 087f 0808 007f 7f41     ...>AAQs......A.
    285c:	0041 4020 3f41 7f01 1408 4122 407f 4040     A. @A?...."A.@@@
    286c:	7f40 1c02 7f02 047f 1008 3e7f 4141 3e41     @..........>AAA>
    287c:	097f 0909 3e06 5141 5e21 097f 2919 2646     .....>AQ!^...)F&
    288c:	4949 3249 0103 017f 3f03 4040 3f40 201f     III2.....?@@@?. 
    289c:	2040 3f1f 3840 3f40 1463 1408 0363 7804     @ .?@8@?c...c..x
    28ac:	0304 5961 4d49 0043 417f 4141 0402 1008     ..aYIMC..AAA....
    28bc:	0020 4141 7f41 0204 0201 4004 4040 4040      .AAA......@@@@@
    28cc:	0300 0807 2000 5454 4078 287f 4444 3838     ..... TTx@.(DD88
    28dc:	4444 2844 4438 2844 387f 5454 1854 0800     DDD(8DD(.8TTT...
    28ec:	097e 1802 a4a4 789c 087f 0404 0078 7d44     ~......x....x.D}
    28fc:	0040 4020 3d40 7f00 2810 0044 4100 407f     @. @@=...(D..A.@
    290c:	7c00 7804 7804 087c 0404 3878 4444 3844     .|.x.x|...x8DDD8
    291c:	18fc 2424 1818 2424 fc18 087c 0404 4808     ..$$..$$..|....H
    292c:	5454 2454 0404 443f 3c24 4040 7c20 201c     TTT$..?D$<@@ |. 
    293c:	2040 3c1c 3040 3c40 2844 2810 4c44 9090     @ .<@0@<D(.(DL..
    294c:	7c90 6444 4c54 0044 3608 0041 0000 0077     .|DdTLD..6A...w.
    295c:	0000 3641 0008 0102 0402 3c02 2326 3c26     ..A6.......<&#&<
    296c:	a11e 61a1 3a12 4040 7a20 5438 5554 2159     ...a.:@@ z8TTUY!
    297c:	5555 4179 5422 7854 2142 5455 4078 5420     UUyA"TTxB!UTx@ T
    298c:	7955 0c40 521e 1272 5539 5555 3959 5454     Uy@..Rr.9UUUY9TT
    299c:	5954 5539 5454 0058 4500 417c 0200 7d45     TY9UTTX..E|A..E}
    29ac:	0042 4501 407c 127d 1211 f07d 2528 f028     B..E|@}...}.(%(.
    29bc:	547c 4555 2000 5454 547c 0a7c 7f09 3249     |TUE. TT|T|...I2
    29cc:	4949 3249 443a 4444 323a 484a 3048 413a     III2:DDD:2JHH0:A
    29dc:	2141 3a7a 4042 7820 9d00 a0a0 3d7d 4242     A!z:B@ x....}=BB
    29ec:	3d42 403d 4040 3c3d ff24 2424 7e48 4349     B==@@@=<$.$$H~IC
    29fc:	2b66 fc2f 2b2f 09ff f629 c020 7e88 0309     f+/./+..). ..~..
    2a0c:	5420 7954 0041 4400 417d 4830 4a48 3832      TTyA..D}A0HHJ28
    2a1c:	4040 7a22 7a00 0a0a 7d72 190d 7d31 2926     @@"z.z..r}..1}&)
    2a2c:	2f29 2628 2929 2629 4830 404d 3820 0808     )/(&)))&0HM@ 8..
    2a3c:	0808 0808 0808 2f38 c810 baac 102f 3428     ......8/..../.(4
    2a4c:	00fa 7b00 0000 1408 142a 2222 2a14 0814     ...{....*."".*..
    2a5c:	0055 0055 aa55 aa55 aa55 55ff 55ff 00ff     U.U.U.U.U..U.U..
    2a6c:	0000 00ff 1010 ff10 1400 1414 00ff 1010     ................
    2a7c:	00ff 10ff f010 f010 1414 fc14 1400 f714     ................
    2a8c:	ff00 0000 00ff 14ff f414 fc04 1414 1017     ................
    2a9c:	101f 1f10 1f10 1414 1f14 1000 1010 00f0     ................
    2aac:	0000 1f00 1010 1010 101f 1010 f010 0010     ................
    2abc:	0000 10ff 1010 1010 1010 1010 10ff 0000     ................
    2acc:	ff00 0014 ff00 ff00 0000 101f 0017 fc00     ................
    2adc:	f404 1414 1017 1417 f414 f404 0000 00ff     ................
    2aec:	14f7 1414 1414 1414 00f7 14f7 1414 1417     ................
    2afc:	1010 101f 141f 1414 14f4 1010 10f0 00f0     ................
    2b0c:	1f00 1f10 0000 1f00 0014 0000 14fc 0000     ................
    2b1c:	10f0 10f0 ff10 ff10 1414 ff14 1014 1010     ................
    2b2c:	001f 0000 f000 ff10 ffff ffff f0f0 f0f0     ................
    2b3c:	fff0 ffff 0000 0000 ff00 0fff 0f0f 0f0f     ................
    2b4c:	4438 3844 fc44 4a4a 344a 027e 0602 0206     8DD8D.JJJ4~.....
    2b5c:	027e 027e 5563 4149 3863 4444 043c 7e40     ~.~.cUIAc8DD<.@~
    2b6c:	1e20 0620 7e02 0202 a599 a5e7 1c99 492a      . ..~........*I
    2b7c:	1c2a 724c 7201 304c 4d4a 304d 4830 4878     *.Lr.rL0JMM00HxH
    2b8c:	bc30 5a62 3d46 493e 4949 7e00 0101 7e01     0.bZF=>III.~...~
    2b9c:	2a2a 2a2a 442a 5f44 4444 5140 444a 4040     *****DD_DD@QJD@@
    2bac:	4a44 4051 0000 01ff e003 ff80 0000 0808     DJQ@............
    2bbc:	6b6b 3608 3612 3624 0600 0909 0006 1800     kk.6.6$6........
    2bcc:	0018 0000 1010 3000 ff40 0101 1f00 0101     .......0@.......
    2bdc:	001e 1d19 1217 3c00 3c3c 003c 0000 0000     .......<<<<.....

00002bec <ssd1306_init_array>:
    2bec:	d5ae a880 d33f 4000 148d 0020 c8a1 12da     ....?..@.. .....
    2bfc:	8f81 f1d9 40db a6a4 ffaf 0000               .....@......

Disassembly of section .data:

20000000 <dev_aht21>:
20000000:	1a80 0006 0000 0000 0038 0001               ........8...

2000000c <dev_ssd1306>:
2000000c:	86a0 0001 0000 0000 003c 0001               ........<...

20000018 <i2c_registers>:
20000018:	00aa 0000 0000 0000 0000 0000 0000 0000     ................
	...

20000038 <lfsr>:
20000038:	0001 0000                                   ....

2000003c <line.5>:
2000003c:	0001 0000                                   ....

20000040 <tween>:
20000040:	ff42 ffff 0000 0000                         B.......

20000048 <FastMultiply>:
{
20000048:	87aa                	mv	a5,a0
	uint32_t ret = 0;
2000004a:	4501                	li	a0,0
		if( multiplicand & 1 )
2000004c:	0015f713          	andi	a4,a1,1
20000050:	c311                	beqz	a4,20000054 <FastMultiply+0xc>
			ret += mutliplicant;
20000052:	953e                	add	a0,a0,a5
		multiplicand>>=1;
20000054:	8185                	srli	a1,a1,0x1
		mutliplicant<<=1;
20000056:	0786                	slli	a5,a5,0x1
	} while( multiplicand );
20000058:	f9f5                	bnez	a1,2000004c <FastMultiply+0x4>
}
2000005a:	8082                	ret

2000005c <DMA1_Channel4_IRQHandler>:

// DMA transfer completion interrupt. It will fire when the DMA transfer is
// complete. We use it just to blink the LED
__attribute__((interrupt)) __attribute__((section(".srodata")))
void DMA1_Channel4_IRQHandler(void)
{
2000005c:	1151                	addi	sp,sp,-12
2000005e:	c23a                	sw	a4,4(sp)
	// Clear flag
	DMA1->INTFCR |= DMA_CTCIF4;
20000060:	40020737          	lui	a4,0x40020
{
20000064:	c03e                	sw	a5,0(sp)
	DMA1->INTFCR |= DMA_CTCIF4;
20000066:	435c                	lw	a5,4(a4)
{
20000068:	c436                	sw	a3,8(sp)
	DMA1->INTFCR |= DMA_CTCIF4;
2000006a:	6689                	lui	a3,0x2
2000006c:	8fd5                	or	a5,a5,a3
2000006e:	c35c                	sw	a5,4(a4)

	// Blink LED
	GPIOD->OUTDR ^= 1<<LED_PIN;
20000070:	400117b7          	lui	a5,0x40011
20000074:	40078793          	addi	a5,a5,1024 # 40011400 <_eusrstack+0x20010c00>
20000078:	47d8                	lw	a4,12(a5)
}
2000007a:	46a2                	lw	a3,8(sp)
	GPIOD->OUTDR ^= 1<<LED_PIN;
2000007c:	04074713          	xori	a4,a4,64
20000080:	c7d8                	sw	a4,12(a5)
}
20000082:	4712                	lw	a4,4(sp)
20000084:	4782                	lw	a5,0(sp)
20000086:	0131                	addi	sp,sp,12
20000088:	30200073          	mret
