Archive member included to satisfy reference by file (symbol)

../ch32fun/ch32fun//../misc\libgcc.a(muldi3.o)
                              C:\Users\uni\AppData\Local\Temp\ch32-mess.elf.YRr0Sg.ltrans0.ltrans.o (__mulsi3)
../ch32fun/ch32fun//../misc\libgcc.a(div.o)
                              C:\Users\uni\AppData\Local\Temp\ch32-mess.elf.YRr0Sg.ltrans0.ltrans.o (__divsi3)

Discarded input sections

 .text          0x0000000000000000        0x0 C:\Users\uni\AppData\Local\Temp\ch32-mess.elf.YRr0Sg.ltrans0.ltrans.o
 .data          0x0000000000000000        0x0 C:\Users\uni\AppData\Local\Temp\ch32-mess.elf.YRr0Sg.ltrans0.ltrans.o
 .bss           0x0000000000000000        0x0 C:\Users\uni\AppData\Local\Temp\ch32-mess.elf.YRr0Sg.ltrans0.ltrans.o
 .text.vprintf  0x0000000000000000       0x16 C:\Users\uni\AppData\Local\Temp\ch32-mess.elf.YRr0Sg.ltrans0.ltrans.o
 .text.snprintf
                0x0000000000000000       0x1c C:\Users\uni\AppData\Local\Temp\ch32-mess.elf.YRr0Sg.ltrans0.ltrans.o
 .text.strncpy  0x0000000000000000       0x1c C:\Users\uni\AppData\Local\Temp\ch32-mess.elf.YRr0Sg.ltrans0.ltrans.o
 .text.strcmp   0x0000000000000000       0x1a C:\Users\uni\AppData\Local\Temp\ch32-mess.elf.YRr0Sg.ltrans0.ltrans.o
 .text.strncmp  0x0000000000000000       0x2e C:\Users\uni\AppData\Local\Temp\ch32-mess.elf.YRr0Sg.ltrans0.ltrans.o
 .text.strchr   0x0000000000000000       0x16 C:\Users\uni\AppData\Local\Temp\ch32-mess.elf.YRr0Sg.ltrans0.ltrans.o
 .text.strrchr  0x0000000000000000       0x3c C:\Users\uni\AppData\Local\Temp\ch32-mess.elf.YRr0Sg.ltrans0.ltrans.o
 .text.memcmp   0x0000000000000000       0x26 C:\Users\uni\AppData\Local\Temp\ch32-mess.elf.YRr0Sg.ltrans0.ltrans.o
 .text.memmove  0x0000000000000000       0x5e C:\Users\uni\AppData\Local\Temp\ch32-mess.elf.YRr0Sg.ltrans0.ltrans.o
 .text.memchr   0x0000000000000000       0x1c C:\Users\uni\AppData\Local\Temp\ch32-mess.elf.YRr0Sg.ltrans0.ltrans.o
 .text.strnlen  0x0000000000000000       0x2a C:\Users\uni\AppData\Local\Temp\ch32-mess.elf.YRr0Sg.ltrans0.ltrans.o
 .text.twoway_strstr
                0x0000000000000000      0x236 C:\Users\uni\AppData\Local\Temp\ch32-mess.elf.YRr0Sg.ltrans0.ltrans.o
 .text.strstr   0x0000000000000000      0x140 C:\Users\uni\AppData\Local\Temp\ch32-mess.elf.YRr0Sg.ltrans0.ltrans.o
 .text.EHSVtoHEX
                0x0000000000000000      0x1e0 C:\Users\uni\AppData\Local\Temp\ch32-mess.elf.YRr0Sg.ltrans0.ltrans.o
 .data.ADCPrescTable.lto_priv.0
                0x0000000000000000       0x14 C:\Users\uni\AppData\Local\Temp\ch32-mess.elf.YRr0Sg.ltrans0.ltrans.o
 .data.ADCPrescTable.lto_priv.1
                0x0000000000000000       0x14 C:\Users\uni\AppData\Local\Temp\ch32-mess.elf.YRr0Sg.ltrans0.ltrans.o
 .data.ADCPrescTable.lto_priv.2
                0x0000000000000000       0x14 C:\Users\uni\AppData\Local\Temp\ch32-mess.elf.YRr0Sg.ltrans0.ltrans.o
 .data.ADCPrescTable.lto_priv.3
                0x0000000000000000       0x14 C:\Users\uni\AppData\Local\Temp\ch32-mess.elf.YRr0Sg.ltrans0.ltrans.o
 .data.APBAHBPrescTable.lto_priv.0
                0x0000000000000000       0x10 C:\Users\uni\AppData\Local\Temp\ch32-mess.elf.YRr0Sg.ltrans0.ltrans.o
 .data.APBAHBPrescTable.lto_priv.1
                0x0000000000000000       0x10 C:\Users\uni\AppData\Local\Temp\ch32-mess.elf.YRr0Sg.ltrans0.ltrans.o
 .data.APBAHBPrescTable.lto_priv.2
                0x0000000000000000       0x10 C:\Users\uni\AppData\Local\Temp\ch32-mess.elf.YRr0Sg.ltrans0.ltrans.o
 .data.APBAHBPrescTable.lto_priv.3
                0x0000000000000000       0x10 C:\Users\uni\AppData\Local\Temp\ch32-mess.elf.YRr0Sg.ltrans0.ltrans.o
 .data.i2c_registers
                0x0000000000000000       0x20 C:\Users\uni\AppData\Local\Temp\ch32-mess.elf.YRr0Sg.ltrans0.ltrans.o
 .sbss.adc_buffer
                0x0000000000000000        0x4 C:\Users\uni\AppData\Local\Temp\ch32-mess.elf.YRr0Sg.ltrans0.ltrans.o
 .sbss.bDMA     0x0000000000000000        0x4 C:\Users\uni\AppData\Local\Temp\ch32-mess.elf.YRr0Sg.ltrans0.ltrans.o
 .comment       0x0000000000000000       0x13 C:\Users\uni\AppData\Local\Temp\ch32-mess.elf.YRr0Sg.ltrans0.ltrans.o
 .comment       0x0000000000000000       0x13 C:\Users\uni\AppData\Local\Temp\ccLenKFr.debug.temp.o
 .comment       0x0000000000000000       0x13 C:\Users\uni\AppData\Local\Temp\ccOxmhxv.debug.temp.o
 .comment       0x0000000000000000       0x13 C:\Users\uni\AppData\Local\Temp\cc7Kkftz.debug.temp.o
 .debug_info    0x0000000000000000      0x56f C:\Users\uni\AppData\Local\Temp\ccwfurFC.debug.temp.o
 .debug_abbrev  0x0000000000000000      0x13d C:\Users\uni\AppData\Local\Temp\ccwfurFC.debug.temp.o
 .debug_line    0x0000000000000000       0xb9 C:\Users\uni\AppData\Local\Temp\ccwfurFC.debug.temp.o
 .debug_str     0x0000000000000000      0x637 C:\Users\uni\AppData\Local\Temp\ccwfurFC.debug.temp.o
 .comment       0x0000000000000000       0x13 C:\Users\uni\AppData\Local\Temp\ccwfurFC.debug.temp.o
 .comment       0x0000000000000000       0x13 C:\Users\uni\AppData\Local\Temp\ccZJg2DF.debug.temp.o
 .text          0x0000000000000000       0x18 ../ch32fun/ch32fun//../misc\libgcc.a(muldi3.o)
 .data          0x0000000000000000        0x0 ../ch32fun/ch32fun//../misc\libgcc.a(muldi3.o)
 .bss           0x0000000000000000        0x0 ../ch32fun/ch32fun//../misc\libgcc.a(muldi3.o)
 .debug_line    0x0000000000000000       0x7a ../ch32fun/ch32fun//../misc\libgcc.a(muldi3.o)
 .debug_line_str
                0x0000000000000000       0x95 ../ch32fun/ch32fun//../misc\libgcc.a(muldi3.o)
 .debug_info    0x0000000000000000       0x31 ../ch32fun/ch32fun//../misc\libgcc.a(muldi3.o)
 .debug_abbrev  0x0000000000000000       0x28 ../ch32fun/ch32fun//../misc\libgcc.a(muldi3.o)
 .debug_aranges
                0x0000000000000000       0x20 ../ch32fun/ch32fun//../misc\libgcc.a(muldi3.o)
 .debug_str     0x0000000000000000       0xac ../ch32fun/ch32fun//../misc\libgcc.a(muldi3.o)
 .riscv.attributes
                0x0000000000000000       0x1f ../ch32fun/ch32fun//../misc\libgcc.a(muldi3.o)
 .data          0x0000000000000000        0x0 ../ch32fun/ch32fun//../misc\libgcc.a(div.o)
 .bss           0x0000000000000000        0x0 ../ch32fun/ch32fun//../misc\libgcc.a(div.o)

Memory Configuration

Name             Origin             Length             Attributes
FLASH            0x0000000000000000 0x0000000000004000 xr
RAM              0x0000000020000000 0x0000000000000800 xrw
*default*        0x0000000000000000 0xffffffffffffffff

Linker script and memory map

LOAD C:\Users\uni\AppData\Local\Temp\cc6JMTMz.o
LOAD C:\Users\uni\AppData\Local\Temp\ch32-mess.elf.YRr0Sg.ltrans0.ltrans.o
LOAD C:\Users\uni\AppData\Local\Temp\ccLenKFr.debug.temp.o
LOAD C:\Users\uni\AppData\Local\Temp\ccOxmhxv.debug.temp.o
LOAD C:\Users\uni\AppData\Local\Temp\cc7Kkftz.debug.temp.o
LOAD C:\Users\uni\AppData\Local\Temp\ccwfurFC.debug.temp.o
LOAD C:\Users\uni\AppData\Local\Temp\ccZJg2DF.debug.temp.o
LOAD C:\Users\uni\AppData\Local\Temp\ccXbafvY.o
LOAD C:\Users\uni\AppData\Local\Temp\ccTRvT3v.o
LOAD C:\Users\uni\AppData\Local\Temp\cchOE2Da.o
LOAD C:\Users\uni\AppData\Local\Temp\ccFgCVSa.o
LOAD ../ch32fun/ch32fun//../misc\libgcc.a
LOAD ../ch32fun/ch32fun//../misc\libgcc.a

.init           0x0000000000000000       0xa0
                0x0000000000000000                _sinit = .
                0x0000000000000000                . = ALIGN (0x4)
 *(SORT_NONE(.init))
 .init          0x0000000000000000       0x9e C:\Users\uni\AppData\Local\Temp\ch32-mess.elf.YRr0Sg.ltrans0.ltrans.o
                0x0000000000000000                InterruptVector
                0x00000000000000a0                . = ALIGN (0x4)
 *fill*         0x000000000000009e        0x2 
                0x00000000000000a0                _einit = .

.text           0x00000000000000a0     0x2a54
                0x00000000000000a0                . = ALIGN (0x4)
 *(.text)
 .text          0x00000000000000a0       0x7e ../ch32fun/ch32fun//../misc\libgcc.a(div.o)
                0x00000000000000a0                __divsi3
                0x00000000000000a8                __udivsi3
                0x00000000000000a8                __hidden___udivsi3
                0x00000000000000d4                __umodsi3
                0x00000000000000f8                __modsi3
 *(.text.*)
 .text.mini_pad
                0x000000000000011e       0x9c C:\Users\uni\AppData\Local\Temp\ch32-mess.elf.YRr0Sg.ltrans0.ltrans.o
 .text._puts    0x00000000000001ba       0x42 C:\Users\uni\AppData\Local\Temp\ch32-mess.elf.YRr0Sg.ltrans0.ltrans.o
 .text.PrintHex
                0x00000000000001fc       0x58 C:\Users\uni\AppData\Local\Temp\ch32-mess.elf.YRr0Sg.ltrans0.ltrans.o
 .text.DelaySysTick
                0x0000000000000254       0x16 C:\Users\uni\AppData\Local\Temp\ch32-mess.elf.YRr0Sg.ltrans0.ltrans.o
 .text.mini_itoa.part.0
                0x000000000000026a       0xbe C:\Users\uni\AppData\Local\Temp\ch32-mess.elf.YRr0Sg.ltrans0.ltrans.o
 .text.rand8    0x0000000000000328       0x34 C:\Users\uni\AppData\Local\Temp\ch32-mess.elf.YRr0Sg.ltrans0.ltrans.o
 .text.SPI_send
                0x000000000000035c       0x16 C:\Users\uni\AppData\Local\Temp\ch32-mess.elf.YRr0Sg.ltrans0.ltrans.o
 .text.write_command_8
                0x0000000000000372       0x22 C:\Users\uni\AppData\Local\Temp\ch32-mess.elf.YRr0Sg.ltrans0.ltrans.o
 .text.write_data_16
                0x0000000000000394       0x34 C:\Users\uni\AppData\Local\Temp\ch32-mess.elf.YRr0Sg.ltrans0.ltrans.o
 .text.tft_send_DMA
                0x00000000000003c8       0x5c C:\Users\uni\AppData\Local\Temp\ch32-mess.elf.YRr0Sg.ltrans0.ltrans.o
 .text.tft_set_window
                0x0000000000000424       0x52 C:\Users\uni\AppData\Local\Temp\ch32-mess.elf.YRr0Sg.ltrans0.ltrans.o
 .text.tft_draw_pixel
                0x0000000000000476       0x2c C:\Users\uni\AppData\Local\Temp\ch32-mess.elf.YRr0Sg.ltrans0.ltrans.o
 .text._draw_fast_vLine
                0x00000000000004a2       0x64 C:\Users\uni\AppData\Local\Temp\ch32-mess.elf.YRr0Sg.ltrans0.ltrans.o
 .text._draw_fast_hLine
                0x0000000000000506       0x66 C:\Users\uni\AppData\Local\Temp\ch32-mess.elf.YRr0Sg.ltrans0.ltrans.o
 .text.tft_draw_line
                0x000000000000056c      0x18c C:\Users\uni\AppData\Local\Temp\ch32-mess.elf.YRr0Sg.ltrans0.ltrans.o
 .text.tft_draw_rect
                0x00000000000006f8       0x70 C:\Users\uni\AppData\Local\Temp\ch32-mess.elf.YRr0Sg.ltrans0.ltrans.o
 .text.tft_print
                0x0000000000000768       0xd0 C:\Users\uni\AppData\Local\Temp\ch32-mess.elf.YRr0Sg.ltrans0.ltrans.o
 .text.tft_fill_rect
                0x0000000000000838       0x62 C:\Users\uni\AppData\Local\Temp\ch32-mess.elf.YRr0Sg.ltrans0.ltrans.o
 .text.i2c_error
                0x000000000000089a       0x92 C:\Users\uni\AppData\Local\Temp\ch32-mess.elf.YRr0Sg.ltrans0.ltrans.o
 .text.i2c_ping
                0x000000000000092c       0xde C:\Users\uni\AppData\Local\Temp\ch32-mess.elf.YRr0Sg.ltrans0.ltrans.o
 .text.internal_handle_input.constprop.0
                0x0000000000000a0a        0xa C:\Users\uni\AppData\Local\Temp\ch32-mess.elf.YRr0Sg.ltrans0.ltrans.o
 .text._write.constprop.0
                0x0000000000000a14       0xf2 C:\Users\uni\AppData\Local\Temp\ch32-mess.elf.YRr0Sg.ltrans0.ltrans.o
 .text.__puts_uart
                0x0000000000000b06       0x14 C:\Users\uni\AppData\Local\Temp\ch32-mess.elf.YRr0Sg.ltrans0.ltrans.o
 .text.handle_reset
                0x0000000000000b1a       0x76 C:\Users\uni\AppData\Local\Temp\ch32-mess.elf.YRr0Sg.ltrans0.ltrans.o
                0x0000000000000b1a                handle_reset
 .text.vector_handler
                0x0000000000000b90       0x66 C:\Users\uni\AppData\Local\Temp\ch32-mess.elf.YRr0Sg.ltrans0.ltrans.o
                0x0000000000000b90                EXTI2_IRQHandler
                0x0000000000000b90                TIM8_TRG_COM_IRQHandler
                0x0000000000000b90                TIM8_CC_IRQHandler
                0x0000000000000b90                UART8_IRQHandler
                0x0000000000000b90                TIM1_CC_IRQHandler
                0x0000000000000b90                HardFault_Handler
                0x0000000000000b90                GPIOB_IRQHandler
                0x0000000000000b90                USBPD_IRQHandler
                0x0000000000000b90                TIM6_IRQHandler
                0x0000000000000b90                GPIOA_IRQHandler
                0x0000000000000b90                PVD_IRQHandler
                0x0000000000000b90                SDIO_IRQHandler
                0x0000000000000b90                TIM9_BRK_IRQHandler
                0x0000000000000b90                DMA2_Channel8_IRQHandler
                0x0000000000000b90                USBWakeUp_IRQHandler
                0x0000000000000b90                CAN2_RX1_IRQHandler
                0x0000000000000b90                EXTI3_IRQHandler
                0x0000000000000b90                UART1_IRQHandler
                0x0000000000000b90                USBHS_IRQHandler
                0x0000000000000b90                DMA2_Channel9_IRQHandler
                0x0000000000000b90                TIM10_CC_IRQHandler
                0x0000000000000b90                EXTI25_16_IRQHandler
                0x0000000000000b90                USBFS_IRQHandler
                0x0000000000000b90                UART0_IRQHandler
                0x0000000000000b90                EXTI0_IRQHandler
                0x0000000000000b90                I2C2_EV_IRQHandler
                0x0000000000000b90                TIM10_TRG_COM_IRQHandler
                0x0000000000000b90                CAN2_SCE_IRQHandler
                0x0000000000000b90                ADC1_2_IRQHandler
                0x0000000000000b90                BB_IRQHandler
                0x0000000000000b90                Break_Point_Handler
                0x0000000000000b90                TIM2_CC_IRQHandler
                0x0000000000000b90                SPI1_IRQHandler
                0x0000000000000b90                TAMPER_IRQHandler
                0x0000000000000b90                TMR0_IRQHandler
                0x0000000000000b90                AWU_IRQHandler
                0x0000000000000b90                EXTI7_0_IRQHandler
                0x0000000000000b90                CAN2_RX0_IRQHandler
                0x0000000000000b90                OSCWakeUp_IRQHandler
                0x0000000000000b90                TIM8_UP_IRQHandler
                0x0000000000000b90                Ecall_M_Mode_Handler
                0x0000000000000b90                DMA2_Channel2_IRQHandler
                0x0000000000000b90                ADC1_IRQHandler
                0x0000000000000b90                TIM2_BRK_IRQHandler
                0x0000000000000b90                TIM9_UP_IRQHandler
                0x0000000000000b90                USART3_IRQHandler
                0x0000000000000b90                RTC_IRQHandler
                0x0000000000000b90                DMA1_Channel7_IRQHandler
                0x0000000000000b90                CAN1_RX1_IRQHandler
                0x0000000000000b90                DVP_IRQHandler
                0x0000000000000b90                UART5_IRQHandler
                0x0000000000000b90                EXTI15_8_IRQHandler
                0x0000000000000b90                TIM4_IRQHandler
                0x0000000000000b90                DMA2_Channel1_IRQHandler
                0x0000000000000b90                USBPD_WKUP_IRQHandler
                0x0000000000000b90                UART2_IRQHandler
                0x0000000000000b90                USART4_IRQHandler
                0x0000000000000b90                PWMX_IRQHandler
                0x0000000000000b90                DMA1_Channel6_IRQHandler
                0x0000000000000b90                UART4_IRQHandler
                0x0000000000000b90                DMA2_Channel4_IRQHandler
                0x0000000000000b90                TIM3_IRQHandler
                0x0000000000000b90                RCC_IRQHandler
                0x0000000000000b90                TIM1_TRG_COM_IRQHandler
                0x0000000000000b90                DMA1_Channel1_IRQHandler
                0x0000000000000b90                DMA2_Channel7_IRQHandler
                0x0000000000000b90                EXTI15_10_IRQHandler
                0x0000000000000b90                ADC_IRQHandler
                0x0000000000000b90                DMA1_Channel8_IRQHandler
                0x0000000000000b90                TMR2_IRQHandler
                0x0000000000000b90                DefaultIRQHandler
                0x0000000000000b90                TIM7_IRQHandler
                0x0000000000000b90                CAN2_TX_IRQHandler
                0x0000000000000b90                TIM5_IRQHandler
                0x0000000000000b90                TMR1_IRQHandler
                0x0000000000000b90                USB_IRQHandler
                0x0000000000000b90                EXTI9_5_IRQHandler
                0x0000000000000b90                PIOC_IRQHandler
                0x0000000000000b90                SPI2_IRQHandler
                0x0000000000000b90                OSC32KCal_IRQHandler
                0x0000000000000b90                I2C_IRQHandler
                0x0000000000000b90                TIM10_BRK_IRQHandler
                0x0000000000000b90                TIM9_CC_IRQHandler
                0x0000000000000b90                DMA2_Channel5_IRQHandler
                0x0000000000000b90                USB2_IRQHandler
                0x0000000000000b90                USBHSWakeUp_IRQHandler
                0x0000000000000b90                DMA1_Channel5_IRQHandler
                0x0000000000000b90                EXTI4_IRQHandler
                0x0000000000000b90                USB_LP_CAN1_RX0_IRQHandler
                0x0000000000000b90                RNG_IRQHandler
                0x0000000000000b90                USB_HP_CAN1_TX_IRQHandler
                0x0000000000000b90                LLE_IRQHandler
                0x0000000000000b90                FSMC_IRQHandler
                0x0000000000000b90                ETH_IRQHandler
                0x0000000000000b90                TIM1_UP_IRQHandler
                0x0000000000000b90                WWDG_IRQHandler
                0x0000000000000b90                DMA2_Channel11_IRQHandler
                0x0000000000000b90                WDOG_BAT_IRQHandler
                0x0000000000000b90                Ecall_U_Mode_Handler
                0x0000000000000b90                TMR3_IRQHandler
                0x0000000000000b90                DMA2_Channel6_IRQHandler
                0x0000000000000b90                TIM2_IRQHandler
                0x0000000000000b90                SW_Handler
                0x0000000000000b90                TIM1_BRK_IRQHandler
                0x0000000000000b90                OPA_IRQHandler
                0x0000000000000b90                DMA2_Channel10_IRQHandler
                0x0000000000000b90                EXTI1_IRQHandler
                0x0000000000000b90                SPI0_IRQHandler
                0x0000000000000b90                RTCAlarm_IRQHandler
                0x0000000000000b90                TIM10_UP_IRQHandler
                0x0000000000000b90                TIM9_TRG_COM_IRQHandler
                0x0000000000000b90                UART7_IRQHandler
                0x0000000000000b90                USART2_IRQHandler
                0x0000000000000b90                UART6_IRQHandler
                0x0000000000000b90                ETHWakeUp_IRQHandler
                0x0000000000000b90                I2C2_ER_IRQHandler
                0x0000000000000b90                DMA1_Channel2_IRQHandler
                0x0000000000000b90                TIM8_BRK_IRQHandler
                0x0000000000000b90                TIM2_TRG_IRQHandler
                0x0000000000000b90                CAN1_SCE_IRQHandler
                0x0000000000000b90                FLASH_IRQHandler
                0x0000000000000b90                USBFSWakeUp_IRQHandler
                0x0000000000000b90                USART1_IRQHandler
                0x0000000000000b90                OTG_FS_IRQHandler
                0x0000000000000b90                SPI3_IRQHandler
                0x0000000000000b90                USBFS_WakeUp_IRQHandler
                0x0000000000000b90                UART3_IRQHandler
                0x0000000000000b90                DMA2_Channel3_IRQHandler
                0x0000000000000be8                NMI_Handler
                0x0000000000000be8                NMI_RCC_CSS_IRQHandler
 .text.strlen   0x0000000000000bf6       0x12 C:\Users\uni\AppData\Local\Temp\ch32-mess.elf.YRr0Sg.ltrans0.ltrans.o
                0x0000000000000bf6                strlen
 .text.mini_vpprintf
                0x0000000000000c08      0x1b4 C:\Users\uni\AppData\Local\Temp\ch32-mess.elf.YRr0Sg.ltrans0.ltrans.o
 .text.printf   0x0000000000000dbc       0x28 C:\Users\uni\AppData\Local\Temp\ch32-mess.elf.YRr0Sg.ltrans0.ltrans.o
                0x0000000000000dbc                printf
 .text.ssd1306_i2c_error
                0x0000000000000de4       0x7c C:\Users\uni\AppData\Local\Temp\ch32-mess.elf.YRr0Sg.ltrans0.ltrans.o
 .text.ssd1306_i2c_send.constprop.0
                0x0000000000000e60      0x118 C:\Users\uni\AppData\Local\Temp\ch32-mess.elf.YRr0Sg.ltrans0.ltrans.o
 .text.ssd1306_cmd
                0x0000000000000f78       0x18 C:\Users\uni\AppData\Local\Temp\ch32-mess.elf.YRr0Sg.ltrans0.ltrans.o
 .text.mini_vsnprintf
                0x0000000000000f90       0x30 C:\Users\uni\AppData\Local\Temp\ch32-mess.elf.YRr0Sg.ltrans0.ltrans.o
 .text.sprintf  0x0000000000000fc0       0x22 C:\Users\uni\AppData\Local\Temp\ch32-mess.elf.YRr0Sg.ltrans0.ltrans.o
                0x0000000000000fc0                sprintf
 .text.memset   0x0000000000000fe2       0x12 C:\Users\uni\AppData\Local\Temp\ch32-mess.elf.YRr0Sg.ltrans0.ltrans.o
                0x0000000000000fe2                memset
 .text.strcpy   0x0000000000000ff4       0x14 C:\Users\uni\AppData\Local\Temp\ch32-mess.elf.YRr0Sg.ltrans0.ltrans.o
                0x0000000000000ff4                strcpy
 .text.memcpy   0x0000000000001008       0x1c C:\Users\uni\AppData\Local\Temp\ch32-mess.elf.YRr0Sg.ltrans0.ltrans.o
                0x0000000000001008                memcpy
 .text.ssd1306_data.isra.0
                0x0000000000001024       0x2a C:\Users\uni\AppData\Local\Temp\ch32-mess.elf.YRr0Sg.ltrans0.ltrans.o
 .text.ssd1306_print_str_at.constprop.0
                0x000000000000104e       0x68 C:\Users\uni\AppData\Local\Temp\ch32-mess.elf.YRr0Sg.ltrans0.ltrans.o
 .text.puts     0x00000000000010b6       0x30 C:\Users\uni\AppData\Local\Temp\ch32-mess.elf.YRr0Sg.ltrans0.ltrans.o
                0x00000000000010b6                puts
 .text.putchar  0x00000000000010e6       0x6e C:\Users\uni\AppData\Local\Temp\ch32-mess.elf.YRr0Sg.ltrans0.ltrans.o
                0x00000000000010e6                putchar
 .text.i2c_scan_callback
                0x0000000000001154       0x6a C:\Users\uni\AppData\Local\Temp\ch32-mess.elf.YRr0Sg.ltrans0.ltrans.o
 .text.SystemInit
                0x00000000000011be       0x58 C:\Users\uni\AppData\Local\Temp\ch32-mess.elf.YRr0Sg.ltrans0.ltrans.o
                0x00000000000011be                SystemInit
 .text.startup.main
                0x0000000000001216      0xb8e C:\Users\uni\AppData\Local\Temp\ch32-mess.elf.YRr0Sg.ltrans0.ltrans.o
                0x0000000000001216                main
 .text.SysTick_Handler
                0x0000000000001da4       0x32 C:\Users\uni\AppData\Local\Temp\ch32-mess.elf.YRr0Sg.ltrans0.ltrans.o
 .text.I2C1_EV_IRQHandler
                0x0000000000001dd6      0x1a0 C:\Users\uni\AppData\Local\Temp\ch32-mess.elf.YRr0Sg.ltrans0.ltrans.o
 .text.I2C1_ER_IRQHandler
                0x0000000000001f76       0x7c C:\Users\uni\AppData\Local\Temp\ch32-mess.elf.YRr0Sg.ltrans0.ltrans.o
 .text.TweenHexColors
                0x0000000000001ff2       0xdc C:\Users\uni\AppData\Local\Temp\ch32-mess.elf.YRr0Sg.ltrans0.ltrans.o
 .text.WS2812FillBuffSec.constprop.0
                0x00000000000020ce      0x122 C:\Users\uni\AppData\Local\Temp\ch32-mess.elf.YRr0Sg.ltrans0.ltrans.o
 .text.DMA1_Channel3_IRQHandler
                0x00000000000021f0       0x7a C:\Users\uni\AppData\Local\Temp\ch32-mess.elf.YRr0Sg.ltrans0.ltrans.o
 *(.rodata)
 *(.rodata*)
 *fill*         0x000000000000226a        0x2 
 .rodata.ssd1306_i2c_error.str1.4
                0x000000000000226c       0x2d C:\Users\uni\AppData\Local\Temp\ch32-mess.elf.YRr0Sg.ltrans0.ltrans.o
 *fill*         0x0000000000002299        0x3 
 .rodata.puts.str1.4
                0x000000000000229c        0x2 C:\Users\uni\AppData\Local\Temp\ch32-mess.elf.YRr0Sg.ltrans0.ltrans.o
 *fill*         0x000000000000229e        0x2 
 .rodata.i2c_scan_callback.str1.4
                0x00000000000022a0        0xc C:\Users\uni\AppData\Local\Temp\ch32-mess.elf.YRr0Sg.ltrans0.ltrans.o
 .rodata.main.str1.4
                0x00000000000022ac       0xa9 C:\Users\uni\AppData\Local\Temp\ch32-mess.elf.YRr0Sg.ltrans0.ltrans.o
 *fill*         0x0000000000002355        0x3 
 .rodata.str1.4
                0x0000000000002358       0x46 C:\Users\uni\AppData\Local\Temp\ch32-mess.elf.YRr0Sg.ltrans0.ltrans.o
 *fill*         0x000000000000239e        0x2 
 .rodata.FONT_7x5
                0x00000000000023a0      0x1db C:\Users\uni\AppData\Local\Temp\ch32-mess.elf.YRr0Sg.ltrans0.ltrans.o
 *fill*         0x000000000000257b        0x1 
 .rodata.bitquartets.8
                0x000000000000257c       0x20 C:\Users\uni\AppData\Local\Temp\ch32-mess.elf.YRr0Sg.ltrans0.ltrans.o
 .rodata.colors
                0x000000000000259c       0x26 C:\Users\uni\AppData\Local\Temp\ch32-mess.elf.YRr0Sg.ltrans0.ltrans.o
 *fill*         0x00000000000025c2        0x2 
 .rodata.errstr
                0x00000000000025c4       0x14 C:\Users\uni\AppData\Local\Temp\ch32-mess.elf.YRr0Sg.ltrans0.ltrans.o
 .rodata.font   0x00000000000025d8      0x500 C:\Users\uni\AppData\Local\Temp\ch32-mess.elf.YRr0Sg.ltrans0.ltrans.o
 .rodata.ssd1306_init_array
                0x0000000000002ad8       0x1a C:\Users\uni\AppData\Local\Temp\ch32-mess.elf.YRr0Sg.ltrans0.ltrans.o
 *(.gnu.linkonce.t.*)
                0x0000000000002af4                . = ALIGN (0x4)
 *fill*         0x0000000000002af2        0x2 

.rela.dyn       0x0000000000002af4        0x0
 .rela.text.mini_pad
                0x0000000000002af4        0x0 C:\Users\uni\AppData\Local\Temp\ch32-mess.elf.YRr0Sg.ltrans0.ltrans.o
 .rela.text._write.constprop.0
                0x0000000000002af4        0x0 C:\Users\uni\AppData\Local\Temp\ch32-mess.elf.YRr0Sg.ltrans0.ltrans.o
 .rela.text.handle_reset
                0x0000000000002af4        0x0 C:\Users\uni\AppData\Local\Temp\ch32-mess.elf.YRr0Sg.ltrans0.ltrans.o
 .rela.text.mini_vpprintf
                0x0000000000002af4        0x0 C:\Users\uni\AppData\Local\Temp\ch32-mess.elf.YRr0Sg.ltrans0.ltrans.o
 .rela.text.ssd1306_i2c_error
                0x0000000000002af4        0x0 C:\Users\uni\AppData\Local\Temp\ch32-mess.elf.YRr0Sg.ltrans0.ltrans.o
 .rela.text.ssd1306_data.isra.0
                0x0000000000002af4        0x0 C:\Users\uni\AppData\Local\Temp\ch32-mess.elf.YRr0Sg.ltrans0.ltrans.o
 .rela.text.puts
                0x0000000000002af4        0x0 C:\Users\uni\AppData\Local\Temp\ch32-mess.elf.YRr0Sg.ltrans0.ltrans.o
 .rela.text.i2c_scan_callback
                0x0000000000002af4        0x0 C:\Users\uni\AppData\Local\Temp\ch32-mess.elf.YRr0Sg.ltrans0.ltrans.o
 .rela.text.startup.main
                0x0000000000002af4        0x0 C:\Users\uni\AppData\Local\Temp\ch32-mess.elf.YRr0Sg.ltrans0.ltrans.o
 .rela.text.WS2812FillBuffSec.constprop.0
                0x0000000000002af4        0x0 C:\Users\uni\AppData\Local\Temp\ch32-mess.elf.YRr0Sg.ltrans0.ltrans.o

.fini           0x0000000000002af4        0x0
 *(SORT_NONE(.fini))
                0x0000000000002af4                . = ALIGN (0x4)
                [!provide]                        PROVIDE (_etext = .)
                [!provide]                        PROVIDE (_eitcm = .)

.preinit_array  0x0000000000002af4        0x0
                [!provide]                        PROVIDE (__preinit_array_start = .)
 *(.preinit_array)
                [!provide]                        PROVIDE (__preinit_array_end = .)

.init_array     0x0000000000002af4        0x0
                [!provide]                        PROVIDE (__init_array_start = .)
 *(SORT_BY_INIT_PRIORITY(.init_array.*) SORT_BY_INIT_PRIORITY(.ctors.*))
 *(.init_array EXCLUDE_FILE(*crtend?.o *crtend.o *crtbegin?.o *crtbegin.o) .ctors)
                [!provide]                        PROVIDE (__init_array_end = .)

.fini_array     0x0000000000002af4        0x0
                [!provide]                        PROVIDE (__fini_array_start = .)
 *(SORT_BY_INIT_PRIORITY(.fini_array.*) SORT_BY_INIT_PRIORITY(.dtors.*))
 *(.fini_array EXCLUDE_FILE(*crtend?.o *crtend.o *crtbegin?.o *crtbegin.o) .dtors)
                [!provide]                        PROVIDE (__fini_array_end = .)

.ctors
 *crtbegin.o(.ctors)
 *crtbegin?.o(.ctors)
 *(EXCLUDE_FILE(*crtend?.o *crtend.o) .ctors)
 *(SORT_BY_NAME(.ctors.*))
 *(.ctors)

.dtors
 *crtbegin.o(.dtors)
 *crtbegin?.o(.dtors)
 *(EXCLUDE_FILE(*crtend?.o *crtend.o) .dtors)
 *(SORT_BY_NAME(.dtors.*))
 *(.dtors)

.dalign         0x0000000020000000        0x0 load address 0x0000000000002af4
                0x0000000020000000                . = ALIGN (0x4)
                0x0000000020000000                PROVIDE (_data_vma = .)

.dlalign        0x0000000000002af4        0x0
                0x0000000000002af4                . = ALIGN (0x4)
                0x0000000000002af4                PROVIDE (_data_lma = .)

.data           0x0000000020000000       0x64 load address 0x0000000000002af4
                0x0000000020000000                . = ALIGN (0x4)
                0x00000000200003fc                __global_pointer$ = (. + 0x3fc)
 *(.gnu.linkonce.r.*)
 *(.data .data.*)
 .data.dev_aht21
                0x0000000020000000        0xc C:\Users\uni\AppData\Local\Temp\ch32-mess.elf.YRr0Sg.ltrans0.ltrans.o
 *(.gnu.linkonce.d.*)
                0x0000000020000010                . = ALIGN (0x8)
 *fill*         0x000000002000000c        0x4 
 *(.sdata .sdata.*)
 .sdata.lfsr    0x0000000020000010        0x4 C:\Users\uni\AppData\Local\Temp\ch32-mess.elf.YRr0Sg.ltrans0.ltrans.o
 .sdata.line.7  0x0000000020000014        0x4 C:\Users\uni\AppData\Local\Temp\ch32-mess.elf.YRr0Sg.ltrans0.ltrans.o
 .sdata.tween   0x0000000020000018        0x4 C:\Users\uni\AppData\Local\Temp\ch32-mess.elf.YRr0Sg.ltrans0.ltrans.o
 *(.sdata2*)
 *(.gnu.linkonce.s.*)
                0x0000000020000020                . = ALIGN (0x8)
 *fill*         0x000000002000001c        0x4 
 *(.srodata.cst16)
 *(.srodata.cst8)
 *(.srodata.cst4)
 *(.srodata.cst2)
 *(.srodata .srodata.*)
 .srodata       0x0000000020000020       0x44 C:\Users\uni\AppData\Local\Temp\ch32-mess.elf.YRr0Sg.ltrans0.ltrans.o
                0x0000000020000064                . = ALIGN (0x4)
                0x0000000020000064                PROVIDE (_edata = .)

.bss            0x0000000020000064      0x754 load address 0x0000000000002b58
                0x0000000020000064                . = ALIGN (0x4)
                0x0000000020000064                PROVIDE (_sbss = .)
 *(.sbss*)
 .sbss.DC_PIN2  0x0000000020000064        0x1 C:\Users\uni\AppData\Local\Temp\ch32-mess.elf.YRr0Sg.ltrans0.ltrans.o
 *fill*         0x0000000020000065        0x3 
 .sbss.WS2812BLEDInUse
                0x0000000020000068        0x4 C:\Users\uni\AppData\Local\Temp\ch32-mess.elf.YRr0Sg.ltrans0.ltrans.o
 .sbss.WS2812LEDPlace
                0x000000002000006c        0x4 C:\Users\uni\AppData\Local\Temp\ch32-mess.elf.YRr0Sg.ltrans0.ltrans.o
 .sbss.WS2812LEDs
                0x0000000020000070        0x4 C:\Users\uni\AppData\Local\Temp\ch32-mess.elf.YRr0Sg.ltrans0.ltrans.o
 .sbss._cursor_x
                0x0000000020000074        0x2 C:\Users\uni\AppData\Local\Temp\ch32-mess.elf.YRr0Sg.ltrans0.ltrans.o
 .sbss._cursor_y
                0x0000000020000076        0x2 C:\Users\uni\AppData\Local\Temp\ch32-mess.elf.YRr0Sg.ltrans0.ltrans.o
 .sbss._i2c_timeout
                0x0000000020000078        0x4 C:\Users\uni\AppData\Local\Temp\ch32-mess.elf.YRr0Sg.ltrans0.ltrans.o
 .sbss.rect_idx.1
                0x000000002000007c        0x1 C:\Users\uni\AppData\Local\Temp\ch32-mess.elf.YRr0Sg.ltrans0.ltrans.o
 *fill*         0x000000002000007d        0x3 
 .sbss.ssd1306_buffer
                0x0000000020000080        0x1 C:\Users\uni\AppData\Local\Temp\ch32-mess.elf.YRr0Sg.ltrans0.ltrans.o
 *fill*         0x0000000020000081        0x3 
 .sbss.systick_millis
                0x0000000020000084        0x4 C:\Users\uni\AppData\Local\Temp\ch32-mess.elf.YRr0Sg.ltrans0.ltrans.o
 .sbss.x_idx.4  0x0000000020000088        0x1 C:\Users\uni\AppData\Local\Temp\ch32-mess.elf.YRr0Sg.ltrans0.ltrans.o
 .sbss.y_idx.3  0x0000000020000089        0x1 C:\Users\uni\AppData\Local\Temp\ch32-mess.elf.YRr0Sg.ltrans0.ltrans.o
 *(.gnu.linkonce.sb.*)
 *(.bss*)
 *fill*         0x000000002000008a        0x2 
 .bss.WS2812dmabuff
                0x000000002000008c       0x60 C:\Users\uni\AppData\Local\Temp\ch32-mess.elf.YRr0Sg.ltrans0.ltrans.o
 .bss._buffer   0x00000000200000ec      0x140 C:\Users\uni\AppData\Local\Temp\ch32-mess.elf.YRr0Sg.ltrans0.ltrans.o
 .bss._frame_buffer
                0x000000002000022c      0x140 C:\Users\uni\AppData\Local\Temp\ch32-mess.elf.YRr0Sg.ltrans0.ltrans.o
 .bss.frame_buffer
                0x000000002000036c      0x400 C:\Users\uni\AppData\Local\Temp\ch32-mess.elf.YRr0Sg.ltrans0.ltrans.o
 .bss.i2c_slave_state
                0x000000002000076c       0x2c C:\Users\uni\AppData\Local\Temp\ch32-mess.elf.YRr0Sg.ltrans0.ltrans.o
 .bss.str.2     0x0000000020000798        0xc C:\Users\uni\AppData\Local\Temp\ch32-mess.elf.YRr0Sg.ltrans0.ltrans.o
 .bss.str_output
                0x00000000200007a4       0x14 C:\Users\uni\AppData\Local\Temp\ch32-mess.elf.YRr0Sg.ltrans0.ltrans.o
 *(.gnu.linkonce.b.*)
 *(COMMON*)
                0x00000000200007b8                . = ALIGN (0x4)
                0x00000000200007b8                PROVIDE (_ebss = .)
                [!provide]                        PROVIDE (_end = _ebss)
                [!provide]                        PROVIDE (end = .)
                0x0000000020000800                PROVIDE (_eusrstack = (ORIGIN (RAM) + LENGTH (RAM)))

/DISCARD/
 *(.note .note.*)
 *(.eh_frame .eh_frame.*)
 *(.comment .comment.*)
 *(.ARM.extab* .gnu.linkonce.armextab.*)
 *(.ARM.exidx*)
OUTPUT(ch32-mess.elf elf32-littleriscv)

.riscv.attributes
                0x0000000000000000       0x21
 .riscv.attributes
                0x0000000000000000       0x21 C:\Users\uni\AppData\Local\Temp\ch32-mess.elf.YRr0Sg.ltrans0.ltrans.o
 .riscv.attributes
                0x0000000000000021       0x1f ../ch32fun/ch32fun//../misc\libgcc.a(div.o)

.debug_info     0x0000000000000000     0xa84d
 .debug_info    0x0000000000000000     0x30f1 C:\Users\uni\AppData\Local\Temp\ch32-mess.elf.YRr0Sg.ltrans0.ltrans.o
 .debug_info    0x00000000000030f1     0x1188 C:\Users\uni\AppData\Local\Temp\ccLenKFr.debug.temp.o
                0x00000000000030f1                ch32fun.c.5d7ba795
 .debug_info    0x0000000000004279     0x592f C:\Users\uni\AppData\Local\Temp\ccOxmhxv.debug.temp.o
                0x0000000000004279                ch32_mess.c.3c7569de
 .debug_info    0x0000000000009ba8      0x47c C:\Users\uni\AppData\Local\Temp\cc7Kkftz.debug.temp.o
                0x0000000000009ba8                nrf24l01_low_level.c.429e1874
 .debug_info    0x000000000000a024      0x7cc C:\Users\uni\AppData\Local\Temp\ccZJg2DF.debug.temp.o
                0x000000000000a024                lib_i2c.c.bfb73fe7
 .debug_info    0x000000000000a7f0       0x5d ../ch32fun/ch32fun//../misc\libgcc.a(div.o)

.debug_abbrev   0x0000000000000000      0xc79
 .debug_abbrev  0x0000000000000000      0x27c C:\Users\uni\AppData\Local\Temp\ch32-mess.elf.YRr0Sg.ltrans0.ltrans.o
 .debug_abbrev  0x000000000000027c      0x233 C:\Users\uni\AppData\Local\Temp\ccLenKFr.debug.temp.o
 .debug_abbrev  0x00000000000004af      0x43e C:\Users\uni\AppData\Local\Temp\ccOxmhxv.debug.temp.o
 .debug_abbrev  0x00000000000008ed      0x171 C:\Users\uni\AppData\Local\Temp\cc7Kkftz.debug.temp.o
 .debug_abbrev  0x0000000000000a5e      0x1f3 C:\Users\uni\AppData\Local\Temp\ccZJg2DF.debug.temp.o
 .debug_abbrev  0x0000000000000c51       0x28 ../ch32fun/ch32fun//../misc\libgcc.a(div.o)

.debug_loc      0x0000000000000000     0x4b49
 .debug_loc     0x0000000000000000     0x4b49 C:\Users\uni\AppData\Local\Temp\ch32-mess.elf.YRr0Sg.ltrans0.ltrans.o

.debug_aranges  0x0000000000000000      0x250
 .debug_aranges
                0x0000000000000000      0x230 C:\Users\uni\AppData\Local\Temp\ch32-mess.elf.YRr0Sg.ltrans0.ltrans.o
 .debug_aranges
                0x0000000000000230       0x20 ../ch32fun/ch32fun//../misc\libgcc.a(div.o)

.debug_ranges   0x0000000000000000      0xbc8
 .debug_ranges  0x0000000000000000      0xbc8 C:\Users\uni\AppData\Local\Temp\ch32-mess.elf.YRr0Sg.ltrans0.ltrans.o

.debug_line     0x0000000000000000     0x63a0
 .debug_line    0x0000000000000000     0x5aef C:\Users\uni\AppData\Local\Temp\ch32-mess.elf.YRr0Sg.ltrans0.ltrans.o
 .debug_line    0x0000000000005aef      0x18e C:\Users\uni\AppData\Local\Temp\ccLenKFr.debug.temp.o
 .debug_line    0x0000000000005c7d      0x390 C:\Users\uni\AppData\Local\Temp\ccOxmhxv.debug.temp.o
 .debug_line    0x000000000000600d      0x10d C:\Users\uni\AppData\Local\Temp\cc7Kkftz.debug.temp.o
 .debug_line    0x000000000000611a      0x133 C:\Users\uni\AppData\Local\Temp\ccZJg2DF.debug.temp.o
 .debug_line    0x000000000000624d      0x153 ../ch32fun/ch32fun//../misc\libgcc.a(div.o)

.debug_str      0x0000000000000000     0x2d6c
 .debug_str     0x0000000000000000      0x1b7 C:\Users\uni\AppData\Local\Temp\ch32-mess.elf.YRr0Sg.ltrans0.ltrans.o
                                        0x1f3 (size before relaxing)
 .debug_str     0x00000000000001b7      0x5d9 C:\Users\uni\AppData\Local\Temp\ccLenKFr.debug.temp.o
                                        0x70c (size before relaxing)
 .debug_str     0x0000000000000790     0x237c C:\Users\uni\AppData\Local\Temp\ccOxmhxv.debug.temp.o
                                       0x281b (size before relaxing)
 .debug_str     0x0000000000002b0c       0xa8 C:\Users\uni\AppData\Local\Temp\cc7Kkftz.debug.temp.o
                                        0x43f (size before relaxing)
 .debug_str     0x0000000000002bb4      0x105 C:\Users\uni\AppData\Local\Temp\ccZJg2DF.debug.temp.o
                                        0x511 (size before relaxing)
 .debug_str     0x0000000000002cb9       0xb3 ../ch32fun/ch32fun//../misc\libgcc.a(div.o)
                                         0xd9 (size before relaxing)

.debug_frame    0x0000000000000000      0x7cc
 .debug_frame   0x0000000000000000      0x7cc C:\Users\uni\AppData\Local\Temp\ch32-mess.elf.YRr0Sg.ltrans0.ltrans.o

.debug_line_str
                0x0000000000000000       0x92
 .debug_line_str
                0x0000000000000000       0x92 ../ch32fun/ch32fun//../misc\libgcc.a(div.o)
